 PhysX_64

 Timestamp is 61c0b9d4 (Mon Dec 20 20:13:56 2021)

 Preferred load address is 0000000180000000

 Start         Length     Name                   Class
 0001:00000000 00002e60H .text$di                CODE
 0001:00002e60 001e3c40H .text$mn                CODE
 0001:001e6aa0 00000040H .text$mn$00             CODE
 0001:001e6ae0 000009f0H .text$x                 CODE
 0002:00000000 00000300H .idata$5                DATA
 0002:00000300 00000028H .00cfg                  DATA
 0002:00000328 00000008H .CRT$XCA                DATA
 0002:00000330 000016f0H .CRT$XCU                DATA
 0002:00001a20 00000008H .CRT$XCZ                DATA
 0002:00001a28 00000008H .CRT$XIA                DATA
 0002:00001a30 00000018H .CRT$XIC                DATA
 0002:00001a48 00000008H .CRT$XIZ                DATA
 0002:00001a50 00000008H .CRT$XPA                DATA
 0002:00001a58 00000010H .CRT$XPX                DATA
 0002:00001a68 00000008H .CRT$XPXA               DATA
 0002:00001a70 00000008H .CRT$XPZ                DATA
 0002:00001a78 00000008H .CRT$XTA                DATA
 0002:00001a80 00000010H .CRT$XTZ                DATA
 0002:00001a88 00000000H .gehcont$y              DATA
 0002:00001a88 00000000H .gfids$y                DATA
 0002:00001a90 0001f970H .rdata                  DATA
 0002:00021400 00000008H .rdata$CastGuardVftablesA DATA
 0002:00021408 00000008H .rdata$CastGuardVftablesC DATA
 0002:00021410 00000464H .rdata$r                DATA
 0002:00021874 000008c4H .rdata$voltmd           DATA
 0002:00022138 00000468H .rdata$zzzdbg           DATA
 0002:000225a0 00000008H .rtc$IAA                DATA
 0002:000225a8 00000008H .rtc$IZZ                DATA
 0002:000225b0 00000008H .rtc$TAA                DATA
 0002:000225b8 00000008H .rtc$TZZ                DATA
 0002:000225c0 000248a0H .xdata                  DATA
 0002:00046e60 00000084H .xdata$x                DATA
 0002:00046ee4 00000040H .didat$2                DATA
 0002:00046f24 00000024H .didat$3                DATA
 0002:00046f48 00000660H .didat$4                DATA
 0002:000475a8 000047b8H .didat$6                DATA
 0002:0004bd60 00000660H .didat$7                DATA
 0002:0004c3c0 000023c8H .edata                  DATA
 0002:0004e788 00000014H .idata$2                DATA
 0002:0004e79c 00000014H .idata$3                DATA
 0002:0004e7b0 00000300H .idata$4                DATA
 0002:0004eab0 0000070cH .idata$6                DATA
 0003:00000000 00001540H .data                   DATA
 0003:00001540 00002e70H .data$r                 DATA
 0003:000043b0 000000f0H .data$rs                DATA
 0003:000044a0 00000660H .didat$5                DATA
 0003:00004b00 00004a10H .bss                    DATA
 0004:00000000 000184a4H .pdata                  DATA
 0005:00000000 00002304H _RDATA                  DATA
 0006:00000000 000000a0H .rsrc$01                DATA
 0006:000000a0 00000488H .rsrc$02                DATA

  Address         Publics by Value              Rva+Base               Lib:Object

 0000:00000000       __arm64x_redirection_metadata_count 0000000000000000     <absolute>
 0000:00000000       __guard_iat_table          0000000000000000     <absolute>
 0000:00000000       __hybrid_auxiliary_iat     0000000000000000     <absolute>
 0000:00000000       __arm64x_extra_rfe_table_size 0000000000000000     <absolute>
 0000:00000000       __dynamic_value_reloc_table 0000000000000000     <absolute>
 0000:00000000       __hybrid_code_map          0000000000000000     <absolute>
 0000:00000000       __x64_code_ranges_to_entry_points 0000000000000000     <absolute>
 0000:00000000       __arm64x_native_entrypoint 0000000000000000     <absolute>
 0000:00000000       __enclave_config           0000000000000000     <absolute>
 0000:00000000       __arm64x_redirection_metadata 0000000000000000     <absolute>
 0000:00000000       __guard_fids_count         0000000000000000     <absolute>
 0000:00000000       __guard_longjmp_table      0000000000000000     <absolute>
 0000:00000000       __guard_longjmp_count      0000000000000000     <absolute>
 0000:00000000       __arm64x_extra_rfe_table   0000000000000000     <absolute>
 0000:00000000       __guard_fids_table         0000000000000000     <absolute>
 0000:00000000       __hybrid_auxiliary_iat_copy 0000000000000000     <absolute>
 0000:00000000       __guard_eh_cont_table      0000000000000000     <absolute>
 0000:00000000       __guard_check_icall_a64n_fptr 0000000000000000     <absolute>
 0000:00000000       __guard_eh_cont_count      0000000000000000     <absolute>
 0000:00000000       __hybrid_code_map_count    0000000000000000     <absolute>
 0000:00000000       __guard_iat_count          0000000000000000     <absolute>
 0000:00000000       ___safe_se_handler_count   0000000000000000     <absolute>
 0000:00000000       ___safe_se_handler_table   0000000000000000     <absolute>
 0000:00000000       __x64_code_ranges_to_entry_points_count 0000000000000000     <absolute>
 0000:00000000       __AbsoluteZero             0000000000000000     <absolute>
 0000:00000100       __guard_flags              0000000000000100     <absolute>
 0000:00000000       __ImageBase                0000000180000000     <linker-defined>
 0001:00002e60       ??0PxPhysicsGeneratedValues@physx@@QEAA@PEBVPxPhysics@1@@Z 0000000180003e60 f   PxAutoGeneratedMetaDataObjects.obj
 0001:00002e90       ??0PxPhysicsGeneratedInfo@physx@@QEAA@XZ 0000000180003e90 f   PxAutoGeneratedMetaDataObjects.obj
 0001:00003050       ??0PxMaterialGeneratedValues@physx@@QEAA@PEBVPxMaterial@1@@Z 0000000180004050 f   PxAutoGeneratedMetaDataObjects.obj
 0001:000030f0       ??0PxMaterialGeneratedInfo@physx@@QEAA@XZ 00000001800040f0 f   PxAutoGeneratedMetaDataObjects.obj
 0001:00003290       ??0PxActorGeneratedValues@physx@@QEAA@PEBVPxActor@1@@Z 0000000180004290 f   PxAutoGeneratedMetaDataObjects.obj
 0001:00003310       ??0PxActorGeneratedInfo@physx@@QEAA@XZ 0000000180004310 f   PxAutoGeneratedMetaDataObjects.obj
 0001:00003440       ??0PxRigidActorGeneratedValues@physx@@QEAA@PEBVPxRigidActor@1@@Z 0000000180004440 f   PxAutoGeneratedMetaDataObjects.obj
 0001:00003480       ??0PxRigidActorGeneratedInfo@physx@@QEAA@XZ 0000000180004480 f   PxAutoGeneratedMetaDataObjects.obj
 0001:00003540       ??0PxRigidBodyGeneratedValues@physx@@QEAA@PEBVPxRigidBody@1@@Z 0000000180004540 f   PxAutoGeneratedMetaDataObjects.obj
 0001:00003690       ??0PxRigidBodyGeneratedInfo@physx@@QEAA@XZ 0000000180004690 f   PxAutoGeneratedMetaDataObjects.obj
 0001:000039a0       ??0PxRigidDynamicGeneratedValues@physx@@QEAA@PEBVPxRigidDynamic@1@@Z 00000001800049a0 f   PxAutoGeneratedMetaDataObjects.obj
 0001:00003a70       ??0PxRigidDynamicGeneratedInfo@physx@@QEAA@XZ 0000000180004a70 f   PxAutoGeneratedMetaDataObjects.obj
 0001:00003c30       ??0PxRigidStaticGeneratedValues@physx@@QEAA@PEBVPxRigidStatic@1@@Z 0000000180004c30 f   PxAutoGeneratedMetaDataObjects.obj
 0001:00003c80       ??0PxRigidStaticGeneratedInfo@physx@@QEAA@XZ 0000000180004c80 f   PxAutoGeneratedMetaDataObjects.obj
 0001:00003cd0       ??0PxArticulationLinkGeneratedValues@physx@@QEAA@PEBVPxArticulationLink@1@@Z 0000000180004cd0 f   PxAutoGeneratedMetaDataObjects.obj
 0001:00003d40       ??0PxArticulationLinkGeneratedInfo@physx@@QEAA@XZ 0000000180004d40 f   PxAutoGeneratedMetaDataObjects.obj
 0001:00003e30       ??0PxArticulationJointBaseGeneratedValues@physx@@QEAA@PEBVPxArticulationJointBase@1@@Z 0000000180004e30 f   PxAutoGeneratedMetaDataObjects.obj
 0001:00003e70       ??0PxArticulationJointBaseGeneratedInfo@physx@@QEAA@XZ 0000000180004e70 f   PxAutoGeneratedMetaDataObjects.obj
 0001:00003ed0       ??0PxArticulationJointGeneratedValues@physx@@QEAA@PEBVPxArticulationJoint@1@@Z 0000000180004ed0 f   PxAutoGeneratedMetaDataObjects.obj
 0001:00004030       ??0PxArticulationJointGeneratedInfo@physx@@QEAA@XZ 0000000180005030 f   PxAutoGeneratedMetaDataObjects.obj
 0001:000043e0       ??0PxArticulationBaseGeneratedValues@physx@@QEAA@PEBVPxArticulationBase@1@@Z 00000001800053e0 f   PxAutoGeneratedMetaDataObjects.obj
 0001:00004490       ??0PxArticulationBaseGeneratedInfo@physx@@QEAA@XZ 0000000180005490 f   PxAutoGeneratedMetaDataObjects.obj
 0001:00004690       ??0PxArticulationGeneratedValues@physx@@QEAA@PEBVPxArticulation@1@@Z 0000000180005690 f   PxAutoGeneratedMetaDataObjects.obj
 0001:00004700       ??0PxArticulationGeneratedInfo@physx@@QEAA@XZ 0000000180005700 f   PxAutoGeneratedMetaDataObjects.obj
 0001:000047f0       ??0PxAggregateGeneratedValues@physx@@QEAA@PEBVPxAggregate@1@@Z 00000001800057f0 f   PxAutoGeneratedMetaDataObjects.obj
 0001:00004840       ??0PxAggregateGeneratedInfo@physx@@QEAA@XZ 0000000180005840 f   PxAutoGeneratedMetaDataObjects.obj
 0001:000048d0       ??0PxConstraintGeneratedValues@physx@@QEAA@PEBVPxConstraint@1@@Z 00000001800058d0 f   PxAutoGeneratedMetaDataObjects.obj
 0001:00004960       ??0PxConstraintGeneratedInfo@physx@@QEAA@XZ 0000000180005960 f   PxAutoGeneratedMetaDataObjects.obj
 0001:00004ac0       ??0PxShapeGeneratedValues@physx@@QEAA@PEBVPxShape@1@@Z 0000000180005ac0 f   PxAutoGeneratedMetaDataObjects.obj
 0001:00004be0       ??0PxShapeGeneratedInfo@physx@@QEAA@XZ 0000000180005be0 f   PxAutoGeneratedMetaDataObjects.obj
 0001:00004ec0       ??0PxPruningStructureGeneratedValues@physx@@QEAA@PEBVPxPruningStructure@1@@Z 0000000180005ec0 f   PxAutoGeneratedMetaDataObjects.obj
 0001:00004ef0       ??0PxPruningStructureGeneratedInfo@physx@@QEAA@XZ 0000000180005ef0 f   PxAutoGeneratedMetaDataObjects.obj
 0001:00004f40       ??0PxTolerancesScaleGeneratedValues@physx@@QEAA@PEBVPxTolerancesScale@1@@Z 0000000180005f40 f   PxAutoGeneratedMetaDataObjects.obj
 0001:00004f60       ??0PxTolerancesScaleGeneratedInfo@physx@@QEAA@XZ 0000000180005f60 f   PxAutoGeneratedMetaDataObjects.obj
 0001:00004fe0       ??0PxGeometryGeneratedValues@physx@@QEAA@PEBVPxGeometry@1@@Z 0000000180005fe0 f   PxAutoGeneratedMetaDataObjects.obj
 0001:00004ff0       ??0PxGeometryGeneratedInfo@physx@@QEAA@XZ 0000000180005ff0 f   PxAutoGeneratedMetaDataObjects.obj
 0001:00005000       ??0PxBoxGeometryGeneratedValues@physx@@QEAA@PEBVPxBoxGeometry@1@@Z 0000000180006000 f   PxAutoGeneratedMetaDataObjects.obj
 0001:00005020       ??0PxBoxGeometryGeneratedInfo@physx@@QEAA@XZ 0000000180006020 f   PxAutoGeneratedMetaDataObjects.obj
 0001:00005060       ??0PxCapsuleGeometryGeneratedValues@physx@@QEAA@PEBVPxCapsuleGeometry@1@@Z 0000000180006060 f   PxAutoGeneratedMetaDataObjects.obj
 0001:00005080       ??0PxCapsuleGeometryGeneratedInfo@physx@@QEAA@XZ 0000000180006080 f   PxAutoGeneratedMetaDataObjects.obj
 0001:000050e0       ??0PxMeshScaleGeneratedValues@physx@@QEAA@PEBVPxMeshScale@1@@Z 00000001800060e0 f   PxAutoGeneratedMetaDataObjects.obj
 0001:00005120       ??0PxMeshScaleGeneratedInfo@physx@@QEAA@XZ 0000000180006120 f   PxAutoGeneratedMetaDataObjects.obj
 0001:00005180       ??0PxConvexMeshGeometryGeneratedValues@physx@@QEAA@PEBVPxConvexMeshGeometry@1@@Z 0000000180006180 f   PxAutoGeneratedMetaDataObjects.obj
 0001:000051d0       ??0PxConvexMeshGeometryGeneratedInfo@physx@@QEAA@XZ 00000001800061d0 f   PxAutoGeneratedMetaDataObjects.obj
 0001:00005260       ??0PxSphereGeometryGeneratedValues@physx@@QEAA@PEBVPxSphereGeometry@1@@Z 0000000180006260 f   PxAutoGeneratedMetaDataObjects.obj
 0001:00005270       ??0PxSphereGeometryGeneratedInfo@physx@@QEAA@XZ 0000000180006270 f   PxAutoGeneratedMetaDataObjects.obj
 0001:000052b0       ??0PxPlaneGeometryGeneratedValues@physx@@QEAA@PEBVPxPlaneGeometry@1@@Z 00000001800062b0 f   PxAutoGeneratedMetaDataObjects.obj
 0001:000052c0       ??0PxPlaneGeometryGeneratedInfo@physx@@QEAA@XZ 00000001800062c0 f   PxAutoGeneratedMetaDataObjects.obj
 0001:000052d0       ??0PxTriangleMeshGeometryGeneratedValues@physx@@QEAA@PEBVPxTriangleMeshGeometry@1@@Z 00000001800062d0 f   PxAutoGeneratedMetaDataObjects.obj
 0001:00005320       ??0PxTriangleMeshGeometryGeneratedInfo@physx@@QEAA@XZ 0000000180006320 f   PxAutoGeneratedMetaDataObjects.obj
 0001:000053b0       ??0PxHeightFieldGeometryGeneratedValues@physx@@QEAA@PEBVPxHeightFieldGeometry@1@@Z 00000001800063b0 f   PxAutoGeneratedMetaDataObjects.obj
 0001:000053e0       ??0PxHeightFieldGeometryGeneratedInfo@physx@@QEAA@XZ 00000001800063e0 f   PxAutoGeneratedMetaDataObjects.obj
 0001:000054c0       ??0PxHeightFieldDescGeneratedValues@physx@@QEAA@PEBVPxHeightFieldDesc@1@@Z 00000001800064c0 f   PxAutoGeneratedMetaDataObjects.obj
 0001:000054f0       ??0PxHeightFieldDescGeneratedInfo@physx@@QEAA@XZ 00000001800064f0 f   PxAutoGeneratedMetaDataObjects.obj
 0001:00005610       ??0PxArticulationJointReducedCoordinateGeneratedValues@physx@@QEAA@PEBVPxArticulationJointReducedCoordinate@1@@Z 0000000180006610 f   PxAutoGeneratedMetaDataObjects.obj
 0001:000056d0       ??0PxArticulationJointReducedCoordinateGeneratedInfo@physx@@QEAA@XZ 00000001800066d0 f   PxAutoGeneratedMetaDataObjects.obj
 0001:00005810       ??0PxSceneGeneratedValues@physx@@QEAA@PEBVPxScene@1@@Z 0000000180006810 f   PxAutoGeneratedMetaDataObjects.obj
 0001:00005b00       ??0PxSceneGeneratedInfo@physx@@QEAA@XZ 0000000180006b00 f   PxAutoGeneratedMetaDataObjects.obj
 0001:00006160       ??0PxSceneLimitsGeneratedValues@physx@@QEAA@PEBVPxSceneLimits@1@@Z 0000000180007160 f   PxAutoGeneratedMetaDataObjects.obj
 0001:000061a0       ??0PxSceneLimitsGeneratedInfo@physx@@QEAA@XZ 00000001800071a0 f   PxAutoGeneratedMetaDataObjects.obj
 0001:00006320       ??0PxgDynamicsMemoryConfigGeneratedValues@physx@@QEAA@PEBUPxgDynamicsMemoryConfig@1@@Z 0000000180007320 f   PxAutoGeneratedMetaDataObjects.obj
 0001:00006360       ??0PxgDynamicsMemoryConfigGeneratedInfo@physx@@QEAA@XZ 0000000180007360 f   PxAutoGeneratedMetaDataObjects.obj
 0001:000064e0       ??0PxSceneDescGeneratedValues@physx@@QEAA@PEBVPxSceneDesc@1@@Z 00000001800074e0 f   PxAutoGeneratedMetaDataObjects.obj
 0001:000066e0       ??0PxSceneDescGeneratedInfo@physx@@QEAA@XZ 00000001800076e0 f   PxAutoGeneratedMetaDataObjects.obj
 0001:00006ea0       ??0PxSimulationStatisticsGeneratedValues@physx@@QEAA@PEBVPxSimulationStatistics@1@@Z 0000000180007ea0 f   PxAutoGeneratedMetaDataObjects.obj
 0001:00007180       ??0PxSimulationStatisticsGeneratedInfo@physx@@QEAA@XZ 0000000180008180 f   PxAutoGeneratedMetaDataObjects.obj
 0001:000075f0       ?getPxPhysics_TolerancesScale@@YA?BVPxTolerancesScale@physx@@PEBVPxPhysics@2@@Z 00000001800085f0 f   PxAutoGeneratedMetaDataObjects.obj
 0001:00007620       ?getPxPhysics_TriangleMeshes@@YAIPEBVPxPhysics@physx@@PEAPEAVPxTriangleMesh@2@I@Z 0000000180008620 f   PxAutoGeneratedMetaDataObjects.obj
 0001:00007630       ?getNbPxPhysics_TriangleMeshes@@YAIPEBVPxPhysics@physx@@@Z 0000000180008630 f   PxAutoGeneratedMetaDataObjects.obj
 0001:00007640       ?createPxPhysics_TriangleMeshes@@YAPEAVPxTriangleMesh@physx@@PEAVPxPhysics@2@AEAVPxInputStream@2@@Z 0000000180008640 f   PxAutoGeneratedMetaDataObjects.obj
 0001:00007650       ?getPxPhysics_HeightFields@@YAIPEBVPxPhysics@physx@@PEAPEAVPxHeightField@2@I@Z 0000000180008650 f   PxAutoGeneratedMetaDataObjects.obj
 0001:00007660       ?getNbPxPhysics_HeightFields@@YAIPEBVPxPhysics@physx@@@Z 0000000180008660 f   PxAutoGeneratedMetaDataObjects.obj
 0001:00007670       ?createPxPhysics_HeightFields@@YAPEAVPxHeightField@physx@@PEAVPxPhysics@2@AEAVPxInputStream@2@@Z 0000000180008670 f   PxAutoGeneratedMetaDataObjects.obj
 0001:00007680       ?getPxPhysics_ConvexMeshes@@YAIPEBVPxPhysics@physx@@PEAPEAVPxConvexMesh@2@I@Z 0000000180008680 f   PxAutoGeneratedMetaDataObjects.obj
 0001:00007690       ?getNbPxPhysics_ConvexMeshes@@YAIPEBVPxPhysics@physx@@@Z 0000000180008690 f   PxAutoGeneratedMetaDataObjects.obj
 0001:000076a0       ?createPxPhysics_ConvexMeshes@@YAPEAVPxConvexMesh@physx@@PEAVPxPhysics@2@AEAVPxInputStream@2@@Z 00000001800086a0 f   PxAutoGeneratedMetaDataObjects.obj
 0001:000076b0       ?getPxPhysics_BVHStructures@@YAIPEBVPxPhysics@physx@@PEAPEAVPxBVHStructure@2@I@Z 00000001800086b0 f   PxAutoGeneratedMetaDataObjects.obj
 0001:000076d0       ?getNbPxPhysics_BVHStructures@@YAIPEBVPxPhysics@physx@@@Z 00000001800086d0 f   PxAutoGeneratedMetaDataObjects.obj
 0001:000076e0       ?createPxPhysics_BVHStructures@@YAPEAVPxBVHStructure@physx@@PEAVPxPhysics@2@AEAVPxInputStream@2@@Z 00000001800086e0 f   PxAutoGeneratedMetaDataObjects.obj
 0001:000076f0       ?getPxPhysics_Scenes@@YAIPEBVPxPhysics@physx@@PEAPEAVPxScene@2@I@Z 00000001800086f0 f   PxAutoGeneratedMetaDataObjects.obj
 0001:00007710       ?getNbPxPhysics_Scenes@@YAIPEBVPxPhysics@physx@@@Z 0000000180008710 f   PxAutoGeneratedMetaDataObjects.obj
 0001:00007720       ?createPxPhysics_Scenes@@YAPEAVPxScene@physx@@PEAVPxPhysics@2@AEBVPxSceneDesc@2@@Z 0000000180008720 f   PxAutoGeneratedMetaDataObjects.obj
 0001:00007730       ?getPxPhysics_Shapes@@YAIPEBVPxPhysics@physx@@PEAPEAVPxShape@2@I@Z 0000000180008730 f   PxAutoGeneratedMetaDataObjects.obj
 0001:00007750       ?getNbPxPhysics_Shapes@@YAIPEBVPxPhysics@physx@@@Z 0000000180008750 f   PxAutoGeneratedMetaDataObjects.obj
 0001:00007760       ?getPxPhysics_Materials@@YAIPEBVPxPhysics@physx@@PEAPEAVPxMaterial@2@I@Z 0000000180008760 f   PxAutoGeneratedMetaDataObjects.obj
 0001:00007780       ?getNbPxPhysics_Materials@@YAIPEBVPxPhysics@physx@@@Z 0000000180008780 f   PxAutoGeneratedMetaDataObjects.obj
 0001:00007790       ?getPxMaterial_ReferenceCount@@YAIPEBVPxMaterial@physx@@@Z 0000000180008790 f   PxAutoGeneratedMetaDataObjects.obj
 0001:000077a0       ?setPxMaterial_DynamicFriction@@YAXPEAVPxMaterial@physx@@M@Z 00000001800087a0 f   PxAutoGeneratedMetaDataObjects.obj
 0001:000077b0       ?getPxMaterial_DynamicFriction@@YAMPEBVPxMaterial@physx@@@Z 00000001800087b0 f   PxAutoGeneratedMetaDataObjects.obj
 0001:000077c0       ?setPxMaterial_StaticFriction@@YAXPEAVPxMaterial@physx@@M@Z 00000001800087c0 f   PxAutoGeneratedMetaDataObjects.obj
 0001:000077d0       ?getPxMaterial_StaticFriction@@YAMPEBVPxMaterial@physx@@@Z 00000001800087d0 f   PxAutoGeneratedMetaDataObjects.obj
 0001:000077e0       ?setPxMaterial_Restitution@@YAXPEAVPxMaterial@physx@@M@Z 00000001800087e0 f   PxAutoGeneratedMetaDataObjects.obj
 0001:000077f0       ?getPxMaterial_Restitution@@YAMPEBVPxMaterial@physx@@@Z 00000001800087f0 f   PxAutoGeneratedMetaDataObjects.obj
 0001:00007800       ?setPxMaterial_Flags@@YAXPEAVPxMaterial@physx@@V?$PxFlags@W4Enum@PxMaterialFlag@physx@@G@2@@Z 0000000180008800 f   PxAutoGeneratedMetaDataObjects.obj
 0001:00007830       ?getPxMaterial_Flags@@YA?AV?$PxFlags@W4Enum@PxMaterialFlag@physx@@G@physx@@PEBVPxMaterial@2@@Z 0000000180008830 f   PxAutoGeneratedMetaDataObjects.obj
 0001:00007860       ?setPxMaterial_FrictionCombineMode@@YAXPEAVPxMaterial@physx@@W4Enum@PxCombineMode@2@@Z 0000000180008860 f   PxAutoGeneratedMetaDataObjects.obj
 0001:00007870       ?getPxMaterial_FrictionCombineMode@@YA?AW4Enum@PxCombineMode@physx@@PEBVPxMaterial@3@@Z 0000000180008870 f   PxAutoGeneratedMetaDataObjects.obj
 0001:00007880       ?setPxMaterial_RestitutionCombineMode@@YAXPEAVPxMaterial@physx@@W4Enum@PxCombineMode@2@@Z 0000000180008880 f   PxAutoGeneratedMetaDataObjects.obj
 0001:00007890       ?getPxMaterial_RestitutionCombineMode@@YA?AW4Enum@PxCombineMode@physx@@PEBVPxMaterial@3@@Z 0000000180008890 f   PxAutoGeneratedMetaDataObjects.obj
 0001:000078a0       ?getPxMaterial_ConcreteTypeName@@YAPEBDPEBVPxMaterial@physx@@@Z 00000001800088a0 f   PxAutoGeneratedMetaDataObjects.obj
 0001:000078b0       ?getPxActor_Scene@@YAPEAVPxScene@physx@@PEBVPxActor@2@@Z 00000001800088b0 f   PxAutoGeneratedMetaDataObjects.obj
 0001:000078c0       ?setPxActor_Name@@YAXPEAVPxActor@physx@@PEBD@Z 00000001800088c0 f   PxAutoGeneratedMetaDataObjects.obj
 0001:000078d0       ?getPxActor_Name@@YAPEBDPEBVPxActor@physx@@@Z 00000001800088d0 f   PxAutoGeneratedMetaDataObjects.obj
 0001:000078e0       ?setPxActor_ActorFlags@@YAXPEAVPxActor@physx@@V?$PxFlags@W4Enum@PxActorFlag@physx@@E@2@@Z 00000001800088e0 f   PxAutoGeneratedMetaDataObjects.obj
 0001:00007910       ?getPxActor_ActorFlags@@YA?AV?$PxFlags@W4Enum@PxActorFlag@physx@@E@physx@@PEBVPxActor@2@@Z 0000000180008910 f   PxAutoGeneratedMetaDataObjects.obj
 0001:00007940       ?setPxActor_DominanceGroup@@YAXPEAVPxActor@physx@@E@Z 0000000180008940 f   PxAutoGeneratedMetaDataObjects.obj
 0001:00007950       ?getPxActor_DominanceGroup@@YAEPEBVPxActor@physx@@@Z 0000000180008950 f   PxAutoGeneratedMetaDataObjects.obj
 0001:00007960       ?setPxActor_OwnerClient@@YAXPEAVPxActor@physx@@E@Z 0000000180008960 f   PxAutoGeneratedMetaDataObjects.obj
 0001:00007970       ?getPxActor_OwnerClient@@YAEPEBVPxActor@physx@@@Z 0000000180008970 f   PxAutoGeneratedMetaDataObjects.obj
 0001:00007980       ?getPxActor_Aggregate@@YAPEAVPxAggregate@physx@@PEBVPxActor@2@@Z 0000000180008980 f   PxAutoGeneratedMetaDataObjects.obj
 0001:00007990       ?setPxRigidActor_GlobalPose@@YAXPEAVPxRigidActor@physx@@AEBVPxTransform@2@@Z 0000000180008990 f   PxAutoGeneratedMetaDataObjects.obj
 0001:000079b0       ?getPxRigidActor_GlobalPose@@YA?AVPxTransform@physx@@PEBVPxRigidActor@2@@Z 00000001800089b0 f   PxAutoGeneratedMetaDataObjects.obj
 0001:000079e0       ?getPxRigidActor_Shapes@@YAIPEBVPxRigidActor@physx@@PEAPEAVPxShape@2@I@Z 00000001800089e0 f   PxAutoGeneratedMetaDataObjects.obj
 0001:00007a00       ?getNbPxRigidActor_Shapes@@YAIPEBVPxRigidActor@physx@@@Z 0000000180008a00 f   PxAutoGeneratedMetaDataObjects.obj
 0001:00007a10       ?getPxRigidActor_Constraints@@YAIPEBVPxRigidActor@physx@@PEAPEAVPxConstraint@2@I@Z 0000000180008a10 f   PxAutoGeneratedMetaDataObjects.obj
 0001:00007a30       ?getNbPxRigidActor_Constraints@@YAIPEBVPxRigidActor@physx@@@Z 0000000180008a30 f   PxAutoGeneratedMetaDataObjects.obj
 0001:00007a40       ?setPxRigidBody_CMassLocalPose@@YAXPEAVPxRigidBody@physx@@AEBVPxTransform@2@@Z 0000000180008a40 f   PxAutoGeneratedMetaDataObjects.obj
 0001:00007a50       ?getPxRigidBody_CMassLocalPose@@YA?AVPxTransform@physx@@PEBVPxRigidBody@2@@Z 0000000180008a50 f   PxAutoGeneratedMetaDataObjects.obj
 0001:00007a80       ?setPxRigidBody_Mass@@YAXPEAVPxRigidBody@physx@@M@Z 0000000180008a80 f   PxAutoGeneratedMetaDataObjects.obj
 0001:00007a90       ?getPxRigidBody_Mass@@YAMPEBVPxRigidBody@physx@@@Z 0000000180008a90 f   PxAutoGeneratedMetaDataObjects.obj
 0001:00007aa0       ?getPxRigidBody_InvMass@@YAMPEBVPxRigidBody@physx@@@Z 0000000180008aa0 f   PxAutoGeneratedMetaDataObjects.obj
 0001:00007ab0       ?setPxRigidBody_MassSpaceInertiaTensor@@YAXPEAVPxRigidBody@physx@@AEBVPxVec3@2@@Z 0000000180008ab0 f   PxAutoGeneratedMetaDataObjects.obj
 0001:00007ac0       ?getPxRigidBody_MassSpaceInertiaTensor@@YA?AVPxVec3@physx@@PEBVPxRigidBody@2@@Z 0000000180008ac0 f   PxAutoGeneratedMetaDataObjects.obj
 0001:00007af0       ?getPxRigidBody_MassSpaceInvInertiaTensor@@YA?AVPxVec3@physx@@PEBVPxRigidBody@2@@Z 0000000180008af0 f   PxAutoGeneratedMetaDataObjects.obj
 0001:00007b20       ?setPxRigidBody_LinearDamping@@YAXPEAVPxRigidBody@physx@@M@Z 0000000180008b20 f   PxAutoGeneratedMetaDataObjects.obj
 0001:00007b30       ?getPxRigidBody_LinearDamping@@YAMPEBVPxRigidBody@physx@@@Z 0000000180008b30 f   PxAutoGeneratedMetaDataObjects.obj
 0001:00007b40       ?setPxRigidBody_AngularDamping@@YAXPEAVPxRigidBody@physx@@M@Z 0000000180008b40 f   PxAutoGeneratedMetaDataObjects.obj
 0001:00007b50       ?getPxRigidBody_AngularDamping@@YAMPEBVPxRigidBody@physx@@@Z 0000000180008b50 f   PxAutoGeneratedMetaDataObjects.obj
 0001:00007b60       ?setPxRigidBody_LinearVelocity@@YAXPEAVPxRigidBody@physx@@AEBVPxVec3@2@@Z 0000000180008b60 f   PxAutoGeneratedMetaDataObjects.obj
 0001:00007b80       ?getPxRigidBody_LinearVelocity@@YA?AVPxVec3@physx@@PEBVPxRigidBody@2@@Z 0000000180008b80 f   PxAutoGeneratedMetaDataObjects.obj
 0001:00007bb0       ?setPxRigidBody_AngularVelocity@@YAXPEAVPxRigidBody@physx@@AEBVPxVec3@2@@Z 0000000180008bb0 f   PxAutoGeneratedMetaDataObjects.obj
 0001:00007bd0       ?getPxRigidBody_AngularVelocity@@YA?AVPxVec3@physx@@PEBVPxRigidBody@2@@Z 0000000180008bd0 f   PxAutoGeneratedMetaDataObjects.obj
 0001:00007c00       ?setPxRigidBody_MaxAngularVelocity@@YAXPEAVPxRigidBody@physx@@M@Z 0000000180008c00 f   PxAutoGeneratedMetaDataObjects.obj
 0001:00007c10       ?getPxRigidBody_MaxAngularVelocity@@YAMPEBVPxRigidBody@physx@@@Z 0000000180008c10 f   PxAutoGeneratedMetaDataObjects.obj
 0001:00007c20       ?setPxRigidBody_MaxLinearVelocity@@YAXPEAVPxRigidBody@physx@@M@Z 0000000180008c20 f   PxAutoGeneratedMetaDataObjects.obj
 0001:00007c30       ?getPxRigidBody_MaxLinearVelocity@@YAMPEBVPxRigidBody@physx@@@Z 0000000180008c30 f   PxAutoGeneratedMetaDataObjects.obj
 0001:00007c40       ?setPxRigidBody_RigidBodyFlags@@YAXPEAVPxRigidBody@physx@@V?$PxFlags@W4Enum@PxRigidBodyFlag@physx@@E@2@@Z 0000000180008c40 f   PxAutoGeneratedMetaDataObjects.obj
 0001:00007c70       ?getPxRigidBody_RigidBodyFlags@@YA?AV?$PxFlags@W4Enum@PxRigidBodyFlag@physx@@E@physx@@PEBVPxRigidBody@2@@Z 0000000180008c70 f   PxAutoGeneratedMetaDataObjects.obj
 0001:00007ca0       ?setPxRigidBody_MinCCDAdvanceCoefficient@@YAXPEAVPxRigidBody@physx@@M@Z 0000000180008ca0 f   PxAutoGeneratedMetaDataObjects.obj
 0001:00007cb0       ?getPxRigidBody_MinCCDAdvanceCoefficient@@YAMPEBVPxRigidBody@physx@@@Z 0000000180008cb0 f   PxAutoGeneratedMetaDataObjects.obj
 0001:00007cc0       ?setPxRigidBody_MaxDepenetrationVelocity@@YAXPEAVPxRigidBody@physx@@M@Z 0000000180008cc0 f   PxAutoGeneratedMetaDataObjects.obj
 0001:00007cd0       ?getPxRigidBody_MaxDepenetrationVelocity@@YAMPEBVPxRigidBody@physx@@@Z 0000000180008cd0 f   PxAutoGeneratedMetaDataObjects.obj
 0001:00007ce0       ?setPxRigidBody_MaxContactImpulse@@YAXPEAVPxRigidBody@physx@@M@Z 0000000180008ce0 f   PxAutoGeneratedMetaDataObjects.obj
 0001:00007cf0       ?getPxRigidBody_MaxContactImpulse@@YAMPEBVPxRigidBody@physx@@@Z 0000000180008cf0 f   PxAutoGeneratedMetaDataObjects.obj
 0001:00007d00       ?getPxRigidDynamic_IsSleeping@@YA_NPEBVPxRigidDynamic@physx@@@Z 0000000180008d00 f   PxAutoGeneratedMetaDataObjects.obj
 0001:00007d10       ?setPxRigidDynamic_SleepThreshold@@YAXPEAVPxRigidDynamic@physx@@M@Z 0000000180008d10 f   PxAutoGeneratedMetaDataObjects.obj
 0001:00007d20       ?getPxRigidDynamic_SleepThreshold@@YAMPEBVPxRigidDynamic@physx@@@Z 0000000180008d20 f   PxAutoGeneratedMetaDataObjects.obj
 0001:00007d30       ?setPxRigidDynamic_StabilizationThreshold@@YAXPEAVPxRigidDynamic@physx@@M@Z 0000000180008d30 f   PxAutoGeneratedMetaDataObjects.obj
 0001:00007d40       ?getPxRigidDynamic_StabilizationThreshold@@YAMPEBVPxRigidDynamic@physx@@@Z 0000000180008d40 f   PxAutoGeneratedMetaDataObjects.obj
 0001:00007d50       ?setPxRigidDynamic_RigidDynamicLockFlags@@YAXPEAVPxRigidDynamic@physx@@V?$PxFlags@W4Enum@PxRigidDynamicLockFlag@physx@@G@2@@Z 0000000180008d50 f   PxAutoGeneratedMetaDataObjects.obj
 0001:00007d80       ?getPxRigidDynamic_RigidDynamicLockFlags@@YA?AV?$PxFlags@W4Enum@PxRigidDynamicLockFlag@physx@@G@physx@@PEBVPxRigidDynamic@2@@Z 0000000180008d80 f   PxAutoGeneratedMetaDataObjects.obj
 0001:00007db0       ?setPxRigidDynamic_WakeCounter@@YAXPEAVPxRigidDynamic@physx@@M@Z 0000000180008db0 f   PxAutoGeneratedMetaDataObjects.obj
 0001:00007dc0       ?getPxRigidDynamic_WakeCounter@@YAMPEBVPxRigidDynamic@physx@@@Z 0000000180008dc0 f   PxAutoGeneratedMetaDataObjects.obj
 0001:00007dd0       ?setPxRigidDynamic_SolverIterationCounts@@YAXPEAVPxRigidDynamic@physx@@II@Z 0000000180008dd0 f   PxAutoGeneratedMetaDataObjects.obj
 0001:00007de0       ?getPxRigidDynamic_SolverIterationCounts@@YAXPEBVPxRigidDynamic@physx@@AEAI1@Z 0000000180008de0 f   PxAutoGeneratedMetaDataObjects.obj
 0001:00007df0       ?setPxRigidDynamic_ContactReportThreshold@@YAXPEAVPxRigidDynamic@physx@@M@Z 0000000180008df0 f   PxAutoGeneratedMetaDataObjects.obj
 0001:00007e00       ?getPxRigidDynamic_ContactReportThreshold@@YAMPEBVPxRigidDynamic@physx@@@Z 0000000180008e00 f   PxAutoGeneratedMetaDataObjects.obj
 0001:00007e10       ?getPxRigidDynamic_ConcreteTypeName@@YAPEBDPEBVPxRigidDynamic@physx@@@Z 0000000180008e10 f   PxAutoGeneratedMetaDataObjects.obj
 0001:00007e20       ?getPxRigidStatic_ConcreteTypeName@@YAPEBDPEBVPxRigidStatic@physx@@@Z 0000000180008e20 f   PxAutoGeneratedMetaDataObjects.obj
 0001:00007e30       ?getPxArticulationLink_InboundJoint@@YAPEAVPxArticulationJointBase@physx@@PEBVPxArticulationLink@2@@Z 0000000180008e30 f   PxAutoGeneratedMetaDataObjects.obj
 0001:00007e40       ?getPxArticulationLink_InboundJointDof@@YAIPEBVPxArticulationLink@physx@@@Z 0000000180008e40 f   PxAutoGeneratedMetaDataObjects.obj
 0001:00007e50       ?getPxArticulationLink_LinkIndex@@YAIPEBVPxArticulationLink@physx@@@Z 0000000180008e50 f   PxAutoGeneratedMetaDataObjects.obj
 0001:00007e60       ?getPxArticulationLink_Children@@YAIPEBVPxArticulationLink@physx@@PEAPEAV12@I@Z 0000000180008e60 f   PxAutoGeneratedMetaDataObjects.obj
 0001:00007e80       ?getNbPxArticulationLink_Children@@YAIPEBVPxArticulationLink@physx@@@Z 0000000180008e80 f   PxAutoGeneratedMetaDataObjects.obj
 0001:00007e90       ?getPxArticulationLink_ConcreteTypeName@@YAPEBDPEBVPxArticulationLink@physx@@@Z 0000000180008e90 f   PxAutoGeneratedMetaDataObjects.obj
 0001:00007ea0       ?setPxArticulationJointBase_ParentPose@@YAXPEAVPxArticulationJointBase@physx@@AEBVPxTransform@2@@Z 0000000180008ea0 f   PxAutoGeneratedMetaDataObjects.obj
 0001:00007eb0       ?getPxArticulationJointBase_ParentPose@@YA?AVPxTransform@physx@@PEBVPxArticulationJointBase@2@@Z 0000000180008eb0 f   PxAutoGeneratedMetaDataObjects.obj
 0001:00007ee0       ?setPxArticulationJointBase_ChildPose@@YAXPEAVPxArticulationJointBase@physx@@AEBVPxTransform@2@@Z 0000000180008ee0 f   PxAutoGeneratedMetaDataObjects.obj
 0001:00007ef0       ?getPxArticulationJointBase_ChildPose@@YA?AVPxTransform@physx@@PEBVPxArticulationJointBase@2@@Z 0000000180008ef0 f   PxAutoGeneratedMetaDataObjects.obj
 0001:00007f20       ?setPxArticulationJoint_TargetOrientation@@YAXPEAVPxArticulationJoint@physx@@AEBVPxQuat@2@@Z 0000000180008f20 f   PxAutoGeneratedMetaDataObjects.obj
 0001:00007f30       ?getPxArticulationJoint_TargetOrientation@@YA?AVPxQuat@physx@@PEBVPxArticulationJoint@2@@Z 0000000180008f30 f   PxAutoGeneratedMetaDataObjects.obj
 0001:00007f60       ?setPxArticulationJoint_TargetVelocity@@YAXPEAVPxArticulationJoint@physx@@AEBVPxVec3@2@@Z 0000000180008f60 f   PxAutoGeneratedMetaDataObjects.obj
 0001:00007f70       ?getPxArticulationJoint_TargetVelocity@@YA?AVPxVec3@physx@@PEBVPxArticulationJoint@2@@Z 0000000180008f70 f   PxAutoGeneratedMetaDataObjects.obj
 0001:00007fa0       ?setPxArticulationJoint_DriveType@@YAXPEAVPxArticulationJoint@physx@@W4Enum@PxArticulationJointDriveType@2@@Z 0000000180008fa0 f   PxAutoGeneratedMetaDataObjects.obj
 0001:00007fb0       ?getPxArticulationJoint_DriveType@@YA?AW4Enum@PxArticulationJointDriveType@physx@@PEBVPxArticulationJoint@3@@Z 0000000180008fb0 f   PxAutoGeneratedMetaDataObjects.obj
 0001:00007fc0       ?setPxArticulationJoint_Stiffness@@YAXPEAVPxArticulationJoint@physx@@M@Z 0000000180008fc0 f   PxAutoGeneratedMetaDataObjects.obj
 0001:00007fd0       ?getPxArticulationJoint_Stiffness@@YAMPEBVPxArticulationJoint@physx@@@Z 0000000180008fd0 f   PxAutoGeneratedMetaDataObjects.obj
 0001:00007fe0       ?setPxArticulationJoint_Damping@@YAXPEAVPxArticulationJoint@physx@@M@Z 0000000180008fe0 f   PxAutoGeneratedMetaDataObjects.obj
 0001:00007ff0       ?getPxArticulationJoint_Damping@@YAMPEBVPxArticulationJoint@physx@@@Z 0000000180008ff0 f   PxAutoGeneratedMetaDataObjects.obj
 0001:00008000       ?setPxArticulationJoint_InternalCompliance@@YAXPEAVPxArticulationJoint@physx@@M@Z 0000000180009000 f   PxAutoGeneratedMetaDataObjects.obj
 0001:00008010       ?getPxArticulationJoint_InternalCompliance@@YAMPEBVPxArticulationJoint@physx@@@Z 0000000180009010 f   PxAutoGeneratedMetaDataObjects.obj
 0001:00008020       ?setPxArticulationJoint_ExternalCompliance@@YAXPEAVPxArticulationJoint@physx@@M@Z 0000000180009020 f   PxAutoGeneratedMetaDataObjects.obj
 0001:00008030       ?getPxArticulationJoint_ExternalCompliance@@YAMPEBVPxArticulationJoint@physx@@@Z 0000000180009030 f   PxAutoGeneratedMetaDataObjects.obj
 0001:00008040       ?setPxArticulationJoint_SwingLimit@@YAXPEAVPxArticulationJoint@physx@@MM@Z 0000000180009040 f   PxAutoGeneratedMetaDataObjects.obj
 0001:00008050       ?getPxArticulationJoint_SwingLimit@@YAXPEBVPxArticulationJoint@physx@@AEAM1@Z 0000000180009050 f   PxAutoGeneratedMetaDataObjects.obj
 0001:00008060       ?setPxArticulationJoint_TangentialStiffness@@YAXPEAVPxArticulationJoint@physx@@M@Z 0000000180009060 f   PxAutoGeneratedMetaDataObjects.obj
 0001:00008070       ?getPxArticulationJoint_TangentialStiffness@@YAMPEBVPxArticulationJoint@physx@@@Z 0000000180009070 f   PxAutoGeneratedMetaDataObjects.obj
 0001:00008080       ?setPxArticulationJoint_TangentialDamping@@YAXPEAVPxArticulationJoint@physx@@M@Z 0000000180009080 f   PxAutoGeneratedMetaDataObjects.obj
 0001:00008090       ?getPxArticulationJoint_TangentialDamping@@YAMPEBVPxArticulationJoint@physx@@@Z 0000000180009090 f   PxAutoGeneratedMetaDataObjects.obj
 0001:000080a0       ?setPxArticulationJoint_SwingLimitContactDistance@@YAXPEAVPxArticulationJoint@physx@@M@Z 00000001800090a0 f   PxAutoGeneratedMetaDataObjects.obj
 0001:000080b0       ?getPxArticulationJoint_SwingLimitContactDistance@@YAMPEBVPxArticulationJoint@physx@@@Z 00000001800090b0 f   PxAutoGeneratedMetaDataObjects.obj
 0001:000080c0       ?setPxArticulationJoint_SwingLimitEnabled@@YAXPEAVPxArticulationJoint@physx@@_N@Z 00000001800090c0 f   PxAutoGeneratedMetaDataObjects.obj
 0001:000080d0       ?getPxArticulationJoint_SwingLimitEnabled@@YA_NPEBVPxArticulationJoint@physx@@@Z 00000001800090d0 f   PxAutoGeneratedMetaDataObjects.obj
 0001:000080e0       ?setPxArticulationJoint_TwistLimit@@YAXPEAVPxArticulationJoint@physx@@MM@Z 00000001800090e0 f   PxAutoGeneratedMetaDataObjects.obj
 0001:000080f0       ?getPxArticulationJoint_TwistLimit@@YAXPEBVPxArticulationJoint@physx@@AEAM1@Z 00000001800090f0 f   PxAutoGeneratedMetaDataObjects.obj
 0001:00008100       ?setPxArticulationJoint_TwistLimitEnabled@@YAXPEAVPxArticulationJoint@physx@@_N@Z 0000000180009100 f   PxAutoGeneratedMetaDataObjects.obj
 0001:00008110       ?getPxArticulationJoint_TwistLimitEnabled@@YA_NPEBVPxArticulationJoint@physx@@@Z 0000000180009110 f   PxAutoGeneratedMetaDataObjects.obj
 0001:00008120       ?setPxArticulationJoint_TwistLimitContactDistance@@YAXPEAVPxArticulationJoint@physx@@M@Z 0000000180009120 f   PxAutoGeneratedMetaDataObjects.obj
 0001:00008130       ?getPxArticulationJoint_TwistLimitContactDistance@@YAMPEBVPxArticulationJoint@physx@@@Z 0000000180009130 f   PxAutoGeneratedMetaDataObjects.obj
 0001:00008140       ?getPxArticulationJoint_ConcreteTypeName@@YAPEBDPEBVPxArticulationJoint@physx@@@Z 0000000180009140 f   PxAutoGeneratedMetaDataObjects.obj
 0001:00008150       ?getPxArticulationBase_Scene@@YAPEAVPxScene@physx@@PEBVPxArticulationBase@2@@Z 0000000180009150 f   PxAutoGeneratedMetaDataObjects.obj
 0001:00008160       ?setPxArticulationBase_SolverIterationCounts@@YAXPEAVPxArticulationBase@physx@@II@Z 0000000180009160 f   PxAutoGeneratedMetaDataObjects.obj
 0001:00008170       ?getPxArticulationBase_SolverIterationCounts@@YAXPEBVPxArticulationBase@physx@@AEAI1@Z 0000000180009170 f   PxAutoGeneratedMetaDataObjects.obj
 0001:00008180       ?getPxArticulationBase_IsSleeping@@YA_NPEBVPxArticulationBase@physx@@@Z 0000000180009180 f   PxAutoGeneratedMetaDataObjects.obj
 0001:00008190       ?setPxArticulationBase_SleepThreshold@@YAXPEAVPxArticulationBase@physx@@M@Z 0000000180009190 f   PxAutoGeneratedMetaDataObjects.obj
 0001:000081a0       ?getPxArticulationBase_SleepThreshold@@YAMPEBVPxArticulationBase@physx@@@Z 00000001800091a0 f   PxAutoGeneratedMetaDataObjects.obj
 0001:000081b0       ?setPxArticulationBase_StabilizationThreshold@@YAXPEAVPxArticulationBase@physx@@M@Z 00000001800091b0 f   PxAutoGeneratedMetaDataObjects.obj
 0001:000081c0       ?getPxArticulationBase_StabilizationThreshold@@YAMPEBVPxArticulationBase@physx@@@Z 00000001800091c0 f   PxAutoGeneratedMetaDataObjects.obj
 0001:000081d0       ?setPxArticulationBase_WakeCounter@@YAXPEAVPxArticulationBase@physx@@M@Z 00000001800091d0 f   PxAutoGeneratedMetaDataObjects.obj
 0001:000081e0       ?getPxArticulationBase_WakeCounter@@YAMPEBVPxArticulationBase@physx@@@Z 00000001800091e0 f   PxAutoGeneratedMetaDataObjects.obj
 0001:000081f0       ?getPxArticulationBase_Links@@YAIPEBVPxArticulationBase@physx@@PEAPEAVPxArticulationLink@2@I@Z 00000001800091f0 f   PxAutoGeneratedMetaDataObjects.obj
 0001:00008210       ?getNbPxArticulationBase_Links@@YAIPEBVPxArticulationBase@physx@@@Z 0000000180009210 f   PxAutoGeneratedMetaDataObjects.obj
 0001:00008220       ?setPxArticulationBase_Name@@YAXPEAVPxArticulationBase@physx@@PEBD@Z 0000000180009220 f   PxAutoGeneratedMetaDataObjects.obj
 0001:00008230       ?getPxArticulationBase_Name@@YAPEBDPEBVPxArticulationBase@physx@@@Z 0000000180009230 f   PxAutoGeneratedMetaDataObjects.obj
 0001:00008240       ?getPxArticulationBase_Aggregate@@YAPEAVPxAggregate@physx@@PEBVPxArticulationBase@2@@Z 0000000180009240 f   PxAutoGeneratedMetaDataObjects.obj
 0001:00008250       ?getPxArticulationBase_Type@@YA?AW4Enum@PxArticulationBase@physx@@PEBV23@@Z 0000000180009250 f   PxAutoGeneratedMetaDataObjects.obj
 0001:00008260       ?setPxArticulation_MaxProjectionIterations@@YAXPEAVPxArticulation@physx@@I@Z 0000000180009260 f   PxAutoGeneratedMetaDataObjects.obj
 0001:00008270       ?getPxArticulation_MaxProjectionIterations@@YAIPEBVPxArticulation@physx@@@Z 0000000180009270 f   PxAutoGeneratedMetaDataObjects.obj
 0001:00008280       ?setPxArticulation_SeparationTolerance@@YAXPEAVPxArticulation@physx@@M@Z 0000000180009280 f   PxAutoGeneratedMetaDataObjects.obj
 0001:00008290       ?getPxArticulation_SeparationTolerance@@YAMPEBVPxArticulation@physx@@@Z 0000000180009290 f   PxAutoGeneratedMetaDataObjects.obj
 0001:000082a0       ?setPxArticulation_InternalDriveIterations@@YAXPEAVPxArticulation@physx@@I@Z 00000001800092a0 f   PxAutoGeneratedMetaDataObjects.obj
 0001:000082b0       ?getPxArticulation_InternalDriveIterations@@YAIPEBVPxArticulation@physx@@@Z 00000001800092b0 f   PxAutoGeneratedMetaDataObjects.obj
 0001:000082c0       ?setPxArticulation_ExternalDriveIterations@@YAXPEAVPxArticulation@physx@@I@Z 00000001800092c0 f   PxAutoGeneratedMetaDataObjects.obj
 0001:000082d0       ?getPxArticulation_ExternalDriveIterations@@YAIPEBVPxArticulation@physx@@@Z 00000001800092d0 f   PxAutoGeneratedMetaDataObjects.obj
 0001:000082e0       ?getPxAggregate_MaxNbActors@@YAIPEBVPxAggregate@physx@@@Z 00000001800092e0 f   PxAutoGeneratedMetaDataObjects.obj
 0001:000082f0       ?getPxAggregate_Actors@@YAIPEBVPxAggregate@physx@@PEAPEAVPxActor@2@I@Z 00000001800092f0 f   PxAutoGeneratedMetaDataObjects.obj
 0001:00008300       ?getNbPxAggregate_Actors@@YAIPEBVPxAggregate@physx@@@Z 0000000180009300 f   PxAutoGeneratedMetaDataObjects.obj
 0001:00008310       ?getPxAggregate_SelfCollision@@YA_NPEBVPxAggregate@physx@@@Z 0000000180009310 f   PxAutoGeneratedMetaDataObjects.obj
 0001:00008320       ?getPxAggregate_ConcreteTypeName@@YAPEBDPEBVPxAggregate@physx@@@Z 0000000180009320 f   PxAutoGeneratedMetaDataObjects.obj
 0001:00008330       ?getPxConstraint_Scene@@YAPEAVPxScene@physx@@PEBVPxConstraint@2@@Z 0000000180009330 f   PxAutoGeneratedMetaDataObjects.obj
 0001:00008340       ?setPxConstraint_Actors@@YAXPEAVPxConstraint@physx@@PEAVPxRigidActor@2@1@Z 0000000180009340 f   PxAutoGeneratedMetaDataObjects.obj
 0001:00008350       ?getPxConstraint_Actors@@YAXPEBVPxConstraint@physx@@AEAPEAVPxRigidActor@2@1@Z 0000000180009350 f   PxAutoGeneratedMetaDataObjects.obj
 0001:00008360       ?setPxConstraint_Flags@@YAXPEAVPxConstraint@physx@@V?$PxFlags@W4Enum@PxConstraintFlag@physx@@G@2@@Z 0000000180009360 f   PxAutoGeneratedMetaDataObjects.obj
 0001:00008390       ?getPxConstraint_Flags@@YA?AV?$PxFlags@W4Enum@PxConstraintFlag@physx@@G@physx@@PEBVPxConstraint@2@@Z 0000000180009390 f   PxAutoGeneratedMetaDataObjects.obj
 0001:000083c0       ?getPxConstraint_IsValid@@YA_NPEBVPxConstraint@physx@@@Z 00000001800093c0 f   PxAutoGeneratedMetaDataObjects.obj
 0001:000083d0       ?setPxConstraint_BreakForce@@YAXPEAVPxConstraint@physx@@MM@Z 00000001800093d0 f   PxAutoGeneratedMetaDataObjects.obj
 0001:000083e0       ?getPxConstraint_BreakForce@@YAXPEBVPxConstraint@physx@@AEAM1@Z 00000001800093e0 f   PxAutoGeneratedMetaDataObjects.obj
 0001:000083f0       ?setPxConstraint_MinResponseThreshold@@YAXPEAVPxConstraint@physx@@M@Z 00000001800093f0 f   PxAutoGeneratedMetaDataObjects.obj
 0001:00008400       ?getPxConstraint_MinResponseThreshold@@YAMPEBVPxConstraint@physx@@@Z 0000000180009400 f   PxAutoGeneratedMetaDataObjects.obj
 0001:00008410       ?getPxConstraint_ConcreteTypeName@@YAPEBDPEBVPxConstraint@physx@@@Z 0000000180009410 f   PxAutoGeneratedMetaDataObjects.obj
 0001:00008420       ?getPxShape_ReferenceCount@@YAIPEBVPxShape@physx@@@Z 0000000180009420 f   PxAutoGeneratedMetaDataObjects.obj
 0001:00008430       ?getPxShape_GeometryType@@YA?AW4Enum@PxGeometryType@physx@@PEBVPxShape@3@@Z 0000000180009430 f   PxAutoGeneratedMetaDataObjects.obj
 0001:00008440       ?setPxShape_Geometry@@YAXPEAVPxShape@physx@@AEBVPxGeometry@2@@Z 0000000180009440 f   PxAutoGeneratedMetaDataObjects.obj
 0001:00008450       ?getPxShape_Geometry@@YA?AVPxGeometryHolder@physx@@PEBVPxShape@2@@Z 0000000180009450 f   PxAutoGeneratedMetaDataObjects.obj
 0001:00008480       ?setPxShape_LocalPose@@YAXPEAVPxShape@physx@@AEBVPxTransform@2@@Z 0000000180009480 f   PxAutoGeneratedMetaDataObjects.obj
 0001:00008490       ?getPxShape_LocalPose@@YA?AVPxTransform@physx@@PEBVPxShape@2@@Z 0000000180009490 f   PxAutoGeneratedMetaDataObjects.obj
 0001:000084c0       ?setPxShape_SimulationFilterData@@YAXPEAVPxShape@physx@@AEBUPxFilterData@2@@Z 00000001800094c0 f   PxAutoGeneratedMetaDataObjects.obj
 0001:000084d0       ?getPxShape_SimulationFilterData@@YA?AUPxFilterData@physx@@PEBVPxShape@2@@Z 00000001800094d0 f   PxAutoGeneratedMetaDataObjects.obj
 0001:00008500       ?setPxShape_QueryFilterData@@YAXPEAVPxShape@physx@@AEBUPxFilterData@2@@Z 0000000180009500 f   PxAutoGeneratedMetaDataObjects.obj
 0001:00008510       ?getPxShape_QueryFilterData@@YA?AUPxFilterData@physx@@PEBVPxShape@2@@Z 0000000180009510 f   PxAutoGeneratedMetaDataObjects.obj
 0001:00008540       ?getPxShape_Materials@@YAIPEBVPxShape@physx@@PEAPEAVPxMaterial@2@I@Z 0000000180009540 f   PxAutoGeneratedMetaDataObjects.obj
 0001:00008560       ?getNbPxShape_Materials@@YAIPEBVPxShape@physx@@@Z 0000000180009560 f   PxAutoGeneratedMetaDataObjects.obj
 0001:00008580       ?setPxShape_ContactOffset@@YAXPEAVPxShape@physx@@M@Z 0000000180009580 f   PxAutoGeneratedMetaDataObjects.obj
 0001:00008590       ?getPxShape_ContactOffset@@YAMPEBVPxShape@physx@@@Z 0000000180009590 f   PxAutoGeneratedMetaDataObjects.obj
 0001:000085a0       ?setPxShape_RestOffset@@YAXPEAVPxShape@physx@@M@Z 00000001800095a0 f   PxAutoGeneratedMetaDataObjects.obj
 0001:000085b0       ?getPxShape_RestOffset@@YAMPEBVPxShape@physx@@@Z 00000001800095b0 f   PxAutoGeneratedMetaDataObjects.obj
 0001:000085c0       ?setPxShape_TorsionalPatchRadius@@YAXPEAVPxShape@physx@@M@Z 00000001800095c0 f   PxAutoGeneratedMetaDataObjects.obj
 0001:000085d0       ?getPxShape_TorsionalPatchRadius@@YAMPEBVPxShape@physx@@@Z 00000001800095d0 f   PxAutoGeneratedMetaDataObjects.obj
 0001:000085e0       ?setPxShape_MinTorsionalPatchRadius@@YAXPEAVPxShape@physx@@M@Z 00000001800095e0 f   PxAutoGeneratedMetaDataObjects.obj
 0001:000085f0       ?getPxShape_MinTorsionalPatchRadius@@YAMPEBVPxShape@physx@@@Z 00000001800095f0 f   PxAutoGeneratedMetaDataObjects.obj
 0001:00008600       ?setPxShape_Flags@@YAXPEAVPxShape@physx@@V?$PxFlags@W4Enum@PxShapeFlag@physx@@E@2@@Z 0000000180009600 f   PxAutoGeneratedMetaDataObjects.obj
 0001:00008630       ?getPxShape_Flags@@YA?AV?$PxFlags@W4Enum@PxShapeFlag@physx@@E@physx@@PEBVPxShape@2@@Z 0000000180009630 f   PxAutoGeneratedMetaDataObjects.obj
 0001:00008660       ?getPxShape_IsExclusive@@YA_NPEBVPxShape@physx@@@Z 0000000180009660 f   PxAutoGeneratedMetaDataObjects.obj
 0001:00008670       ?setPxShape_Name@@YAXPEAVPxShape@physx@@PEBD@Z 0000000180009670 f   PxAutoGeneratedMetaDataObjects.obj
 0001:00008680       ?getPxShape_Name@@YAPEBDPEBVPxShape@physx@@@Z 0000000180009680 f   PxAutoGeneratedMetaDataObjects.obj
 0001:00008690       ?getPxShape_ConcreteTypeName@@YAPEBDPEBVPxShape@physx@@@Z 0000000180009690 f   PxAutoGeneratedMetaDataObjects.obj
 0001:000086a0       ?getPxPruningStructure_RigidActors@@YAIPEBVPxPruningStructure@physx@@PEAPEAVPxRigidActor@2@I@Z 00000001800096a0 f   PxAutoGeneratedMetaDataObjects.obj
 0001:000086b0       ?getNbPxPruningStructure_RigidActors@@YAIPEBVPxPruningStructure@physx@@@Z 00000001800096b0 f   PxAutoGeneratedMetaDataObjects.obj
 0001:000086c0       ?getPxPruningStructure_ConcreteTypeName@@YAPEBDPEBVPxPruningStructure@physx@@@Z 00000001800096c0 f   PxAutoGeneratedMetaDataObjects.obj
 0001:000086d0       ?getPxTolerancesScale_IsValid@@YA_NPEBVPxTolerancesScale@physx@@@Z 00000001800096d0 f   PxAutoGeneratedMetaDataObjects.obj
 0001:000086e0       ?setPxArticulationJointReducedCoordinate_JointType@@YAXPEAVPxArticulationJointReducedCoordinate@physx@@W4Enum@PxArticulationJointType@2@@Z 00000001800096e0 f   PxAutoGeneratedMetaDataObjects.obj
 0001:000086f0       ?getPxArticulationJointReducedCoordinate_JointType@@YA?AW4Enum@PxArticulationJointType@physx@@PEBVPxArticulationJointReducedCoordinate@3@@Z 00000001800096f0 f   PxAutoGeneratedMetaDataObjects.obj
 0001:00008700       ?setPxArticulationJointReducedCoordinate_Motion@@YAXPEAVPxArticulationJointReducedCoordinate@physx@@W4Enum@PxArticulationAxis@2@W43PxArticulationMotion@2@@Z 0000000180009700 f   PxAutoGeneratedMetaDataObjects.obj
 0001:00008710       ?getPxArticulationJointReducedCoordinate_Motion@@YA?AW4Enum@PxArticulationMotion@physx@@PEBVPxArticulationJointReducedCoordinate@3@W41PxArticulationAxis@3@@Z 0000000180009710 f   PxAutoGeneratedMetaDataObjects.obj
 0001:00008720       ?setPxArticulationJointReducedCoordinate_FrictionCoefficient@@YAXPEAVPxArticulationJointReducedCoordinate@physx@@M@Z 0000000180009720 f   PxAutoGeneratedMetaDataObjects.obj
 0001:00008730       ?getPxArticulationJointReducedCoordinate_FrictionCoefficient@@YAMPEBVPxArticulationJointReducedCoordinate@physx@@@Z 0000000180009730 f   PxAutoGeneratedMetaDataObjects.obj
 0001:00008740       ?getPxArticulationJointReducedCoordinate_ConcreteTypeName@@YAPEBDPEBVPxArticulationJointReducedCoordinate@physx@@@Z 0000000180009740 f   PxAutoGeneratedMetaDataObjects.obj
 0001:00008750       ?setPxArticulationJointReducedCoordinate_MaxJointVelocity@@YAXPEAVPxArticulationJointReducedCoordinate@physx@@M@Z 0000000180009750 f   PxAutoGeneratedMetaDataObjects.obj
 0001:00008760       ?getPxArticulationJointReducedCoordinate_MaxJointVelocity@@YAMPEBVPxArticulationJointReducedCoordinate@physx@@@Z 0000000180009760 f   PxAutoGeneratedMetaDataObjects.obj
 0001:00008770       ?getPxScene_Flags@@YA?AV?$PxFlags@W4Enum@PxSceneFlag@physx@@I@physx@@PEBVPxScene@2@@Z 0000000180009770 f   PxAutoGeneratedMetaDataObjects.obj
 0001:000087a0       ?setPxScene_Limits@@YAXPEAVPxScene@physx@@AEBVPxSceneLimits@2@@Z 00000001800097a0 f   PxAutoGeneratedMetaDataObjects.obj
 0001:000087b0       ?getPxScene_Limits@@YA?AVPxSceneLimits@physx@@PEBVPxScene@2@@Z 00000001800097b0 f   PxAutoGeneratedMetaDataObjects.obj
 0001:000087e0       ?getPxScene_Timestamp@@YAIPEBVPxScene@physx@@@Z 00000001800097e0 f   PxAutoGeneratedMetaDataObjects.obj
 0001:000087f0       ?getPxScene_Actors@@YAIPEBVPxScene@physx@@V?$PxFlags@W4Enum@PxActorTypeFlag@physx@@G@2@PEAPEAVPxActor@2@I@Z 00000001800097f0 f   PxAutoGeneratedMetaDataObjects.obj
 0001:00008820       ?getNbPxScene_Actors@@YAIPEBVPxScene@physx@@V?$PxFlags@W4Enum@PxActorTypeFlag@physx@@G@2@@Z 0000000180009820 f   PxAutoGeneratedMetaDataObjects.obj
 0001:00008850       ?getPxScene_Articulations@@YAIPEBVPxScene@physx@@PEAPEAVPxArticulationBase@2@I@Z 0000000180009850 f   PxAutoGeneratedMetaDataObjects.obj
 0001:00008870       ?getNbPxScene_Articulations@@YAIPEBVPxScene@physx@@@Z 0000000180009870 f   PxAutoGeneratedMetaDataObjects.obj
 0001:00008880       ?getPxScene_Constraints@@YAIPEBVPxScene@physx@@PEAPEAVPxConstraint@2@I@Z 0000000180009880 f   PxAutoGeneratedMetaDataObjects.obj
 0001:000088a0       ?getNbPxScene_Constraints@@YAIPEBVPxScene@physx@@@Z 00000001800098a0 f   PxAutoGeneratedMetaDataObjects.obj
 0001:000088b0       ?getPxScene_Aggregates@@YAIPEBVPxScene@physx@@PEAPEAVPxAggregate@2@I@Z 00000001800098b0 f   PxAutoGeneratedMetaDataObjects.obj
 0001:000088d0       ?getNbPxScene_Aggregates@@YAIPEBVPxScene@physx@@@Z 00000001800098d0 f   PxAutoGeneratedMetaDataObjects.obj
 0001:000088e0       ?getPxScene_CpuDispatcher@@YAPEAVPxCpuDispatcher@physx@@PEBVPxScene@2@@Z 00000001800098e0 f   PxAutoGeneratedMetaDataObjects.obj
 0001:000088f0       ?getPxScene_GpuDispatcher@@YAPEAVPxGpuDispatcher@physx@@PEBVPxScene@2@@Z 00000001800098f0 f   PxAutoGeneratedMetaDataObjects.obj
 0001:00008900       ?setPxScene_SimulationEventCallback@@YAXPEAVPxScene@physx@@PEAVPxSimulationEventCallback@2@@Z 0000000180009900 f   PxAutoGeneratedMetaDataObjects.obj
 0001:00008910       ?getPxScene_SimulationEventCallback@@YAPEAVPxSimulationEventCallback@physx@@PEBVPxScene@2@@Z 0000000180009910 f   PxAutoGeneratedMetaDataObjects.obj
 0001:00008920       ?setPxScene_ContactModifyCallback@@YAXPEAVPxScene@physx@@PEAVPxContactModifyCallback@2@@Z 0000000180009920 f   PxAutoGeneratedMetaDataObjects.obj
 0001:00008930       ?getPxScene_ContactModifyCallback@@YAPEAVPxContactModifyCallback@physx@@PEBVPxScene@2@@Z 0000000180009930 f   PxAutoGeneratedMetaDataObjects.obj
 0001:00008940       ?setPxScene_CCDContactModifyCallback@@YAXPEAVPxScene@physx@@PEAVPxCCDContactModifyCallback@2@@Z 0000000180009940 f   PxAutoGeneratedMetaDataObjects.obj
 0001:00008950       ?getPxScene_CCDContactModifyCallback@@YAPEAVPxCCDContactModifyCallback@physx@@PEBVPxScene@2@@Z 0000000180009950 f   PxAutoGeneratedMetaDataObjects.obj
 0001:00008960       ?setPxScene_BroadPhaseCallback@@YAXPEAVPxScene@physx@@PEAVPxBroadPhaseCallback@2@@Z 0000000180009960 f   PxAutoGeneratedMetaDataObjects.obj
 0001:00008970       ?getPxScene_BroadPhaseCallback@@YAPEAVPxBroadPhaseCallback@physx@@PEBVPxScene@2@@Z 0000000180009970 f   PxAutoGeneratedMetaDataObjects.obj
 0001:00008980       ?getPxScene_FilterShaderDataSize@@YAIPEBVPxScene@physx@@@Z 0000000180009980 f   PxAutoGeneratedMetaDataObjects.obj
 0001:00008990       ?getPxScene_FilterShader@@YAP6A?AV?$PxFlags@W4Enum@PxFilterFlag@physx@@G@physx@@IUPxFilterData@2@I0AEAV?$PxFlags@W4Enum@PxPairFlag@physx@@G@2@PEBXI@ZPEBVPxScene@2@@Z 0000000180009990 f   PxAutoGeneratedMetaDataObjects.obj
 0001:000089a0       ?getPxScene_FilterCallback@@YAPEAVPxSimulationFilterCallback@physx@@PEBVPxScene@2@@Z 00000001800099a0 f   PxAutoGeneratedMetaDataObjects.obj
 0001:000089b0       ?setPxScene_Gravity@@YAXPEAVPxScene@physx@@AEBVPxVec3@2@@Z 00000001800099b0 f   PxAutoGeneratedMetaDataObjects.obj
 0001:000089c0       ?getPxScene_Gravity@@YA?AVPxVec3@physx@@PEBVPxScene@2@@Z 00000001800099c0 f   PxAutoGeneratedMetaDataObjects.obj
 0001:000089f0       ?setPxScene_BounceThresholdVelocity@@YAXPEAVPxScene@physx@@M@Z 00000001800099f0 f   PxAutoGeneratedMetaDataObjects.obj
 0001:00008a00       ?getPxScene_BounceThresholdVelocity@@YAMPEBVPxScene@physx@@@Z 0000000180009a00 f   PxAutoGeneratedMetaDataObjects.obj
 0001:00008a10       ?setPxScene_CCDMaxPasses@@YAXPEAVPxScene@physx@@I@Z 0000000180009a10 f   PxAutoGeneratedMetaDataObjects.obj
 0001:00008a20       ?getPxScene_CCDMaxPasses@@YAIPEBVPxScene@physx@@@Z 0000000180009a20 f   PxAutoGeneratedMetaDataObjects.obj
 0001:00008a30       ?getPxScene_FrictionOffsetThreshold@@YAMPEBVPxScene@physx@@@Z 0000000180009a30 f   PxAutoGeneratedMetaDataObjects.obj
 0001:00008a40       ?setPxScene_FrictionType@@YAXPEAVPxScene@physx@@W4Enum@PxFrictionType@2@@Z 0000000180009a40 f   PxAutoGeneratedMetaDataObjects.obj
 0001:00008a50       ?getPxScene_FrictionType@@YA?AW4Enum@PxFrictionType@physx@@PEBVPxScene@3@@Z 0000000180009a50 f   PxAutoGeneratedMetaDataObjects.obj
 0001:00008a60       ?setPxScene_VisualizationCullingBox@@YAXPEAVPxScene@physx@@AEBVPxBounds3@2@@Z 0000000180009a60 f   PxAutoGeneratedMetaDataObjects.obj
 0001:00008a70       ?getPxScene_VisualizationCullingBox@@YA?AVPxBounds3@physx@@PEBVPxScene@2@@Z 0000000180009a70 f   PxAutoGeneratedMetaDataObjects.obj
 0001:00008aa0       ?getPxScene_StaticStructure@@YA?AW4Enum@PxPruningStructureType@physx@@PEBVPxScene@3@@Z 0000000180009aa0 f   PxAutoGeneratedMetaDataObjects.obj
 0001:00008ab0       ?getPxScene_DynamicStructure@@YA?AW4Enum@PxPruningStructureType@physx@@PEBVPxScene@3@@Z 0000000180009ab0 f   PxAutoGeneratedMetaDataObjects.obj
 0001:00008ac0       ?setPxScene_DynamicTreeRebuildRateHint@@YAXPEAVPxScene@physx@@I@Z 0000000180009ac0 f   PxAutoGeneratedMetaDataObjects.obj
 0001:00008ad0       ?getPxScene_DynamicTreeRebuildRateHint@@YAIPEBVPxScene@physx@@@Z 0000000180009ad0 f   PxAutoGeneratedMetaDataObjects.obj
 0001:00008ae0       ?setPxScene_SceneQueryUpdateMode@@YAXPEAVPxScene@physx@@W4Enum@PxSceneQueryUpdateMode@2@@Z 0000000180009ae0 f   PxAutoGeneratedMetaDataObjects.obj
 0001:00008af0       ?getPxScene_SceneQueryUpdateMode@@YA?AW4Enum@PxSceneQueryUpdateMode@physx@@PEBVPxScene@3@@Z 0000000180009af0 f   PxAutoGeneratedMetaDataObjects.obj
 0001:00008b00       ?getPxScene_SceneQueryStaticTimestamp@@YAIPEBVPxScene@physx@@@Z 0000000180009b00 f   PxAutoGeneratedMetaDataObjects.obj
 0001:00008b10       ?getPxScene_BroadPhaseType@@YA?AW4Enum@PxBroadPhaseType@physx@@PEBVPxScene@3@@Z 0000000180009b10 f   PxAutoGeneratedMetaDataObjects.obj
 0001:00008b20       ?getPxScene_BroadPhaseRegions@@YAIPEBVPxScene@physx@@PEAUPxBroadPhaseRegionInfo@2@I@Z 0000000180009b20 f   PxAutoGeneratedMetaDataObjects.obj
 0001:00008b40       ?getNbPxScene_BroadPhaseRegions@@YAIPEBVPxScene@physx@@@Z 0000000180009b40 f   PxAutoGeneratedMetaDataObjects.obj
 0001:00008b50       ?getPxScene_TaskManager@@YAPEAVPxTaskManager@physx@@PEBVPxScene@2@@Z 0000000180009b50 f   PxAutoGeneratedMetaDataObjects.obj
 0001:00008b60       ?setPxScene_NbContactDataBlocks@@YAXPEAVPxScene@physx@@I@Z 0000000180009b60 f   PxAutoGeneratedMetaDataObjects.obj
 0001:00008b70       ?getPxScene_MaxNbContactDataBlocksUsed@@YAIPEBVPxScene@physx@@@Z 0000000180009b70 f   PxAutoGeneratedMetaDataObjects.obj
 0001:00008b80       ?getPxScene_ContactReportStreamBufferSize@@YAIPEBVPxScene@physx@@@Z 0000000180009b80 f   PxAutoGeneratedMetaDataObjects.obj
 0001:00008b90       ?setPxScene_SolverBatchSize@@YAXPEAVPxScene@physx@@I@Z 0000000180009b90 f   PxAutoGeneratedMetaDataObjects.obj
 0001:00008ba0       ?getPxScene_SolverBatchSize@@YAIPEBVPxScene@physx@@@Z 0000000180009ba0 f   PxAutoGeneratedMetaDataObjects.obj
 0001:00008bb0       ?getPxScene_WakeCounterResetValue@@YAMPEBVPxScene@physx@@@Z 0000000180009bb0 f   PxAutoGeneratedMetaDataObjects.obj
 0001:00008bc0       ?setPxSceneDesc_ToDefault@@YAXPEAVPxSceneDesc@physx@@AEBVPxTolerancesScale@2@@Z 0000000180009bc0 f   PxAutoGeneratedMetaDataObjects.obj
 0001:00008db0       ??_H@YAXPEAX_K1P6APEAX0@Z@Z 0000000180009db0 f i PxAutoGeneratedMetaDataObjects.obj
 0001:00008e00       ?getPxActorUserData@@YAPEAXPEBVPxActor@physx@@@Z 0000000180009e00 f i PxAutoGeneratedMetaDataObjects.obj
 0001:00008e10       ?getPxArticulationBaseUserData@@YAPEAXPEBVPxArticulationBase@physx@@@Z 0000000180009e10 f i PxAutoGeneratedMetaDataObjects.obj
 0001:00008e20       ?getPxBoxGeometryHalfExtents@@YA?AVPxVec3@physx@@PEBVPxBoxGeometry@2@@Z 0000000180009e20 f i PxAutoGeneratedMetaDataObjects.obj
 0001:00008e40       ?getPxCapsuleGeometryHalfHeight@@YAMPEBVPxCapsuleGeometry@physx@@@Z 0000000180009e40 f i PxAutoGeneratedMetaDataObjects.obj
 0001:00008e50       ?getPxCapsuleGeometryRadius@@YAMPEBVPxCapsuleGeometry@physx@@@Z 0000000180009e50 f i PxAutoGeneratedMetaDataObjects.obj
 0001:00008e60       ?getPxConvexMeshGeometryConvexMesh@@YAPEAVPxConvexMesh@physx@@PEBVPxConvexMeshGeometry@2@@Z 0000000180009e60 f i PxAutoGeneratedMetaDataObjects.obj
 0001:00008e70       ?getPxConvexMeshGeometryMeshFlags@@YA?AV?$PxFlags@W4Enum@PxConvexMeshGeometryFlag@physx@@E@physx@@PEBVPxConvexMeshGeometry@2@@Z 0000000180009e70 f i PxAutoGeneratedMetaDataObjects.obj
 0001:00008e80       ?getPxConvexMeshGeometryScale@@YA?AVPxMeshScale@physx@@PEBVPxConvexMeshGeometry@2@@Z 0000000180009e80 f i PxAutoGeneratedMetaDataObjects.obj
 0001:00008eb0       ?getPxHeightFieldDescConvexEdgeThreshold@@YAMPEBVPxHeightFieldDesc@physx@@@Z 0000000180009eb0 f i PxAutoGeneratedMetaDataObjects.obj
 0001:00008ec0       ?getPxHeightFieldDescFlags@@YA?AV?$PxFlags@W4Enum@PxHeightFieldFlag@physx@@G@physx@@PEBVPxHeightFieldDesc@2@@Z 0000000180009ec0 f i PxAutoGeneratedMetaDataObjects.obj
 0001:00008ed0       ?getPxHeightFieldDescFormat@@YA?AW4Enum@PxHeightFieldFormat@physx@@PEBVPxHeightFieldDesc@3@@Z 0000000180009ed0 f i PxAutoGeneratedMetaDataObjects.obj
 0001:00008ee0       ?getPxHeightFieldDescNbColumns@@YAIPEBVPxHeightFieldDesc@physx@@@Z 0000000180009ee0 f i PxAutoGeneratedMetaDataObjects.obj
 0001:00008ef0       ?getPxHeightFieldDescNbRows@@YAIPEBVPxHeightFieldDesc@physx@@@Z 0000000180009ef0 f i PxAutoGeneratedMetaDataObjects.obj
 0001:00008f00       ?getPxHeightFieldDescSamples@@YA?AUPxStridedData@physx@@PEBVPxHeightFieldDesc@2@@Z 0000000180009f00 f i PxAutoGeneratedMetaDataObjects.obj
 0001:00008f10       ?getPxHeightFieldGeometryColumnScale@@YAMPEBVPxHeightFieldGeometry@physx@@@Z 0000000180009f10 f i PxAutoGeneratedMetaDataObjects.obj
 0001:00008f20       ?getPxHeightFieldGeometryHeightField@@YAPEAVPxHeightField@physx@@PEBVPxHeightFieldGeometry@2@@Z 0000000180009f20 f i PxAutoGeneratedMetaDataObjects.obj
 0001:00008f30       ?getPxHeightFieldGeometryHeightFieldFlags@@YA?AV?$PxFlags@W4Enum@PxMeshGeometryFlag@physx@@E@physx@@PEBVPxHeightFieldGeometry@2@@Z 0000000180009f30 f i PxAutoGeneratedMetaDataObjects.obj
 0001:00008f40       ?getPxHeightFieldGeometryHeightScale@@YAMPEBVPxHeightFieldGeometry@physx@@@Z 0000000180009f40 f i PxAutoGeneratedMetaDataObjects.obj
 0001:00008f50       ?getPxHeightFieldGeometryRowScale@@YAMPEBVPxHeightFieldGeometry@physx@@@Z 0000000180009f50 f i PxAutoGeneratedMetaDataObjects.obj
 0001:00008f60       ?getPxMaterialUserData@@YAPEAXPEBVPxMaterial@physx@@@Z 0000000180009f60 f i PxAutoGeneratedMetaDataObjects.obj
 0001:00008f70       ?getPxMeshScaleRotation@@YA?AVPxQuat@physx@@PEBVPxMeshScale@2@@Z 0000000180009f70 f i PxAutoGeneratedMetaDataObjects.obj
 0001:00008f90       ?getPxMeshScaleScale@@YA?AVPxVec3@physx@@PEBVPxMeshScale@2@@Z 0000000180009f90 f i PxAutoGeneratedMetaDataObjects.obj
 0001:00008fb0       ?getPxSceneDescBounceThresholdVelocity@@YAMPEBVPxSceneDesc@physx@@@Z 0000000180009fb0 f i PxAutoGeneratedMetaDataObjects.obj
 0001:00008fc0       ?getPxSceneDescBroadPhaseCallback@@YAPEAVPxBroadPhaseCallback@physx@@PEBVPxSceneDesc@2@@Z 0000000180009fc0 f i PxAutoGeneratedMetaDataObjects.obj
 0001:00008fd0       ?getPxSceneDescBroadPhaseType@@YA?AW4Enum@PxBroadPhaseType@physx@@PEBVPxSceneDesc@3@@Z 0000000180009fd0 f i PxAutoGeneratedMetaDataObjects.obj
 0001:00008fe0       ?getPxSceneDescCcdContactModifyCallback@@YAPEAVPxCCDContactModifyCallback@physx@@PEBVPxSceneDesc@2@@Z 0000000180009fe0 f i PxAutoGeneratedMetaDataObjects.obj
 0001:00008ff0       ?getPxSceneDescCcdMaxPasses@@YAIPEBVPxSceneDesc@physx@@@Z 0000000180009ff0 f i PxAutoGeneratedMetaDataObjects.obj
 0001:00009000       ?getPxSceneDescCcdMaxSeparation@@YAMPEBVPxSceneDesc@physx@@@Z 000000018000a000 f i PxAutoGeneratedMetaDataObjects.obj
 0001:00009010       ?getPxSceneDescContactModifyCallback@@YAPEAVPxContactModifyCallback@physx@@PEBVPxSceneDesc@2@@Z 000000018000a010 f i PxAutoGeneratedMetaDataObjects.obj
 0001:00009020       ?getPxSceneDescContactReportStreamBufferSize@@YAIPEBVPxSceneDesc@physx@@@Z 000000018000a020 f i PxAutoGeneratedMetaDataObjects.obj
 0001:00009030       ?getPxSceneDescCpuDispatcher@@YAPEAVPxCpuDispatcher@physx@@PEBVPxSceneDesc@2@@Z 000000018000a030 f i PxAutoGeneratedMetaDataObjects.obj
 0001:00009040       ?getPxSceneDescDynamicStructure@@YA?AW4Enum@PxPruningStructureType@physx@@PEBVPxSceneDesc@3@@Z 000000018000a040 f i PxAutoGeneratedMetaDataObjects.obj
 0001:00009050       ?getPxSceneDescDynamicTreeRebuildRateHint@@YAIPEBVPxSceneDesc@physx@@@Z 000000018000a050 f i PxAutoGeneratedMetaDataObjects.obj
 0001:00009060       ?getPxSceneDescFilterCallback@@YAPEAVPxSimulationFilterCallback@physx@@PEBVPxSceneDesc@2@@Z 000000018000a060 f i PxAutoGeneratedMetaDataObjects.obj
 0001:00009070       ?getPxSceneDescFilterShader@@YAP6A?AV?$PxFlags@W4Enum@PxFilterFlag@physx@@G@physx@@IUPxFilterData@2@I0AEAV?$PxFlags@W4Enum@PxPairFlag@physx@@G@2@PEBXI@ZPEBVPxSceneDesc@2@@Z 000000018000a070 f i PxAutoGeneratedMetaDataObjects.obj
 0001:00009080       ?getPxSceneDescFilterShaderData@@YAPEBXPEBVPxSceneDesc@physx@@@Z 000000018000a080 f i PxAutoGeneratedMetaDataObjects.obj
 0001:00009090       ?getPxSceneDescFilterShaderDataSize@@YAIPEBVPxSceneDesc@physx@@@Z 000000018000a090 f i PxAutoGeneratedMetaDataObjects.obj
 0001:000090a0       ?getPxSceneDescFlags@@YA?AV?$PxFlags@W4Enum@PxSceneFlag@physx@@I@physx@@PEBVPxSceneDesc@2@@Z 000000018000a0a0 f i PxAutoGeneratedMetaDataObjects.obj
 0001:000090b0       ?getPxSceneDescFrictionOffsetThreshold@@YAMPEBVPxSceneDesc@physx@@@Z 000000018000a0b0 f i PxAutoGeneratedMetaDataObjects.obj
 0001:000090c0       ?getPxSceneDescFrictionType@@YA?AW4Enum@PxFrictionType@physx@@PEBVPxSceneDesc@3@@Z 000000018000a0c0 f i PxAutoGeneratedMetaDataObjects.obj
 0001:000090d0       ?getPxSceneDescGpuComputeVersion@@YAIPEBVPxSceneDesc@physx@@@Z 000000018000a0d0 f i PxAutoGeneratedMetaDataObjects.obj
 0001:000090e0       ?getPxSceneDescGpuDispatcher@@YAPEAVPxGpuDispatcher@physx@@PEBVPxSceneDesc@2@@Z 000000018000a0e0 f i PxAutoGeneratedMetaDataObjects.obj
 0001:000090f0       ?getPxSceneDescGpuDynamicsConfig@@YA?AUPxgDynamicsMemoryConfig@physx@@PEBVPxSceneDesc@2@@Z 000000018000a0f0 f i PxAutoGeneratedMetaDataObjects.obj
 0001:00009110       ?getPxSceneDescGpuMaxNumPartitions@@YAIPEBVPxSceneDesc@physx@@@Z 000000018000a110 f i PxAutoGeneratedMetaDataObjects.obj
 0001:00009120       ?getPxSceneDescGravity@@YA?AVPxVec3@physx@@PEBVPxSceneDesc@2@@Z 000000018000a120 f i PxAutoGeneratedMetaDataObjects.obj
 0001:00009140       ?getPxSceneDescKineKineFilteringMode@@YA?AW4Enum@PxPairFilteringMode@physx@@PEBVPxSceneDesc@3@@Z 000000018000a140 f i PxAutoGeneratedMetaDataObjects.obj
 0001:00009150       ?getPxSceneDescLimits@@YA?AVPxSceneLimits@physx@@PEBVPxSceneDesc@2@@Z 000000018000a150 f i PxAutoGeneratedMetaDataObjects.obj
 0001:00009170       ?getPxSceneDescMaxBiasCoefficient@@YAMPEBVPxSceneDesc@physx@@@Z 000000018000a170 f i PxAutoGeneratedMetaDataObjects.obj
 0001:00009180       ?getPxSceneDescMaxNbContactDataBlocks@@YAIPEBVPxSceneDesc@physx@@@Z 000000018000a180 f i PxAutoGeneratedMetaDataObjects.obj
 0001:00009190       ?getPxSceneDescNbContactDataBlocks@@YAIPEBVPxSceneDesc@physx@@@Z 000000018000a190 f i PxAutoGeneratedMetaDataObjects.obj
 0001:000091a0       ?getPxSceneDescSanityBounds@@YA?AVPxBounds3@physx@@PEBVPxSceneDesc@2@@Z 000000018000a1a0 f i PxAutoGeneratedMetaDataObjects.obj
 0001:000091e0       ?getPxSceneDescSceneQueryUpdateMode@@YA?AW4Enum@PxSceneQueryUpdateMode@physx@@PEBVPxSceneDesc@3@@Z 000000018000a1e0 f i PxAutoGeneratedMetaDataObjects.obj
 0001:000091f0       ?getPxSceneDescSimulationEventCallback@@YAPEAVPxSimulationEventCallback@physx@@PEBVPxSceneDesc@2@@Z 000000018000a1f0 f i PxAutoGeneratedMetaDataObjects.obj
 0001:00009200       ?getPxSceneDescSolverBatchSize@@YAIPEBVPxSceneDesc@physx@@@Z 000000018000a200 f i PxAutoGeneratedMetaDataObjects.obj
 0001:00009210       ?getPxSceneDescSolverOffsetSlop@@YAMPEBVPxSceneDesc@physx@@@Z 000000018000a210 f i PxAutoGeneratedMetaDataObjects.obj
 0001:00009220       ?getPxSceneDescSolverType@@YA?AW4Enum@PxSolverType@physx@@PEBVPxSceneDesc@3@@Z 000000018000a220 f i PxAutoGeneratedMetaDataObjects.obj
 0001:00009230       ?getPxSceneDescStaticKineFilteringMode@@YA?AW4Enum@PxPairFilteringMode@physx@@PEBVPxSceneDesc@3@@Z 000000018000a230 f i PxAutoGeneratedMetaDataObjects.obj
 0001:00009240       ?getPxSceneDescStaticStructure@@YA?AW4Enum@PxPruningStructureType@physx@@PEBVPxSceneDesc@3@@Z 000000018000a240 f i PxAutoGeneratedMetaDataObjects.obj
 0001:00009250       ?getPxSceneDescUserData@@YAPEAXPEBVPxSceneDesc@physx@@@Z 000000018000a250 f i PxAutoGeneratedMetaDataObjects.obj
 0001:00009260       ?getPxSceneDescWakeCounterResetValue@@YAMPEBVPxSceneDesc@physx@@@Z 000000018000a260 f i PxAutoGeneratedMetaDataObjects.obj
 0001:00009270       ?getPxSceneLimitsMaxNbActors@@YAIPEBVPxSceneLimits@physx@@@Z 000000018000a270 f i PxAutoGeneratedMetaDataObjects.obj
 0001:00009280       ?getPxSceneLimitsMaxNbAggregates@@YAIPEBVPxSceneLimits@physx@@@Z 000000018000a280 f i PxAutoGeneratedMetaDataObjects.obj
 0001:00009290       ?getPxSceneLimitsMaxNbBodies@@YAIPEBVPxSceneLimits@physx@@@Z 000000018000a290 f i PxAutoGeneratedMetaDataObjects.obj
 0001:000092a0       ?getPxSceneLimitsMaxNbBroadPhaseOverlaps@@YAIPEBVPxSceneLimits@physx@@@Z 000000018000a2a0 f i PxAutoGeneratedMetaDataObjects.obj
 0001:000092b0       ?getPxSceneLimitsMaxNbConstraints@@YAIPEBVPxSceneLimits@physx@@@Z 000000018000a2b0 f i PxAutoGeneratedMetaDataObjects.obj
 0001:000092c0       ?getPxSceneLimitsMaxNbDynamicShapes@@YAIPEBVPxSceneLimits@physx@@@Z 000000018000a2c0 f i PxAutoGeneratedMetaDataObjects.obj
 0001:000092d0       ?getPxSceneLimitsMaxNbRegions@@YAIPEBVPxSceneLimits@physx@@@Z 000000018000a2d0 f i PxAutoGeneratedMetaDataObjects.obj
 0001:000092e0       ?getPxSceneLimitsMaxNbStaticShapes@@YAIPEBVPxSceneLimits@physx@@@Z 000000018000a2e0 f i PxAutoGeneratedMetaDataObjects.obj
 0001:000092f0       ?getPxSceneUserData@@YAPEAXPEBVPxScene@physx@@@Z 000000018000a2f0 f i PxAutoGeneratedMetaDataObjects.obj
 0001:00009300       ?getPxShapeUserData@@YAPEAXPEBVPxShape@physx@@@Z 000000018000a300 f i PxAutoGeneratedMetaDataObjects.obj
 0001:00009310       ?getPxSimulationStatisticsCompressedContactSize@@YAIPEBVPxSimulationStatistics@physx@@@Z 000000018000a310 f i PxAutoGeneratedMetaDataObjects.obj
 0001:00009320       ?getPxSimulationStatisticsNbActiveConstraints@@YAIPEBVPxSimulationStatistics@physx@@@Z 000000018000a320 f i PxAutoGeneratedMetaDataObjects.obj
 0001:00009330       ?getPxSimulationStatisticsNbActiveDynamicBodies@@YAIPEBVPxSimulationStatistics@physx@@@Z 000000018000a330 f i PxAutoGeneratedMetaDataObjects.obj
 0001:00009340       ?getPxSimulationStatisticsNbActiveKinematicBodies@@YAIPEBVPxSimulationStatistics@physx@@@Z 000000018000a340 f i PxAutoGeneratedMetaDataObjects.obj
 0001:00009350       ?getPxSimulationStatisticsNbAggregates@@YAIPEBVPxSimulationStatistics@physx@@@Z 000000018000a350 f i PxAutoGeneratedMetaDataObjects.obj
 0001:00009360       ?getPxSimulationStatisticsNbArticulations@@YAIPEBVPxSimulationStatistics@physx@@@Z 000000018000a360 f i PxAutoGeneratedMetaDataObjects.obj
 0001:00009370       ?getPxSimulationStatisticsNbAxisSolverConstraints@@YAIPEBVPxSimulationStatistics@physx@@@Z 000000018000a370 f i PxAutoGeneratedMetaDataObjects.obj
 0001:00009380       ?getPxSimulationStatisticsNbBroadPhaseAdds@@YAIPEBVPxSimulationStatistics@physx@@@Z 000000018000a380 f i PxAutoGeneratedMetaDataObjects.obj
 0001:00009390       ?getPxSimulationStatisticsNbBroadPhaseRemoves@@YAIPEBVPxSimulationStatistics@physx@@@Z 000000018000a390 f i PxAutoGeneratedMetaDataObjects.obj
 0001:000093a0       ?getPxSimulationStatisticsNbDiscreteContactPairsTotal@@YAIPEBVPxSimulationStatistics@physx@@@Z 000000018000a3a0 f i PxAutoGeneratedMetaDataObjects.obj
 0001:000093b0       ?getPxSimulationStatisticsNbDiscreteContactPairsWithCacheHits@@YAIPEBVPxSimulationStatistics@physx@@@Z 000000018000a3b0 f i PxAutoGeneratedMetaDataObjects.obj
 0001:000093c0       ?getPxSimulationStatisticsNbDiscreteContactPairsWithContacts@@YAIPEBVPxSimulationStatistics@physx@@@Z 000000018000a3c0 f i PxAutoGeneratedMetaDataObjects.obj
 0001:000093d0       ?getPxSimulationStatisticsNbDynamicBodies@@YAIPEBVPxSimulationStatistics@physx@@@Z 000000018000a3d0 f i PxAutoGeneratedMetaDataObjects.obj
 0001:000093e0       ?getPxSimulationStatisticsNbLostPairs@@YAIPEBVPxSimulationStatistics@physx@@@Z 000000018000a3e0 f i PxAutoGeneratedMetaDataObjects.obj
 0001:000093f0       ?getPxSimulationStatisticsNbLostTouches@@YAIPEBVPxSimulationStatistics@physx@@@Z 000000018000a3f0 f i PxAutoGeneratedMetaDataObjects.obj
 0001:00009400       ?getPxSimulationStatisticsNbNewPairs@@YAIPEBVPxSimulationStatistics@physx@@@Z 000000018000a400 f i PxAutoGeneratedMetaDataObjects.obj
 0001:00009410       ?getPxSimulationStatisticsNbNewTouches@@YAIPEBVPxSimulationStatistics@physx@@@Z 000000018000a410 f i PxAutoGeneratedMetaDataObjects.obj
 0001:00009420       ?getPxSimulationStatisticsNbPartitions@@YAIPEBVPxSimulationStatistics@physx@@@Z 000000018000a420 f i PxAutoGeneratedMetaDataObjects.obj
 0001:00009430       ?getPxSimulationStatisticsNbStaticBodies@@YAIPEBVPxSimulationStatistics@physx@@@Z 000000018000a430 f i PxAutoGeneratedMetaDataObjects.obj
 0001:00009440       ?getPxSimulationStatisticsPeakConstraintMemory@@YAIPEBVPxSimulationStatistics@physx@@@Z 000000018000a440 f i PxAutoGeneratedMetaDataObjects.obj
 0001:00009450       ?getPxSimulationStatisticsRequiredContactConstraintMemory@@YAIPEBVPxSimulationStatistics@physx@@@Z 000000018000a450 f i PxAutoGeneratedMetaDataObjects.obj
 0001:00009460       ?getPxSphereGeometryRadius@@YAMPEBVPxSphereGeometry@physx@@@Z 000000018000a460 f i PxAutoGeneratedMetaDataObjects.obj
 0001:00009470       ?getPxTolerancesScaleLength@@YAMPEBVPxTolerancesScale@physx@@@Z 000000018000a470 f i PxAutoGeneratedMetaDataObjects.obj
 0001:00009480       ?getPxTolerancesScaleSpeed@@YAMPEBVPxTolerancesScale@physx@@@Z 000000018000a480 f i PxAutoGeneratedMetaDataObjects.obj
 0001:00009490       ?getPxTriangleMeshGeometryMeshFlags@@YA?AV?$PxFlags@W4Enum@PxMeshGeometryFlag@physx@@E@physx@@PEBVPxTriangleMeshGeometry@2@@Z 000000018000a490 f i PxAutoGeneratedMetaDataObjects.obj
 0001:000094a0       ?getPxTriangleMeshGeometryScale@@YA?AVPxMeshScale@physx@@PEBVPxTriangleMeshGeometry@2@@Z 000000018000a4a0 f i PxAutoGeneratedMetaDataObjects.obj
 0001:000094d0       ?getPxTriangleMeshGeometryTriangleMesh@@YAPEAVPxTriangleMesh@physx@@PEBVPxTriangleMeshGeometry@2@@Z 000000018000a4d0 f i PxAutoGeneratedMetaDataObjects.obj
 0001:000094e0       ?getPxgDynamicsMemoryConfigConstraintBufferCapacity@@YAIPEBUPxgDynamicsMemoryConfig@physx@@@Z 000000018000a4e0 f i PxAutoGeneratedMetaDataObjects.obj
 0001:000094f0       ?getPxgDynamicsMemoryConfigContactBufferCapacity@@YAIPEBUPxgDynamicsMemoryConfig@physx@@@Z 000000018000a4f0 f i PxAutoGeneratedMetaDataObjects.obj
 0001:00009500       ?getPxgDynamicsMemoryConfigContactStreamSize@@YAIPEBUPxgDynamicsMemoryConfig@physx@@@Z 000000018000a500 f i PxAutoGeneratedMetaDataObjects.obj
 0001:00009510       ?getPxgDynamicsMemoryConfigForceStreamCapacity@@YAIPEBUPxgDynamicsMemoryConfig@physx@@@Z 000000018000a510 f i PxAutoGeneratedMetaDataObjects.obj
 0001:00009520       ?getPxgDynamicsMemoryConfigFoundLostPairsCapacity@@YAIPEBUPxgDynamicsMemoryConfig@physx@@@Z 000000018000a520 f i PxAutoGeneratedMetaDataObjects.obj
 0001:00009530       ?getPxgDynamicsMemoryConfigHeapCapacity@@YAIPEBUPxgDynamicsMemoryConfig@physx@@@Z 000000018000a530 f i PxAutoGeneratedMetaDataObjects.obj
 0001:00009540       ?getPxgDynamicsMemoryConfigPatchStreamSize@@YAIPEBUPxgDynamicsMemoryConfig@physx@@@Z 000000018000a540 f i PxAutoGeneratedMetaDataObjects.obj
 0001:00009550       ?getPxgDynamicsMemoryConfigTempBufferCapacity@@YAIPEBUPxgDynamicsMemoryConfig@physx@@@Z 000000018000a550 f i PxAutoGeneratedMetaDataObjects.obj
 0001:00009560       ?setPxActorUserData@@YAXPEAVPxActor@physx@@PEAX@Z 000000018000a560 f i PxAutoGeneratedMetaDataObjects.obj
 0001:00009570       ?setPxArticulationBaseUserData@@YAXPEAVPxArticulationBase@physx@@PEAX@Z 000000018000a570 f i PxAutoGeneratedMetaDataObjects.obj
 0001:00009580       ?setPxBoxGeometryHalfExtents@@YAXPEAVPxBoxGeometry@physx@@VPxVec3@2@@Z 000000018000a580 f i PxAutoGeneratedMetaDataObjects.obj
 0001:000095a0       ?setPxCapsuleGeometryHalfHeight@@YAXPEAVPxCapsuleGeometry@physx@@M@Z 000000018000a5a0 f i PxAutoGeneratedMetaDataObjects.obj
 0001:000095b0       ?setPxCapsuleGeometryRadius@@YAXPEAVPxCapsuleGeometry@physx@@M@Z 000000018000a5b0 f i PxAutoGeneratedMetaDataObjects.obj
 0001:000095c0       ?setPxConvexMeshGeometryConvexMesh@@YAXPEAVPxConvexMeshGeometry@physx@@PEAVPxConvexMesh@2@@Z 000000018000a5c0 f i PxAutoGeneratedMetaDataObjects.obj
 0001:000095d0       ?setPxConvexMeshGeometryMeshFlags@@YAXPEAVPxConvexMeshGeometry@physx@@V?$PxFlags@W4Enum@PxConvexMeshGeometryFlag@physx@@E@2@@Z 000000018000a5d0 f i PxAutoGeneratedMetaDataObjects.obj
 0001:000095e0       ?setPxConvexMeshGeometryScale@@YAXPEAVPxConvexMeshGeometry@physx@@VPxMeshScale@2@@Z 000000018000a5e0 f i PxAutoGeneratedMetaDataObjects.obj
 0001:00009610       ?setPxHeightFieldDescConvexEdgeThreshold@@YAXPEAVPxHeightFieldDesc@physx@@M@Z 000000018000a610 f i PxAutoGeneratedMetaDataObjects.obj
 0001:00009620       ?setPxHeightFieldDescFlags@@YAXPEAVPxHeightFieldDesc@physx@@V?$PxFlags@W4Enum@PxHeightFieldFlag@physx@@G@2@@Z 000000018000a620 f i PxAutoGeneratedMetaDataObjects.obj
 0001:00009630       ?setPxHeightFieldDescFormat@@YAXPEAVPxHeightFieldDesc@physx@@W4Enum@PxHeightFieldFormat@2@@Z 000000018000a630 f i PxAutoGeneratedMetaDataObjects.obj
 0001:00009640       ?setPxHeightFieldDescNbColumns@@YAXPEAVPxHeightFieldDesc@physx@@I@Z 000000018000a640 f i PxAutoGeneratedMetaDataObjects.obj
 0001:00009650       ?setPxHeightFieldDescNbRows@@YAXPEAVPxHeightFieldDesc@physx@@I@Z 000000018000a650 f i PxAutoGeneratedMetaDataObjects.obj
 0001:00009660       ?setPxHeightFieldDescSamples@@YAXPEAVPxHeightFieldDesc@physx@@UPxStridedData@2@@Z 000000018000a660 f i PxAutoGeneratedMetaDataObjects.obj
 0001:00009670       ?setPxHeightFieldGeometryColumnScale@@YAXPEAVPxHeightFieldGeometry@physx@@M@Z 000000018000a670 f i PxAutoGeneratedMetaDataObjects.obj
 0001:00009680       ?setPxHeightFieldGeometryHeightField@@YAXPEAVPxHeightFieldGeometry@physx@@PEAVPxHeightField@2@@Z 000000018000a680 f i PxAutoGeneratedMetaDataObjects.obj
 0001:00009690       ?setPxHeightFieldGeometryHeightFieldFlags@@YAXPEAVPxHeightFieldGeometry@physx@@V?$PxFlags@W4Enum@PxMeshGeometryFlag@physx@@E@2@@Z 000000018000a690 f i PxAutoGeneratedMetaDataObjects.obj
 0001:000096a0       ?setPxHeightFieldGeometryHeightScale@@YAXPEAVPxHeightFieldGeometry@physx@@M@Z 000000018000a6a0 f i PxAutoGeneratedMetaDataObjects.obj
 0001:000096b0       ?setPxHeightFieldGeometryRowScale@@YAXPEAVPxHeightFieldGeometry@physx@@M@Z 000000018000a6b0 f i PxAutoGeneratedMetaDataObjects.obj
 0001:000096c0       ?setPxMaterialUserData@@YAXPEAVPxMaterial@physx@@PEAX@Z 000000018000a6c0 f i PxAutoGeneratedMetaDataObjects.obj
 0001:000096d0       ?setPxMeshScaleRotation@@YAXPEAVPxMeshScale@physx@@VPxQuat@2@@Z 000000018000a6d0 f i PxAutoGeneratedMetaDataObjects.obj
 0001:000096f0       ?setPxMeshScaleScale@@YAXPEAVPxMeshScale@physx@@VPxVec3@2@@Z 000000018000a6f0 f i PxAutoGeneratedMetaDataObjects.obj
 0001:00009710       ?setPxSceneDescBounceThresholdVelocity@@YAXPEAVPxSceneDesc@physx@@M@Z 000000018000a710 f i PxAutoGeneratedMetaDataObjects.obj
 0001:00009720       ?setPxSceneDescBroadPhaseCallback@@YAXPEAVPxSceneDesc@physx@@PEAVPxBroadPhaseCallback@2@@Z 000000018000a720 f i PxAutoGeneratedMetaDataObjects.obj
 0001:00009730       ?setPxSceneDescBroadPhaseType@@YAXPEAVPxSceneDesc@physx@@W4Enum@PxBroadPhaseType@2@@Z 000000018000a730 f i PxAutoGeneratedMetaDataObjects.obj
 0001:00009740       ?setPxSceneDescCcdContactModifyCallback@@YAXPEAVPxSceneDesc@physx@@PEAVPxCCDContactModifyCallback@2@@Z 000000018000a740 f i PxAutoGeneratedMetaDataObjects.obj
 0001:00009750       ?setPxSceneDescCcdMaxPasses@@YAXPEAVPxSceneDesc@physx@@I@Z 000000018000a750 f i PxAutoGeneratedMetaDataObjects.obj
 0001:00009760       ?setPxSceneDescCcdMaxSeparation@@YAXPEAVPxSceneDesc@physx@@M@Z 000000018000a760 f i PxAutoGeneratedMetaDataObjects.obj
 0001:00009770       ?setPxSceneDescContactModifyCallback@@YAXPEAVPxSceneDesc@physx@@PEAVPxContactModifyCallback@2@@Z 000000018000a770 f i PxAutoGeneratedMetaDataObjects.obj
 0001:00009780       ?setPxSceneDescContactReportStreamBufferSize@@YAXPEAVPxSceneDesc@physx@@I@Z 000000018000a780 f i PxAutoGeneratedMetaDataObjects.obj
 0001:00009790       ?setPxSceneDescCpuDispatcher@@YAXPEAVPxSceneDesc@physx@@PEAVPxCpuDispatcher@2@@Z 000000018000a790 f i PxAutoGeneratedMetaDataObjects.obj
 0001:000097a0       ?setPxSceneDescDynamicStructure@@YAXPEAVPxSceneDesc@physx@@W4Enum@PxPruningStructureType@2@@Z 000000018000a7a0 f i PxAutoGeneratedMetaDataObjects.obj
 0001:000097b0       ?setPxSceneDescDynamicTreeRebuildRateHint@@YAXPEAVPxSceneDesc@physx@@I@Z 000000018000a7b0 f i PxAutoGeneratedMetaDataObjects.obj
 0001:000097c0       ?setPxSceneDescFilterCallback@@YAXPEAVPxSceneDesc@physx@@PEAVPxSimulationFilterCallback@2@@Z 000000018000a7c0 f i PxAutoGeneratedMetaDataObjects.obj
 0001:000097d0       ?setPxSceneDescFilterShader@@YAXPEAVPxSceneDesc@physx@@P6A?AV?$PxFlags@W4Enum@PxFilterFlag@physx@@G@2@IUPxFilterData@2@I1AEAV?$PxFlags@W4Enum@PxPairFlag@physx@@G@2@PEBXI@Z@Z 000000018000a7d0 f i PxAutoGeneratedMetaDataObjects.obj
 0001:000097e0       ?setPxSceneDescFilterShaderData@@YAXPEAVPxSceneDesc@physx@@PEBX@Z 000000018000a7e0 f i PxAutoGeneratedMetaDataObjects.obj
 0001:000097f0       ?setPxSceneDescFilterShaderDataSize@@YAXPEAVPxSceneDesc@physx@@I@Z 000000018000a7f0 f i PxAutoGeneratedMetaDataObjects.obj
 0001:00009800       ?setPxSceneDescFlags@@YAXPEAVPxSceneDesc@physx@@V?$PxFlags@W4Enum@PxSceneFlag@physx@@I@2@@Z 000000018000a800 f i PxAutoGeneratedMetaDataObjects.obj
 0001:00009810       ?setPxSceneDescFrictionOffsetThreshold@@YAXPEAVPxSceneDesc@physx@@M@Z 000000018000a810 f i PxAutoGeneratedMetaDataObjects.obj
 0001:00009820       ?setPxSceneDescFrictionType@@YAXPEAVPxSceneDesc@physx@@W4Enum@PxFrictionType@2@@Z 000000018000a820 f i PxAutoGeneratedMetaDataObjects.obj
 0001:00009830       ?setPxSceneDescGpuComputeVersion@@YAXPEAVPxSceneDesc@physx@@I@Z 000000018000a830 f i PxAutoGeneratedMetaDataObjects.obj
 0001:00009840       ?setPxSceneDescGpuDispatcher@@YAXPEAVPxSceneDesc@physx@@PEAVPxGpuDispatcher@2@@Z 000000018000a840 f i PxAutoGeneratedMetaDataObjects.obj
 0001:00009850       ?setPxSceneDescGpuDynamicsConfig@@YAXPEAVPxSceneDesc@physx@@UPxgDynamicsMemoryConfig@2@@Z 000000018000a850 f i PxAutoGeneratedMetaDataObjects.obj
 0001:00009870       ?setPxSceneDescGpuMaxNumPartitions@@YAXPEAVPxSceneDesc@physx@@I@Z 000000018000a870 f i PxAutoGeneratedMetaDataObjects.obj
 0001:00009880       ?setPxSceneDescGravity@@YAXPEAVPxSceneDesc@physx@@VPxVec3@2@@Z 000000018000a880 f i PxAutoGeneratedMetaDataObjects.obj
 0001:000098a0       ?setPxSceneDescKineKineFilteringMode@@YAXPEAVPxSceneDesc@physx@@W4Enum@PxPairFilteringMode@2@@Z 000000018000a8a0 f i PxAutoGeneratedMetaDataObjects.obj
 0001:000098b0       ?setPxSceneDescLimits@@YAXPEAVPxSceneDesc@physx@@VPxSceneLimits@2@@Z 000000018000a8b0 f i PxAutoGeneratedMetaDataObjects.obj
 0001:000098c0       ?setPxSceneDescMaxBiasCoefficient@@YAXPEAVPxSceneDesc@physx@@M@Z 000000018000a8c0 f i PxAutoGeneratedMetaDataObjects.obj
 0001:000098d0       ?setPxSceneDescMaxNbContactDataBlocks@@YAXPEAVPxSceneDesc@physx@@I@Z 000000018000a8d0 f i PxAutoGeneratedMetaDataObjects.obj
 0001:000098e0       ?setPxSceneDescNbContactDataBlocks@@YAXPEAVPxSceneDesc@physx@@I@Z 000000018000a8e0 f i PxAutoGeneratedMetaDataObjects.obj
 0001:000098f0       ?setPxSceneDescSanityBounds@@YAXPEAVPxSceneDesc@physx@@VPxBounds3@2@@Z 000000018000a8f0 f i PxAutoGeneratedMetaDataObjects.obj
 0001:00009930       ?setPxSceneDescSceneQueryUpdateMode@@YAXPEAVPxSceneDesc@physx@@W4Enum@PxSceneQueryUpdateMode@2@@Z 000000018000a930 f i PxAutoGeneratedMetaDataObjects.obj
 0001:00009940       ?setPxSceneDescSimulationEventCallback@@YAXPEAVPxSceneDesc@physx@@PEAVPxSimulationEventCallback@2@@Z 000000018000a940 f i PxAutoGeneratedMetaDataObjects.obj
 0001:00009950       ?setPxSceneDescSolverBatchSize@@YAXPEAVPxSceneDesc@physx@@I@Z 000000018000a950 f i PxAutoGeneratedMetaDataObjects.obj
 0001:00009960       ?setPxSceneDescSolverOffsetSlop@@YAXPEAVPxSceneDesc@physx@@M@Z 000000018000a960 f i PxAutoGeneratedMetaDataObjects.obj
 0001:00009970       ?setPxSceneDescSolverType@@YAXPEAVPxSceneDesc@physx@@W4Enum@PxSolverType@2@@Z 000000018000a970 f i PxAutoGeneratedMetaDataObjects.obj
 0001:00009980       ?setPxSceneDescStaticKineFilteringMode@@YAXPEAVPxSceneDesc@physx@@W4Enum@PxPairFilteringMode@2@@Z 000000018000a980 f i PxAutoGeneratedMetaDataObjects.obj
 0001:00009990       ?setPxSceneDescStaticStructure@@YAXPEAVPxSceneDesc@physx@@W4Enum@PxPruningStructureType@2@@Z 000000018000a990 f i PxAutoGeneratedMetaDataObjects.obj
 0001:000099a0       ?setPxSceneDescUserData@@YAXPEAVPxSceneDesc@physx@@PEAX@Z 000000018000a9a0 f i PxAutoGeneratedMetaDataObjects.obj
 0001:000099b0       ?setPxSceneDescWakeCounterResetValue@@YAXPEAVPxSceneDesc@physx@@M@Z 000000018000a9b0 f i PxAutoGeneratedMetaDataObjects.obj
 0001:000099c0       ?setPxSceneLimitsMaxNbActors@@YAXPEAVPxSceneLimits@physx@@I@Z 000000018000a9c0 f i PxAutoGeneratedMetaDataObjects.obj
 0001:000099d0       ?setPxSceneLimitsMaxNbAggregates@@YAXPEAVPxSceneLimits@physx@@I@Z 000000018000a9d0 f i PxAutoGeneratedMetaDataObjects.obj
 0001:000099e0       ?setPxSceneLimitsMaxNbBodies@@YAXPEAVPxSceneLimits@physx@@I@Z 000000018000a9e0 f i PxAutoGeneratedMetaDataObjects.obj
 0001:000099f0       ?setPxSceneLimitsMaxNbBroadPhaseOverlaps@@YAXPEAVPxSceneLimits@physx@@I@Z 000000018000a9f0 f i PxAutoGeneratedMetaDataObjects.obj
 0001:00009a00       ?setPxSceneLimitsMaxNbConstraints@@YAXPEAVPxSceneLimits@physx@@I@Z 000000018000aa00 f i PxAutoGeneratedMetaDataObjects.obj
 0001:00009a10       ?setPxSceneLimitsMaxNbDynamicShapes@@YAXPEAVPxSceneLimits@physx@@I@Z 000000018000aa10 f i PxAutoGeneratedMetaDataObjects.obj
 0001:00009a20       ?setPxSceneLimitsMaxNbRegions@@YAXPEAVPxSceneLimits@physx@@I@Z 000000018000aa20 f i PxAutoGeneratedMetaDataObjects.obj
 0001:00009a30       ?setPxSceneLimitsMaxNbStaticShapes@@YAXPEAVPxSceneLimits@physx@@I@Z 000000018000aa30 f i PxAutoGeneratedMetaDataObjects.obj
 0001:00009a40       ?setPxSceneUserData@@YAXPEAVPxScene@physx@@PEAX@Z 000000018000aa40 f i PxAutoGeneratedMetaDataObjects.obj
 0001:00009a50       ?setPxShapeUserData@@YAXPEAVPxShape@physx@@PEAX@Z 000000018000aa50 f i PxAutoGeneratedMetaDataObjects.obj
 0001:00009a60       ?setPxSimulationStatisticsCompressedContactSize@@YAXPEAVPxSimulationStatistics@physx@@I@Z 000000018000aa60 f i PxAutoGeneratedMetaDataObjects.obj
 0001:00009a70       ?setPxSimulationStatisticsNbActiveConstraints@@YAXPEAVPxSimulationStatistics@physx@@I@Z 000000018000aa70 f i PxAutoGeneratedMetaDataObjects.obj
 0001:00009a80       ?setPxSimulationStatisticsNbActiveDynamicBodies@@YAXPEAVPxSimulationStatistics@physx@@I@Z 000000018000aa80 f i PxAutoGeneratedMetaDataObjects.obj
 0001:00009a90       ?setPxSimulationStatisticsNbActiveKinematicBodies@@YAXPEAVPxSimulationStatistics@physx@@I@Z 000000018000aa90 f i PxAutoGeneratedMetaDataObjects.obj
 0001:00009aa0       ?setPxSimulationStatisticsNbAggregates@@YAXPEAVPxSimulationStatistics@physx@@I@Z 000000018000aaa0 f i PxAutoGeneratedMetaDataObjects.obj
 0001:00009ab0       ?setPxSimulationStatisticsNbArticulations@@YAXPEAVPxSimulationStatistics@physx@@I@Z 000000018000aab0 f i PxAutoGeneratedMetaDataObjects.obj
 0001:00009ac0       ?setPxSimulationStatisticsNbAxisSolverConstraints@@YAXPEAVPxSimulationStatistics@physx@@I@Z 000000018000aac0 f i PxAutoGeneratedMetaDataObjects.obj
 0001:00009ad0       ?setPxSimulationStatisticsNbBroadPhaseAdds@@YAXPEAVPxSimulationStatistics@physx@@I@Z 000000018000aad0 f i PxAutoGeneratedMetaDataObjects.obj
 0001:00009ae0       ?setPxSimulationStatisticsNbBroadPhaseRemoves@@YAXPEAVPxSimulationStatistics@physx@@I@Z 000000018000aae0 f i PxAutoGeneratedMetaDataObjects.obj
 0001:00009af0       ?setPxSimulationStatisticsNbDiscreteContactPairsTotal@@YAXPEAVPxSimulationStatistics@physx@@I@Z 000000018000aaf0 f i PxAutoGeneratedMetaDataObjects.obj
 0001:00009b00       ?setPxSimulationStatisticsNbDiscreteContactPairsWithCacheHits@@YAXPEAVPxSimulationStatistics@physx@@I@Z 000000018000ab00 f i PxAutoGeneratedMetaDataObjects.obj
 0001:00009b10       ?setPxSimulationStatisticsNbDiscreteContactPairsWithContacts@@YAXPEAVPxSimulationStatistics@physx@@I@Z 000000018000ab10 f i PxAutoGeneratedMetaDataObjects.obj
 0001:00009b20       ?setPxSimulationStatisticsNbDynamicBodies@@YAXPEAVPxSimulationStatistics@physx@@I@Z 000000018000ab20 f i PxAutoGeneratedMetaDataObjects.obj
 0001:00009b30       ?setPxSimulationStatisticsNbLostPairs@@YAXPEAVPxSimulationStatistics@physx@@I@Z 000000018000ab30 f i PxAutoGeneratedMetaDataObjects.obj
 0001:00009b40       ?setPxSimulationStatisticsNbLostTouches@@YAXPEAVPxSimulationStatistics@physx@@I@Z 000000018000ab40 f i PxAutoGeneratedMetaDataObjects.obj
 0001:00009b50       ?setPxSimulationStatisticsNbNewPairs@@YAXPEAVPxSimulationStatistics@physx@@I@Z 000000018000ab50 f i PxAutoGeneratedMetaDataObjects.obj
 0001:00009b60       ?setPxSimulationStatisticsNbNewTouches@@YAXPEAVPxSimulationStatistics@physx@@I@Z 000000018000ab60 f i PxAutoGeneratedMetaDataObjects.obj
 0001:00009b70       ?setPxSimulationStatisticsNbPartitions@@YAXPEAVPxSimulationStatistics@physx@@I@Z 000000018000ab70 f i PxAutoGeneratedMetaDataObjects.obj
 0001:00009b80       ?setPxSimulationStatisticsNbStaticBodies@@YAXPEAVPxSimulationStatistics@physx@@I@Z 000000018000ab80 f i PxAutoGeneratedMetaDataObjects.obj
 0001:00009b90       ?setPxSimulationStatisticsPeakConstraintMemory@@YAXPEAVPxSimulationStatistics@physx@@I@Z 000000018000ab90 f i PxAutoGeneratedMetaDataObjects.obj
 0001:00009ba0       ?setPxSimulationStatisticsRequiredContactConstraintMemory@@YAXPEAVPxSimulationStatistics@physx@@I@Z 000000018000aba0 f i PxAutoGeneratedMetaDataObjects.obj
 0001:00009bb0       ?setPxSphereGeometryRadius@@YAXPEAVPxSphereGeometry@physx@@M@Z 000000018000abb0 f i PxAutoGeneratedMetaDataObjects.obj
 0001:00009bc0       ?setPxTolerancesScaleLength@@YAXPEAVPxTolerancesScale@physx@@M@Z 000000018000abc0 f i PxAutoGeneratedMetaDataObjects.obj
 0001:00009bd0       ?setPxTolerancesScaleSpeed@@YAXPEAVPxTolerancesScale@physx@@M@Z 000000018000abd0 f i PxAutoGeneratedMetaDataObjects.obj
 0001:00009be0       ?setPxTriangleMeshGeometryMeshFlags@@YAXPEAVPxTriangleMeshGeometry@physx@@V?$PxFlags@W4Enum@PxMeshGeometryFlag@physx@@E@2@@Z 000000018000abe0 f i PxAutoGeneratedMetaDataObjects.obj
 0001:00009bf0       ?setPxTriangleMeshGeometryScale@@YAXPEAVPxTriangleMeshGeometry@physx@@VPxMeshScale@2@@Z 000000018000abf0 f i PxAutoGeneratedMetaDataObjects.obj
 0001:00009c20       ?setPxTriangleMeshGeometryTriangleMesh@@YAXPEAVPxTriangleMeshGeometry@physx@@PEAVPxTriangleMesh@2@@Z 000000018000ac20 f i PxAutoGeneratedMetaDataObjects.obj
 0001:00009c30       ?setPxgDynamicsMemoryConfigConstraintBufferCapacity@@YAXPEAUPxgDynamicsMemoryConfig@physx@@I@Z 000000018000ac30 f i PxAutoGeneratedMetaDataObjects.obj
 0001:00009c40       ?setPxgDynamicsMemoryConfigContactBufferCapacity@@YAXPEAUPxgDynamicsMemoryConfig@physx@@I@Z 000000018000ac40 f i PxAutoGeneratedMetaDataObjects.obj
 0001:00009c50       ?setPxgDynamicsMemoryConfigContactStreamSize@@YAXPEAUPxgDynamicsMemoryConfig@physx@@I@Z 000000018000ac50 f i PxAutoGeneratedMetaDataObjects.obj
 0001:00009c60       ?setPxgDynamicsMemoryConfigForceStreamCapacity@@YAXPEAUPxgDynamicsMemoryConfig@physx@@I@Z 000000018000ac60 f i PxAutoGeneratedMetaDataObjects.obj
 0001:00009c70       ?setPxgDynamicsMemoryConfigFoundLostPairsCapacity@@YAXPEAUPxgDynamicsMemoryConfig@physx@@I@Z 000000018000ac70 f i PxAutoGeneratedMetaDataObjects.obj
 0001:00009c80       ?setPxgDynamicsMemoryConfigHeapCapacity@@YAXPEAUPxgDynamicsMemoryConfig@physx@@I@Z 000000018000ac80 f i PxAutoGeneratedMetaDataObjects.obj
 0001:00009c90       ?setPxgDynamicsMemoryConfigPatchStreamSize@@YAXPEAUPxgDynamicsMemoryConfig@physx@@I@Z 000000018000ac90 f i PxAutoGeneratedMetaDataObjects.obj
 0001:00009ca0       ?setPxgDynamicsMemoryConfigTempBufferCapacity@@YAXPEAUPxgDynamicsMemoryConfig@physx@@I@Z 000000018000aca0 f i PxAutoGeneratedMetaDataObjects.obj
 0001:00009cb0       ?getGeometryType@PxShapeGeometryPropertyHelper@physx@@QEBA?AW4Enum@PxGeometryType@2@PEBVPxShape@2@@Z 000000018000acb0 f   PxMetaDataObjects.obj
 0001:00009cc0       ?getGeometry@PxShapeGeometryPropertyHelper@physx@@QEBA_NPEBVPxShape@2@AEAVPxBoxGeometry@2@@Z 000000018000acc0 f   PxMetaDataObjects.obj
 0001:00009ce0       ?getGeometry@PxShapeGeometryPropertyHelper@physx@@QEBA_NPEBVPxShape@2@AEAVPxSphereGeometry@2@@Z 000000018000ace0 f   PxMetaDataObjects.obj
 0001:00009d00       ?getGeometry@PxShapeGeometryPropertyHelper@physx@@QEBA_NPEBVPxShape@2@AEAVPxCapsuleGeometry@2@@Z 000000018000ad00 f   PxMetaDataObjects.obj
 0001:00009d20       ?getGeometry@PxShapeGeometryPropertyHelper@physx@@QEBA_NPEBVPxShape@2@AEAVPxPlaneGeometry@2@@Z 000000018000ad20 f   PxMetaDataObjects.obj
 0001:00009d40       ?getGeometry@PxShapeGeometryPropertyHelper@physx@@QEBA_NPEBVPxShape@2@AEAVPxConvexMeshGeometry@2@@Z 000000018000ad40 f   PxMetaDataObjects.obj
 0001:00009d60       ?getGeometry@PxShapeGeometryPropertyHelper@physx@@QEBA_NPEBVPxShape@2@AEAVPxTriangleMeshGeometry@2@@Z 000000018000ad60 f   PxMetaDataObjects.obj
 0001:00009d80       ?getGeometry@PxShapeGeometryPropertyHelper@physx@@QEBA_NPEBVPxShape@2@AEAVPxHeightFieldGeometry@2@@Z 000000018000ad80 f   PxMetaDataObjects.obj
 0001:00009da0       ?setMaterials@PxShapeMaterialsPropertyHelper@physx@@QEBAXPEAVPxShape@2@PEBQEAVPxMaterial@2@G@Z 000000018000ada0 f   PxMetaDataObjects.obj
 0001:00009dc0       ?createShape@PxRigidActorShapeCollectionHelper@physx@@QEBAPEAVPxShape@2@PEAVPxRigidActor@2@AEBVPxGeometry@2@AEAVPxMaterial@2@V?$PxFlags@W4Enum@PxShapeFlag@physx@@E@2@@Z 000000018000adc0 f   PxMetaDataObjects.obj
 0001:00009e50       ?createShape@PxRigidActorShapeCollectionHelper@physx@@QEBAPEAVPxShape@2@PEAVPxRigidActor@2@AEBVPxGeometry@2@PEBQEAVPxMaterial@2@GV?$PxFlags@W4Enum@PxShapeFlag@physx@@E@2@@Z 000000018000ae50 f   PxMetaDataObjects.obj
 0001:00009ee0       ?createLink@PxArticulationLinkCollectionPropHelper@physx@@QEBAPEAVPxArticulationLink@2@PEAVPxArticulation@2@PEAV32@AEBVPxTransform@2@@Z 000000018000aee0 f   PxMetaDataObjects.obj
 0001:00009f00       ??0NbShapesProperty@physx@@QEAA@XZ 000000018000af00 f   PxMetaDataObjects.obj
 0001:00009f40       ??0NbDiscreteContactPairsProperty@physx@@QEAA@XZ 000000018000af40 f   PxMetaDataObjects.obj
 0001:00009f80       ??0NbModifiedContactPairsProperty@physx@@QEAA@XZ 000000018000af80 f   PxMetaDataObjects.obj
 0001:00009fc0       ??0NbCCDPairsProperty@physx@@QEAA@XZ 000000018000afc0 f   PxMetaDataObjects.obj
 0001:0000a000       ??0NbTriggerPairsProperty@physx@@QEAA@XZ 000000018000b000 f   PxMetaDataObjects.obj
 0001:0000a040       ??0SimulationStatisticsProperty@physx@@QEAA@XZ 000000018000b040 f   PxMetaDataObjects.obj
 0001:0000a060       ??0Allocator@shdfnd@physx@@QEAA@PEBD@Z 000000018000b060 f i PxMetaDataObjects.obj
 0001:0000a070       ??0PxFoundation@physx@@QEAA@AEBV01@@Z 000000018000b070 f i PxMetaDataObjects.obj
 0001:0000a080       ??0PxFoundation@physx@@QEAA@XZ 000000018000b080 f i PxMetaDataObjects.obj
 0001:0000a090       ??1PxFoundation@physx@@MEAA@XZ 000000018000b090 f i PxMetaDataObjects.obj
 0001:0000a0a0       ??4Allocator@shdfnd@physx@@QEAAAEAV012@$$QEAV012@@Z 000000018000b0a0 f i PxMetaDataObjects.obj
 0001:0000a0b0       ??4Allocator@shdfnd@physx@@QEAAAEAV012@AEBV012@@Z 000000018000b0b0 f i PxMetaDataObjects.obj
 0001:0000a0c0       ??4MutexImpl@shdfnd@physx@@QEAAAEAV012@AEBV012@@Z 000000018000b0c0 f i PxMetaDataObjects.obj
 0001:0000a0d0       ??4PxFoundation@physx@@QEAAAEAV01@AEBV01@@Z 000000018000b0d0 f i PxMetaDataObjects.obj
 0001:0000a0e0       ??_EPxFoundation@physx@@MEAAPEAXI@Z 000000018000b0e0 f i PxMetaDataObjects.obj
 0001:0000a170       ??_FAllocator@shdfnd@physx@@QEAAXXZ 000000018000b170 f i PxMetaDataObjects.obj
 0001:0000a180       ??_GPxFoundation@physx@@MEAAPEAXI@Z 000000018000b180 f i PxMetaDataObjects.obj
 0001:0000a1b0       ??_I@YAXPEAX_K1P6AX0@Z@Z   000000018000b1b0 f i PxMetaDataObjects.obj
 0001:0000a210       ?GetNbCCDPairs@@YAIPEBVPxSimulationStatistics@physx@@W4Enum@PxGeometryType@2@1@Z 000000018000b210 f i PxMetaDataObjects.obj
 0001:0000a230       ?GetNbDiscreteContactPairs@@YAIPEBVPxSimulationStatistics@physx@@W4Enum@PxGeometryType@2@1@Z 000000018000b230 f i PxMetaDataObjects.obj
 0001:0000a250       ?GetNbModifiedContactPairs@@YAIPEBVPxSimulationStatistics@physx@@W4Enum@PxGeometryType@2@1@Z 000000018000b250 f i PxMetaDataObjects.obj
 0001:0000a270       ?GetNbShape@@YAIPEBVPxSimulationStatistics@physx@@W4Enum@PxGeometryType@2@@Z 000000018000b270 f i PxMetaDataObjects.obj
 0001:0000a280       ?GetNbTriggerPairs@@YAIPEBVPxSimulationStatistics@physx@@W4Enum@PxGeometryType@2@1@Z 000000018000b280 f i PxMetaDataObjects.obj
 0001:0000a2a0       ?GetStats@@YA?AVPxSimulationStatistics@physx@@PEBVPxScene@2@@Z 000000018000b2a0 f i PxMetaDataObjects.obj
 0001:0000a380       ?SetNbCCDPairs@@YAXPEAVPxSimulationStatistics@physx@@W4Enum@PxGeometryType@2@1I@Z 000000018000b380 f i PxMetaDataObjects.obj
 0001:0000a3a0       ?SetNbDiscreteContactPairs@@YAXPEAVPxSimulationStatistics@physx@@W4Enum@PxGeometryType@2@1I@Z 000000018000b3a0 f i PxMetaDataObjects.obj
 0001:0000a3c0       ?SetNbModifiedContactPairs@@YAXPEAVPxSimulationStatistics@physx@@W4Enum@PxGeometryType@2@1I@Z 000000018000b3c0 f i PxMetaDataObjects.obj
 0001:0000a3e0       ?SetNbShape@@YAXPEAVPxSimulationStatistics@physx@@W4Enum@PxGeometryType@2@I@Z 000000018000b3e0 f i PxMetaDataObjects.obj
 0001:0000a3f0       ?SetNbTriggerPairs@@YAXPEAVPxSimulationStatistics@physx@@W4Enum@PxGeometryType@2@1I@Z 000000018000b3f0 f i PxMetaDataObjects.obj
 0001:0000a410       ?__empty_global_delete@@YAXPEAX@Z 000000018000b410 f i PxMetaDataObjects.obj
 0001:0000a420       ?__global_array_delete@@YAXPEAX_K@Z 000000018000b420 f i PxMetaDataObjects.obj
 0001:0000a420       ?__global_delete@@YAXPEAX_K@Z 000000018000b420 f i PxMetaDataObjects.obj
 0001:0000a420       ?__empty_global_delete@@YAXPEAX_K@Z 000000018000b420 f i PxMetaDataObjects.obj
 0001:0000a430       ?getAllocator@Foundation@shdfnd@physx@@QEAAAEAVPxAllocatorCallback@3@XZ 000000018000b430 f i PxMetaDataObjects.obj
 0001:0000a440       ?getAllocatorCallback@Foundation@shdfnd@physx@@UEAAAEAVPxAllocatorCallback@3@XZ 000000018000b440 f i PxMetaDataObjects.obj
 0001:0000a450       ?getErrorCallback@Foundation@shdfnd@physx@@UEAAAEAVPxErrorCallback@3@XZ 000000018000b450 f i PxMetaDataObjects.obj
 0001:0000a460       ?getErrorLevel@Foundation@shdfnd@physx@@UEBA?AW4Enum@PxErrorCode@3@XZ 000000018000b460 f i PxMetaDataObjects.obj
 0001:0000a470       ?getInternalErrorCallback@Foundation@shdfnd@physx@@QEAAAEAVPxErrorCallback@3@XZ 000000018000b470 f i PxMetaDataObjects.obj
 0001:0000a480       ?getNamedAllocMap@Foundation@shdfnd@physx@@QEAAAEAV?$HashMap@PEBVNamedAllocator@shdfnd@physx@@PEBDU?$Hash@PEBVNamedAllocator@shdfnd@physx@@@23@VNonTrackingAllocator@23@@23@XZ 000000018000b480 f i PxMetaDataObjects.obj
 0001:0000a490       ?getNamedAllocMutex@Foundation@shdfnd@physx@@QEAAAEAV?$MutexT@VAllocator@shdfnd@physx@@@23@XZ 000000018000b490 f i PxMetaDataObjects.obj
 0001:0000a4a0       ?getReportAllocationNames@Foundation@shdfnd@physx@@UEBA_NXZ 000000018000b4a0 f i PxMetaDataObjects.obj
 0001:0000a4b0       ?getTempAllocFreeTable@Foundation@shdfnd@physx@@QEAAAEAV?$Array@PEATTempAllocatorChunk@shdfnd@physx@@VAllocator@23@@23@XZ 000000018000b4b0 f i PxMetaDataObjects.obj
 0001:0000a4c0       ?getTempAllocMutex@Foundation@shdfnd@physx@@QEAAAEAV?$MutexT@VAllocator@shdfnd@physx@@@23@XZ 000000018000b4c0 f i PxMetaDataObjects.obj
 0001:0000a4d0       ?setErrorLevel@Foundation@shdfnd@physx@@UEAAXW4Enum@PxErrorCode@3@@Z 000000018000b4d0 f i PxMetaDataObjects.obj
 0001:0000a4e0       ?setReportAllocationNames@Foundation@shdfnd@physx@@UEAAX_N@Z 000000018000b4e0 f i PxMetaDataObjects.obj
 0001:0000a4f0       ?exportExtraData@NpActor@physx@@QEAAXAEAVPxSerializationContext@2@@Z 000000018000b4f0 f   NpActor.obj
 0001:0000a6a0       ?importExtraData@NpActor@physx@@QEAAXAEAVPxDeserializationContext@2@@Z 000000018000b6a0 f   NpActor.obj
 0001:0000a740       ?resolveReferences@NpActor@physx@@QEAAXAEAVPxDeserializationContext@2@@Z 000000018000b740 f   NpActor.obj
 0001:0000a7d0       ??0NpActor@physx@@QEAA@PEBD@Z 000000018000b7d0 f   NpActor.obj
 0001:0000a7f0       ?releaseConstraints@NpActor@physx@@QEAAXAEAVPxRigidActor@2@@Z 000000018000b7f0 f   NpActor.obj
 0001:0000a910       ?release@NpActor@physx@@QEAAXAEAVPxActor@2@@Z 000000018000b910 f   NpActor.obj
 0001:0000a930       ?getNpAggregate@NpActor@physx@@QEBAPEAVNpAggregate@2@AEAI@Z 000000018000b930 f   NpActor.obj
 0001:0000a980       ?setAggregate@NpActor@physx@@QEAAXPEAVNpAggregate@2@AEAVPxActor@2@@Z 000000018000b980 f   NpActor.obj
 0001:0000ab30       ?getAggregate@NpActor@physx@@QEBAPEAVPxAggregate@2@XZ 000000018000bb30 f   NpActor.obj
 0001:0000ab80       ?removeConstraintsFromScene@NpActor@physx@@QEAAXXZ 000000018000bb80 f   NpActor.obj
 0001:0000ac30       ?findConnector@NpActor@physx@@QEBAIW4Enum@NpConnectorType@2@PEAVPxBase@2@@Z 000000018000bc30 f   NpActor.obj
 0001:0000ac80       ?addConnector@NpActor@physx@@QEAAXW4Enum@NpConnectorType@2@PEAVPxBase@2@PEBD@Z 000000018000bc80 f   NpActor.obj
 0001:0000ade0       ?removeConnector@NpActor@physx@@QEAAXAEAVPxActor@2@W4Enum@NpConnectorType@2@PEAVPxBase@2@PEBD@Z 000000018000bde0 f   NpActor.obj
 0001:0000ae90       ?getNbConnectors@NpActor@physx@@QEBAIW4Enum@NpConnectorType@2@@Z 000000018000be90 f   NpActor.obj
 0001:0000aed0       ?getShapeManager@NpActor@physx@@SAPEAVNpShapeManager@2@AEAVPxRigidActor@2@@Z 000000018000bed0 f   NpActor.obj
 0001:0000af00       ?getShapeManager@NpActor@physx@@SAPEBVNpShapeManager@2@AEBVPxRigidActor@2@@Z 000000018000bf00 f   NpActor.obj
 0001:0000af30       ?getGlobalPose@NpActor@physx@@SAXAEAVPxTransform@2@AEBVNpShape@2@AEBVPxRigidActor@2@@Z 000000018000bf30 f   NpActor.obj
 0001:0000af60       ?getGlobalPose@NpActor@physx@@SAXAEAVPxTransform@2@AEBVShape@Scb@2@AEBVActor@52@@Z 000000018000bf60 f   NpActor.obj
 0001:0000b440       ?getAPIScene@NpActor@physx@@SAPEAVNpScene@2@AEBVPxActor@2@@Z 000000018000c440 f   NpActor.obj
 0001:0000b480       ?getOwnerScene@NpActor@physx@@SAPEAVNpScene@2@AEBVPxActor@2@@Z 000000018000c480 f   NpActor.obj
 0001:0000b4b0       ?onActorRelease@NpActor@physx@@SAXPEAVPxActor@2@@Z 000000018000c4b0 f   NpActor.obj
 0001:0000b4d0       ??1NpActor@physx@@IEAA@XZ  000000018000c4d0 f   NpActor.obj
 0001:0000b4e0       ?addConstraintsToSceneInternal@NpActor@physx@@AEAAXXZ 000000018000c4e0 f   NpActor.obj
 0001:0000b5b0       ?removeConnector@NpActor@physx@@AEAAXAEAVPxActor@2@I@Z 000000018000c5b0 f   NpActor.obj
 0001:0000b610       ??0Offsets@NpActor@physx@@QEAA@XZ 000000018000c610 f   NpActor.obj
 0001:0000b6e0       ??$exportArray@VNpConnector@physx@@V?$InlineAllocator@$0EA@V?$ReflectionAllocator@VNpConnector@physx@@@shdfnd@physx@@@shdfnd@2@@Cm@physx@@YAXAEBV?$Array@VNpConnector@physx@@V?$InlineAllocator@$0EA@V?$ReflectionAllocator@VNpConnector@physx@@@shdfnd@physx@@@shdfnd@2@@shdfnd@1@AEAVPxSerializationContext@1@@Z 000000018000c6e0 f i NpActor.obj
 0001:0000b710       ??$exportInlineArray@VNpConnector@physx@@$03V?$ReflectionAllocator@VNpConnector@physx@@@shdfnd@2@@Cm@physx@@YAXAEBV?$InlineArray@VNpConnector@physx@@$03V?$ReflectionAllocator@VNpConnector@physx@@@shdfnd@2@@shdfnd@1@AEAVPxSerializationContext@1@@Z 000000018000c710 f i NpActor.obj
 0001:0000b750       ??$importArray@VNpConnector@physx@@V?$InlineAllocator@$0EA@V?$ReflectionAllocator@VNpConnector@physx@@@shdfnd@physx@@@shdfnd@2@@Cm@physx@@YAXAEAV?$Array@VNpConnector@physx@@V?$InlineAllocator@$0EA@V?$ReflectionAllocator@VNpConnector@physx@@@shdfnd@physx@@@shdfnd@2@@shdfnd@1@AEAVPxDeserializationContext@1@@Z 000000018000c750 f i NpActor.obj
 0001:0000b790       ??$importInlineArray@VNpConnector@physx@@$03V?$ReflectionAllocator@VNpConnector@physx@@@shdfnd@2@@Cm@physx@@YAXAEAV?$InlineArray@VNpConnector@physx@@$03V?$ReflectionAllocator@VNpConnector@physx@@@shdfnd@2@@shdfnd@1@AEAVPxDeserializationContext@1@@Z 000000018000c790 f i NpActor.obj
 0001:0000b7d0       ??$pointerOffset@PEBVActor@Scb@physx@@@shdfnd@physx@@YAPEBVActor@Scb@1@PEBX_J@Z 000000018000c7d0 f i NpActor.obj
 0001:0000b7e0       ??0PxTransform@physx@@QEAA@XZ 000000018000c7e0 f i NpActor.obj
 0001:0000b7f0       ??0PxVec3@physx@@QEAA@XZ   000000018000c7f0 f i NpActor.obj
 0001:0000b800       ??4FPUGuard@shdfnd@physx@@QEAAAEAV012@AEBV012@@Z 000000018000c800 f i NpActor.obj
 0001:0000b820       ??4SyncImpl@shdfnd@physx@@QEAAAEAV012@AEBV012@@Z 000000018000c820 f i NpActor.obj
 0001:0000b830       ??4ThreadImpl@shdfnd@physx@@QEAAAEAV012@AEBV012@@Z 000000018000c830 f i NpActor.obj
 0001:0000b840       ?allocate@?$Array@VNpConnector@physx@@V?$InlineAllocator@$0EA@V?$ReflectionAllocator@VNpConnector@physx@@@shdfnd@physx@@@shdfnd@2@@shdfnd@physx@@IEAAPEAVNpConnector@3@I@Z 000000018000c840 f i NpActor.obj
 0001:0000b900       ?create@?$HashBase@PEAVPxConstraint@physx@@PEAV12@U?$Hash@PEAVPxConstraint@physx@@@shdfnd@2@UGetKey@?$HashSetBase@PEAVPxConstraint@physx@@U?$Hash@PEAVPxConstraint@physx@@@shdfnd@2@VNonTrackingAllocator@42@$00@internal@42@VNonTrackingAllocator@42@$00@internal@shdfnd@physx@@QEAAPEAPEAVPxConstraint@4@AEBQEAV54@AEA_N@Z 000000018000c900 f i NpActor.obj
 0001:0000baa0       ?erase@?$HashBase@PEAVPxConstraint@physx@@PEAV12@U?$Hash@PEAVPxConstraint@physx@@@shdfnd@2@UGetKey@?$HashSetBase@PEAVPxConstraint@physx@@U?$Hash@PEAVPxConstraint@physx@@@shdfnd@2@VNonTrackingAllocator@42@$00@internal@42@VNonTrackingAllocator@42@$00@internal@shdfnd@physx@@QEAA_NAEBQEAVPxConstraint@4@@Z 000000018000caa0 f i NpActor.obj
 0001:0000bc10       ?growAndPushBack@?$Array@VNpConnector@physx@@V?$InlineAllocator@$0EA@V?$ReflectionAllocator@VNpConnector@physx@@@shdfnd@physx@@@shdfnd@2@@shdfnd@physx@@IEAAAEAVNpConnector@3@AEBV43@@Z 000000018000cc10 f i NpActor.obj
 0001:0000bcf0       ?recreate@?$Array@VNpConnector@physx@@V?$InlineAllocator@$0EA@V?$ReflectionAllocator@VNpConnector@physx@@@shdfnd@physx@@@shdfnd@2@@shdfnd@physx@@IEAAXI@Z 000000018000ccf0 f i NpActor.obj
 0001:0000bda0       ?reserveInternal@?$HashBase@PEAVPxConstraint@physx@@PEAV12@U?$Hash@PEAVPxConstraint@physx@@@shdfnd@2@UGetKey@?$HashSetBase@PEAVPxConstraint@physx@@U?$Hash@PEAVPxConstraint@physx@@@shdfnd@2@VNonTrackingAllocator@42@$00@internal@42@VNonTrackingAllocator@42@$00@internal@shdfnd@physx@@AEAAXI@Z 000000018000cda0 f i NpActor.obj
 0001:0000bf70       ?resizeUninitialized@?$Array@VNpConnector@physx@@V?$InlineAllocator@$0EA@V?$ReflectionAllocator@VNpConnector@physx@@@shdfnd@physx@@@shdfnd@2@@shdfnd@physx@@QEAAXI@Z 000000018000cf70 f i NpActor.obj
 0001:0000bfb0       ?exportExtraData@NpAggregate@physx@@UEAAXAEAVPxSerializationContext@2@@Z 000000018000cfb0 f   NpAggregate.obj
 0001:0000c000       ?importExtraData@NpAggregate@physx@@QEAAXAEAVPxDeserializationContext@2@@Z 000000018000d000 f   NpAggregate.obj
 0001:0000c030       ?resolveReferences@NpAggregate@physx@@QEAAXAEAVPxDeserializationContext@2@@Z 000000018000d030 f   NpAggregate.obj
 0001:0000c140       ?requiresObjects@NpAggregate@physx@@UEAAXAEAVPxProcessPxBaseCallback@2@@Z 000000018000d140 f   NpAggregate.obj
 0001:0000c1b0       ?createObject@NpAggregate@physx@@SAPEAV12@AEAPEAEAEAVPxDeserializationContext@2@@Z 000000018000d1b0 f   NpAggregate.obj
 0001:0000c320       ??0NpAggregate@physx@@QEAA@I_N@Z 000000018000d320 f   NpAggregate.obj
 0001:0000c3d0       ??1NpAggregate@physx@@UEAA@XZ 000000018000d3d0 f   NpAggregate.obj
 0001:0000c450       ?release@NpAggregate@physx@@UEAAXXZ 000000018000d450 f   NpAggregate.obj
 0001:0000c5d0       ?addActor@NpAggregate@physx@@UEAA_NAEAVPxActor@2@PEBVPxBVHStructure@2@@Z 000000018000d5d0 f   NpAggregate.obj
 0001:0000c7f0       ?removeActor@NpAggregate@physx@@UEAA_NAEAVPxActor@2@@Z 000000018000d7f0 f   NpAggregate.obj
 0001:0000ca10       ?addArticulation@NpAggregate@physx@@UEAA_NAEAVPxArticulationBase@2@@Z 000000018000da10 f   NpAggregate.obj
 0001:0000cbf0       ?removeArticulation@NpAggregate@physx@@UEAA_NAEAVPxArticulationBase@2@@Z 000000018000dbf0 f   NpAggregate.obj
 0001:0000cd50       ?getNbActors@NpAggregate@physx@@UEBAIXZ 000000018000dd50 f   NpAggregate.obj
 0001:0000cd60       ?getMaxNbActors@NpAggregate@physx@@UEBAIXZ 000000018000dd60 f   NpAggregate.obj
 0001:0000cd70       ?getActors@NpAggregate@physx@@UEBAIPEAPEAVPxActor@2@II@Z 000000018000dd70 f   NpAggregate.obj
 0001:0000cdc0       ?getScene@NpAggregate@physx@@UEAAPEAVPxScene@2@XZ 000000018000ddc0 f   NpAggregate.obj
 0001:0000ce00       ?getSelfCollision@NpAggregate@physx@@UEBA_NXZ 000000018000de00 f   NpAggregate.obj
 0001:0000ce10       ?getAPIScene@NpAggregate@physx@@QEBAPEAVNpScene@2@XZ 000000018000de10 f   NpAggregate.obj
 0001:0000ce50       ?getOwnerScene@NpAggregate@physx@@QEBAPEAVNpScene@2@XZ 000000018000de50 f   NpAggregate.obj
 0001:0000ce70       ?addActorInternal@NpAggregate@physx@@QEAAXAEAVPxActor@2@AEAVNpScene@2@PEBVPxBVHStructure@2@@Z 000000018000de70 f   NpAggregate.obj
 0001:0000cf60       ?removeAndReinsert@NpAggregate@physx@@QEAAXAEAVPxActor@2@_N@Z 000000018000df60 f   NpAggregate.obj
 0001:0000cfd0       ?removeActorAndReinsert@NpAggregate@physx@@QEAA_NAEAVPxActor@2@_N@Z 000000018000dfd0 f   NpAggregate.obj
 0001:0000d0b0       ?removeArticulationAndReinsert@NpAggregate@physx@@QEAA_NAEAVPxArticulationBase@2@_N@Z 000000018000e0b0 f   NpAggregate.obj
 0001:0000d1f0       ??$pointerOffset@PEAVActor@Scb@physx@@@shdfnd@physx@@YAPEAVActor@Scb@1@PEAX_J@Z 000000018000e1f0 f i NpAggregate.obj
 0001:0000d200       ??$pointerOffset@PEAVNpActor@physx@@@shdfnd@physx@@YAPEAVNpActor@1@PEAX_J@Z 000000018000e200 f i NpAggregate.obj
 0001:0000d210       ??1PxAggregate@physx@@MEAA@XZ 000000018000e210 f i NpAggregate.obj
 0001:0000d220       ??1PxBase@physx@@MEAA@XZ   000000018000e220 f i NpAggregate.obj
 0001:0000d230       ??_ENpAggregate@physx@@UEAAPEAXI@Z 000000018000e230 f i NpAggregate.obj
 0001:0000d230       ??_GNpAggregate@physx@@UEAAPEAXI@Z 000000018000e230 f i NpAggregate.obj
 0001:0000d2e0       ??_GPxAggregate@physx@@MEAAPEAXI@Z 000000018000e2e0 f i NpAggregate.obj
 0001:0000d2e0       ??_EPxAggregate@physx@@MEAAPEAXI@Z 000000018000e2e0 f i NpAggregate.obj
 0001:0000d310       ??_GPxBase@physx@@MEAAPEAXI@Z 000000018000e310 f i NpAggregate.obj
 0001:0000d310       ??_EPxBase@physx@@MEAAPEAXI@Z 000000018000e310 f i NpAggregate.obj
 0001:0000d340       ?erase@?$HashBase@PEAVPxAggregate@physx@@PEAV12@U?$Hash@PEAVPxAggregate@physx@@@shdfnd@2@UGetKey@?$HashSetBase@PEAVPxAggregate@physx@@U?$Hash@PEAVPxAggregate@physx@@@shdfnd@2@VNonTrackingAllocator@42@$00@internal@42@VNonTrackingAllocator@42@$00@internal@shdfnd@physx@@QEAA_NAEBQEAVPxAggregate@4@@Z 000000018000e340 f i NpAggregate.obj
 0001:0000d4b0       ?getConcreteTypeName@PxAggregate@physx@@UEBAPEBDXZ 000000018000e4b0 f i NpAggregate.obj
 0001:0000d4c0       ?isKindOf@PxAggregate@physx@@MEBA_NPEBD@Z 000000018000e4c0 f i NpAggregate.obj
 0001:0000d510       ?isKindOf@PxBase@physx@@MEBA_NPEBD@Z 000000018000e510 f i NpAggregate.obj
 0001:0000d540       ?isReleasable@PxBase@physx@@UEBA_NXZ 000000018000e540 f i NpAggregate.obj
 0001:0000d550       ??1NpArticulationReducedCoordinate@physx@@UEAA@XZ 000000018000e550 f   NpArticulationReducedCoordinate.obj
 0001:0000d5f0       ?setArticulationFlags@NpArticulationReducedCoordinate@physx@@UEAAXV?$PxFlags@W4Enum@PxArticulationFlag@physx@@E@2@@Z 000000018000e5f0 f   NpArticulationReducedCoordinate.obj
 0001:0000d650       ?setArticulationFlag@NpArticulationReducedCoordinate@physx@@UEAAXW4Enum@PxArticulationFlag@2@_N@Z 000000018000e650 f   NpArticulationReducedCoordinate.obj
 0001:0000d6c0       ?getArticulationFlags@NpArticulationReducedCoordinate@physx@@UEBA?AV?$PxFlags@W4Enum@PxArticulationFlag@physx@@E@2@XZ 000000018000e6c0 f   NpArticulationReducedCoordinate.obj
 0001:0000d6d0       ?getDofs@NpArticulationReducedCoordinate@physx@@UEBAIXZ 000000018000e6d0 f   NpArticulationReducedCoordinate.obj
 0001:0000d6e0       ?createCache@NpArticulationReducedCoordinate@physx@@UEBAPEAVPxArticulationCache@2@XZ 000000018000e6e0 f   NpArticulationReducedCoordinate.obj
 0001:0000d710       ?getCacheDataSize@NpArticulationReducedCoordinate@physx@@UEBAIXZ 000000018000e710 f   NpArticulationReducedCoordinate.obj
 0001:0000d720       ?zeroCache@NpArticulationReducedCoordinate@physx@@UEAAXAEAVPxArticulationCache@2@@Z 000000018000e720 f   NpArticulationReducedCoordinate.obj
 0001:0000d730       ?applyCache@NpArticulationReducedCoordinate@physx@@UEAAXAEAVPxArticulationCache@2@V?$PxFlags@W4Enum@PxArticulationCache@physx@@E@2@_N@Z 000000018000e730 f   NpArticulationReducedCoordinate.obj
 0001:0000d920       ?copyInternalStateToCache@NpArticulationReducedCoordinate@physx@@UEBAXAEAVPxArticulationCache@2@V?$PxFlags@W4Enum@PxArticulationCache@physx@@E@2@@Z 000000018000e920 f   NpArticulationReducedCoordinate.obj
 0001:0000d950       ?releaseCache@NpArticulationReducedCoordinate@physx@@UEBAXAEAVPxArticulationCache@2@@Z 000000018000e950 f   NpArticulationReducedCoordinate.obj
 0001:0000d960       ?packJointData@NpArticulationReducedCoordinate@physx@@UEBAXPEBMPEAM@Z 000000018000e960 f   NpArticulationReducedCoordinate.obj
 0001:0000d970       ?unpackJointData@NpArticulationReducedCoordinate@physx@@UEBAXPEBMPEAM@Z 000000018000e970 f   NpArticulationReducedCoordinate.obj
 0001:0000d980       ?commonInit@NpArticulationReducedCoordinate@physx@@UEBAXXZ 000000018000e980 f   NpArticulationReducedCoordinate.obj
 0001:0000d990       ?computeGeneralizedGravityForce@NpArticulationReducedCoordinate@physx@@UEBAXAEAVPxArticulationCache@2@@Z 000000018000e990 f   NpArticulationReducedCoordinate.obj
 0001:0000d9a0       ?computeCoriolisAndCentrifugalForce@NpArticulationReducedCoordinate@physx@@UEBAXAEAVPxArticulationCache@2@@Z 000000018000e9a0 f   NpArticulationReducedCoordinate.obj
 0001:0000d9b0       ?computeGeneralizedExternalForce@NpArticulationReducedCoordinate@physx@@UEBAXAEAVPxArticulationCache@2@@Z 000000018000e9b0 f   NpArticulationReducedCoordinate.obj
 0001:0000d9c0       ?computeJointAcceleration@NpArticulationReducedCoordinate@physx@@UEBAXAEAVPxArticulationCache@2@@Z 000000018000e9c0 f   NpArticulationReducedCoordinate.obj
 0001:0000d9d0       ?computeJointForce@NpArticulationReducedCoordinate@physx@@UEBAXAEAVPxArticulationCache@2@@Z 000000018000e9d0 f   NpArticulationReducedCoordinate.obj
 0001:0000d9e0       ?computeKinematicJacobian@NpArticulationReducedCoordinate@physx@@UEBAXIAEAVPxArticulationCache@2@@Z 000000018000e9e0 f   NpArticulationReducedCoordinate.obj
 0001:0000d9f0       ?computeCoefficentMatrix@NpArticulationReducedCoordinate@physx@@UEBAXAEAVPxArticulationCache@2@@Z 000000018000e9f0 f   NpArticulationReducedCoordinate.obj
 0001:0000da60       ?computeLambda@NpArticulationReducedCoordinate@physx@@UEBA_NAEAVPxArticulationCache@2@0QEBMI@Z 000000018000ea60 f   NpArticulationReducedCoordinate.obj
 0001:0000db60       ?computeGeneralizedMassMatrix@NpArticulationReducedCoordinate@physx@@UEBAXAEAVPxArticulationCache@2@@Z 000000018000eb60 f   NpArticulationReducedCoordinate.obj
 0001:0000db70       ?addLoopJoint@NpArticulationReducedCoordinate@physx@@UEAAXPEAVPxJoint@2@@Z 000000018000eb70 f   NpArticulationReducedCoordinate.obj
 0001:0000dc20       ?removeLoopJoint@NpArticulationReducedCoordinate@physx@@UEAAXPEAVPxJoint@2@@Z 000000018000ec20 f   NpArticulationReducedCoordinate.obj
 0001:0000dca0       ?getNbLoopJoints@NpArticulationReducedCoordinate@physx@@UEBAIXZ 000000018000eca0 f   NpArticulationReducedCoordinate.obj
 0001:0000dcb0       ?getLoopJoints@NpArticulationReducedCoordinate@physx@@UEBAIPEAPEAVPxJoint@2@II@Z 000000018000ecb0 f   NpArticulationReducedCoordinate.obj
 0001:0000dd10       ?getCoefficentMatrixSize@NpArticulationReducedCoordinate@physx@@UEBAIXZ 000000018000ed10 f   NpArticulationReducedCoordinate.obj
 0001:0000dd20       ?teleportRootLink@NpArticulationReducedCoordinate@physx@@UEAAXAEBVPxTransform@2@_N@Z 000000018000ed20 f   NpArticulationReducedCoordinate.obj
 0001:0000dd40       ??0NpArticulationReducedCoordinate@physx@@QEAA@XZ 000000018000ed40 f   NpArticulationReducedCoordinate.obj
 0001:0000de10       ?createArticulationJoint@NpArticulationReducedCoordinate@physx@@UEAAPEAVPxArticulationJointBase@2@AEAVPxArticulationLink@2@AEBVPxTransform@2@01@Z 000000018000ee10 f   NpArticulationReducedCoordinate.obj
 0001:0000de30       ?releaseArticulationJoint@NpArticulationReducedCoordinate@physx@@UEAAXPEAVPxArticulationJointBase@2@@Z 000000018000ee30 f   NpArticulationReducedCoordinate.obj
 0001:0000de40       ??1?$NpArticulationTemplate@VPxArticulationReducedCoordinate@physx@@@physx@@UEAA@XZ 000000018000ee40 f i NpArticulationReducedCoordinate.obj
 0001:0000de80       ??1PxArticulationBase@physx@@UEAA@XZ 000000018000ee80 f i NpArticulationReducedCoordinate.obj
 0001:0000de90       ??1PxArticulationImpl@physx@@QEAA@XZ 000000018000ee90 f i NpArticulationReducedCoordinate.obj
 0001:0000df00       ??1PxArticulationReducedCoordinate@physx@@MEAA@XZ 000000018000ef00 f i NpArticulationReducedCoordinate.obj
 0001:0000df10       ??_E?$NpArticulationTemplate@VPxArticulationReducedCoordinate@physx@@@physx@@UEAAPEAXI@Z 000000018000ef10 f i NpArticulationReducedCoordinate.obj
 0001:0000df10       ??_G?$NpArticulationTemplate@VPxArticulationReducedCoordinate@physx@@@physx@@UEAAPEAXI@Z 000000018000ef10 f i NpArticulationReducedCoordinate.obj
 0001:0000dfa0       ??_GNpArticulationReducedCoordinate@physx@@UEAAPEAXI@Z 000000018000efa0 f i NpArticulationReducedCoordinate.obj
 0001:0000dfa0       ??_ENpArticulationReducedCoordinate@physx@@UEAAPEAXI@Z 000000018000efa0 f i NpArticulationReducedCoordinate.obj
 0001:0000e080       ??_GPxArticulationBase@physx@@UEAAPEAXI@Z 000000018000f080 f i NpArticulationReducedCoordinate.obj
 0001:0000e080       ??_EPxArticulationBase@physx@@UEAAPEAXI@Z 000000018000f080 f i NpArticulationReducedCoordinate.obj
 0001:0000e0b0       ??_EPxArticulationReducedCoordinate@physx@@MEAAPEAXI@Z 000000018000f0b0 f i NpArticulationReducedCoordinate.obj
 0001:0000e0b0       ??_GPxArticulationReducedCoordinate@physx@@MEAAPEAXI@Z 000000018000f0b0 f i NpArticulationReducedCoordinate.obj
 0001:0000e0e0       ?allocate@?$Array@PEAVNpArticulationLink@physx@@V?$InlineAllocator@$0CA@V?$ReflectionAllocator@PEAVNpArticulationLink@physx@@@shdfnd@physx@@@shdfnd@2@@shdfnd@physx@@IEAAPEAPEAVNpArticulationLink@3@I@Z 000000018000f0e0 f i NpArticulationReducedCoordinate.obj
 0001:0000e1a0       ?allocate@?$Array@PEAVPxJoint@physx@@V?$ReflectionAllocator@PEAVPxJoint@physx@@@shdfnd@2@@shdfnd@physx@@IEAAPEAPEAVPxJoint@3@I@Z 000000018000f1a0 f i NpArticulationReducedCoordinate.obj
 0001:0000e240       ?createLink@?$NpArticulationTemplate@VPxArticulationReducedCoordinate@physx@@@physx@@UEAAPEAVPxArticulationLink@2@PEAV32@AEBVPxTransform@2@@Z 000000018000f240 f i NpArticulationReducedCoordinate.obj
 0001:0000e440       ?erase@?$HashBase@PEAVPxArticulationBase@physx@@PEAV12@U?$Hash@PEAVPxArticulationBase@physx@@@shdfnd@2@UGetKey@?$HashSetBase@PEAVPxArticulationBase@physx@@U?$Hash@PEAVPxArticulationBase@physx@@@shdfnd@2@VNonTrackingAllocator@42@$00@internal@42@VNonTrackingAllocator@42@$00@internal@shdfnd@physx@@QEAA_NAEBQEAVPxArticulationBase@4@@Z 000000018000f440 f i NpArticulationReducedCoordinate.obj
 0001:0000e5b0       ?getAggregate@?$NpArticulationTemplate@VPxArticulationReducedCoordinate@physx@@@physx@@UEBAPEAVPxAggregate@2@XZ 000000018000f5b0 f i NpArticulationReducedCoordinate.obj
 0001:0000e5c0       ?getConcreteTypeName@NpArticulationReducedCoordinate@physx@@UEBAPEBDXZ 000000018000f5c0 f i NpArticulationReducedCoordinate.obj
 0001:0000e5d0       ?getImpl@?$NpArticulationTemplate@VPxArticulationReducedCoordinate@physx@@@physx@@UEAAPEAVPxArticulationImpl@2@XZ 000000018000f5d0 f i NpArticulationReducedCoordinate.obj
 0001:0000e5e0       ?getImpl@?$NpArticulationTemplate@VPxArticulationReducedCoordinate@physx@@@physx@@UEBAPEBVPxArticulationImpl@2@XZ 000000018000f5e0 f i NpArticulationReducedCoordinate.obj
 0001:0000e5f0       ?getLinks@?$NpArticulationTemplate@VPxArticulationReducedCoordinate@physx@@@physx@@UEBAIPEAPEAVPxArticulationLink@2@II@Z 000000018000f5f0 f i NpArticulationReducedCoordinate.obj
 0001:0000e650       ?getName@?$NpArticulationTemplate@VPxArticulationReducedCoordinate@physx@@@physx@@UEBAPEBDXZ 000000018000f650 f i NpArticulationReducedCoordinate.obj
 0001:0000e660       ?getNbLinks@?$NpArticulationTemplate@VPxArticulationReducedCoordinate@physx@@@physx@@UEBAIXZ 000000018000f660 f i NpArticulationReducedCoordinate.obj
 0001:0000e670       ?getScene@?$NpArticulationTemplate@VPxArticulationReducedCoordinate@physx@@@physx@@UEBAPEAVPxScene@2@XZ 000000018000f670 f i NpArticulationReducedCoordinate.obj
 0001:0000e6a0       ?getSleepThreshold@?$NpArticulationTemplate@VPxArticulationReducedCoordinate@physx@@@physx@@UEBAMXZ 000000018000f6a0 f i NpArticulationReducedCoordinate.obj
 0001:0000e6c0       ?getSolverIterationCounts@?$NpArticulationTemplate@VPxArticulationReducedCoordinate@physx@@@physx@@UEBAXAEAI0@Z 000000018000f6c0 f i NpArticulationReducedCoordinate.obj
 0001:0000e710       ?getStabilizationThreshold@?$NpArticulationTemplate@VPxArticulationReducedCoordinate@physx@@@physx@@UEBAMXZ 000000018000f710 f i NpArticulationReducedCoordinate.obj
 0001:0000e730       ?getType@?$NpArticulationTemplate@VPxArticulationReducedCoordinate@physx@@@physx@@UEBA?AW4Enum@PxArticulationBase@2@XZ 000000018000f730 f i NpArticulationReducedCoordinate.obj
 0001:0000e740       ?getWakeCounter@?$NpArticulationTemplate@VPxArticulationReducedCoordinate@physx@@@physx@@UEBAMXZ 000000018000f740 f i NpArticulationReducedCoordinate.obj
 0001:0000e750       ?getWorldBounds@?$NpArticulationTemplate@VPxArticulationReducedCoordinate@physx@@@physx@@UEBA?AVPxBounds3@2@M@Z 000000018000f750 f i NpArticulationReducedCoordinate.obj
 0001:0000e930       ?growAndPushBack@?$Array@PEAVNpArticulationLink@physx@@V?$InlineAllocator@$0CA@V?$ReflectionAllocator@PEAVNpArticulationLink@physx@@@shdfnd@physx@@@shdfnd@2@@shdfnd@physx@@IEAAAEAPEAVNpArticulationLink@3@AEBQEAV43@@Z 000000018000f930 f i NpArticulationReducedCoordinate.obj
 0001:0000ea00       ?growAndPushBack@?$Array@PEAVPxJoint@physx@@V?$ReflectionAllocator@PEAVPxJoint@physx@@@shdfnd@2@@shdfnd@physx@@IEAAAEAPEAVPxJoint@3@AEBQEAV43@@Z 000000018000fa00 f i NpArticulationReducedCoordinate.obj
 0001:0000eac0       ?isKindOf@NpArticulationReducedCoordinate@physx@@UEBA_NPEBD@Z 000000018000fac0 f i NpArticulationReducedCoordinate.obj
 0001:0000eb10       ?isSleeping@?$NpArticulationTemplate@VPxArticulationReducedCoordinate@physx@@@physx@@UEBA_NXZ 000000018000fb10 f i NpArticulationReducedCoordinate.obj
 0001:0000eb20       ?putToSleep@?$NpArticulationTemplate@VPxArticulationReducedCoordinate@physx@@@physx@@UEAAXXZ 000000018000fb20 f i NpArticulationReducedCoordinate.obj
 0001:0000eb30       ?putToSleep@PxArticulationImpl@physx@@QEAAXXZ 000000018000fb30 f i NpArticulationReducedCoordinate.obj
 0001:0000ed50       ?recreate@?$Array@PEAVPxJoint@physx@@V?$ReflectionAllocator@PEAVPxJoint@physx@@@shdfnd@2@@shdfnd@physx@@IEAAXI@Z 000000018000fd50 f i NpArticulationReducedCoordinate.obj
 0001:0000edf0       ?release@?$NpArticulationTemplate@VPxArticulationReducedCoordinate@physx@@@physx@@UEAAXXZ 000000018000fdf0 f i NpArticulationReducedCoordinate.obj
 0001:0000eef0       ?setName@?$NpArticulationTemplate@VPxArticulationReducedCoordinate@physx@@@physx@@UEAAXPEBD@Z 000000018000fef0 f i NpArticulationReducedCoordinate.obj
 0001:0000ef00       ?setSleepThreshold@?$NpArticulationTemplate@VPxArticulationReducedCoordinate@physx@@@physx@@UEAAXM@Z 000000018000ff00 f i NpArticulationReducedCoordinate.obj
 0001:0000ef90       ?setSolverIterationCounts@?$NpArticulationTemplate@VPxArticulationReducedCoordinate@physx@@@physx@@UEAAXII@Z 000000018000ff90 f i NpArticulationReducedCoordinate.obj
 0001:0000f030       ?setStabilizationThreshold@?$NpArticulationTemplate@VPxArticulationReducedCoordinate@physx@@@physx@@UEAAXM@Z 0000000180010030 f i NpArticulationReducedCoordinate.obj
 0001:0000f0c0       ?setWakeCounter@?$NpArticulationTemplate@VPxArticulationReducedCoordinate@physx@@@physx@@UEAAXM@Z 00000001800100c0 f i NpArticulationReducedCoordinate.obj
 0001:0000f0d0       ?setWakeCounter@PxArticulationImpl@physx@@QEAAXM@Z 00000001800100d0 f i NpArticulationReducedCoordinate.obj
 0001:0000f2a0       ?wakeUp@?$NpArticulationTemplate@VPxArticulationReducedCoordinate@physx@@@physx@@UEAAXXZ 00000001800102a0 f i NpArticulationReducedCoordinate.obj
 0001:0000f410       ?wakeUpInternal@PxArticulationImpl@physx@@QEAAX_N0@Z 0000000180010410 f i NpArticulationReducedCoordinate.obj
 0001:0000f5a0       ?NpArticulationGetRootFromScb@physx@@YAPEAVBody@Scb@1@AEAVArticulation@31@@Z 00000001800105a0 f   NpArticulation.obj
 0001:0000f5e0       ??1NpArticulation@physx@@UEAA@XZ 00000001800105e0 f   NpArticulation.obj
 0001:0000f640       ?exportExtraData@NpArticulation@physx@@UEAAXAEAVPxSerializationContext@2@@Z 0000000180010640 f   NpArticulation.obj
 0001:0000f6b0       ?importExtraData@NpArticulation@physx@@QEAAXAEAVPxDeserializationContext@2@@Z 00000001800106b0 f   NpArticulation.obj
 0001:0000f730       ?resolveReferences@NpArticulation@physx@@QEAAXAEAVPxDeserializationContext@2@@Z 0000000180010730 f   NpArticulation.obj
 0001:0000f7d0       ?requiresObjects@NpArticulation@physx@@UEAAXAEAVPxProcessPxBaseCallback@2@@Z 00000001800107d0 f   NpArticulation.obj
 0001:0000f840       ?createObject@NpArticulation@physx@@SAPEAV12@AEAPEAEAEAVPxDeserializationContext@2@@Z 0000000180010840 f   NpArticulation.obj
 0001:0000f9b0       ?getInternalDriveIterations@NpArticulation@physx@@UEBAIXZ 00000001800109b0 f   NpArticulation.obj
 0001:0000f9d0       ?setInternalDriveIterations@NpArticulation@physx@@UEAAXI@Z 00000001800109d0 f   NpArticulation.obj
 0001:0000fa70       ?getExternalDriveIterations@NpArticulation@physx@@UEBAIXZ 0000000180010a70 f   NpArticulation.obj
 0001:0000fa90       ?setExternalDriveIterations@NpArticulation@physx@@UEAAXI@Z 0000000180010a90 f   NpArticulation.obj
 0001:0000fb30       ?getMaxProjectionIterations@NpArticulation@physx@@UEBAIXZ 0000000180010b30 f   NpArticulation.obj
 0001:0000fb50       ?setMaxProjectionIterations@NpArticulation@physx@@UEAAXI@Z 0000000180010b50 f   NpArticulation.obj
 0001:0000fbf0       ?getSeparationTolerance@NpArticulation@physx@@UEBAMXZ 0000000180010bf0 f   NpArticulation.obj
 0001:0000fc10       ?setSeparationTolerance@NpArticulation@physx@@UEAAXM@Z 0000000180010c10 f   NpArticulation.obj
 0001:0000fcb0       ?createDriveCache@NpArticulation@physx@@UEBAPEAVPxArticulationDriveCache@2@MI@Z 0000000180010cb0 f   NpArticulation.obj
 0001:0000fcc0       ?updateDriveCache@NpArticulation@physx@@UEBAXAEAVPxArticulationDriveCache@2@MI@Z 0000000180010cc0 f   NpArticulation.obj
 0001:0000fcd0       ?releaseDriveCache@NpArticulation@physx@@UEBAXAEAVPxArticulationDriveCache@2@@Z 0000000180010cd0 f   NpArticulation.obj
 0001:0000fce0       ?applyImpulse@NpArticulation@physx@@UEAAXPEAVPxArticulationLink@2@AEBVPxArticulationDriveCache@2@AEBVPxVec3@2@2@Z 0000000180010ce0 f   NpArticulation.obj
 0001:0000fe00       ?computeImpulseResponse@NpArticulation@physx@@UEBAXPEAVPxArticulationLink@2@AEAVPxVec3@2@1AEBVPxArticulationDriveCache@2@AEBV42@3@Z 0000000180010e00 f   NpArticulation.obj
 0001:0000fe20       ??0NpArticulation@physx@@QEAA@XZ 0000000180010e20 f   NpArticulation.obj
 0001:0000fee0       ?createArticulationJoint@NpArticulation@physx@@UEAAPEAVPxArticulationJointBase@2@AEAVPxArticulationLink@2@AEBVPxTransform@2@01@Z 0000000180010ee0 f   NpArticulation.obj
 0001:0000ff00       ?releaseArticulationJoint@NpArticulation@physx@@UEAAXPEAVPxArticulationJointBase@2@@Z 0000000180010f00 f   NpArticulation.obj
 0001:0000ff10       ??$exportArray@PEAVNpArticulationLink@physx@@V?$InlineAllocator@$0CA@V?$ReflectionAllocator@PEAVNpArticulationLink@physx@@@shdfnd@physx@@@shdfnd@2@@Cm@physx@@YAXAEBV?$Array@PEAVNpArticulationLink@physx@@V?$InlineAllocator@$0CA@V?$ReflectionAllocator@PEAVNpArticulationLink@physx@@@shdfnd@physx@@@shdfnd@2@@shdfnd@1@AEAVPxSerializationContext@1@@Z 0000000180010f10 f i NpArticulation.obj
 0001:0000ff40       ??$exportInlineArray@PEAVNpArticulationLink@physx@@$03V?$ReflectionAllocator@PEAVNpArticulationLink@physx@@@shdfnd@2@@Cm@physx@@YAXAEBV?$InlineArray@PEAVNpArticulationLink@physx@@$03V?$ReflectionAllocator@PEAVNpArticulationLink@physx@@@shdfnd@2@@shdfnd@1@AEAVPxSerializationContext@1@@Z 0000000180010f40 f i NpArticulation.obj
 0001:0000ff80       ??$importArray@PEAVNpArticulationLink@physx@@V?$InlineAllocator@$0CA@V?$ReflectionAllocator@PEAVNpArticulationLink@physx@@@shdfnd@physx@@@shdfnd@2@@Cm@physx@@YAXAEAV?$Array@PEAVNpArticulationLink@physx@@V?$InlineAllocator@$0CA@V?$ReflectionAllocator@PEAVNpArticulationLink@physx@@@shdfnd@physx@@@shdfnd@2@@shdfnd@1@AEAVPxDeserializationContext@1@@Z 0000000180010f80 f i NpArticulation.obj
 0001:0000ffc0       ??$importInlineArray@PEAVNpArticulationLink@physx@@$03V?$ReflectionAllocator@PEAVNpArticulationLink@physx@@@shdfnd@2@@Cm@physx@@YAXAEAV?$InlineArray@PEAVNpArticulationLink@physx@@$03V?$ReflectionAllocator@PEAVNpArticulationLink@physx@@@shdfnd@2@@shdfnd@1@AEAVPxDeserializationContext@1@@Z 0000000180010fc0 f i NpArticulation.obj
 0001:00010000       ??1?$NpArticulationTemplate@VPxArticulation@physx@@@physx@@UEAA@XZ 0000000180011000 f i NpArticulation.obj
 0001:00010040       ??1PxArticulation@physx@@MEAA@XZ 0000000180011040 f i NpArticulation.obj
 0001:00010050       ??_G?$NpArticulationTemplate@VPxArticulation@physx@@@physx@@UEAAPEAXI@Z 0000000180011050 f i NpArticulation.obj
 0001:00010050       ??_E?$NpArticulationTemplate@VPxArticulation@physx@@@physx@@UEAAPEAXI@Z 0000000180011050 f i NpArticulation.obj
 0001:000100e0       ??_ENpArticulation@physx@@UEAAPEAXI@Z 00000001800110e0 f i NpArticulation.obj
 0001:000100e0       ??_GNpArticulation@physx@@UEAAPEAXI@Z 00000001800110e0 f i NpArticulation.obj
 0001:00010180       ??_GPxArticulation@physx@@MEAAPEAXI@Z 0000000180011180 f i NpArticulation.obj
 0001:00010180       ??_EPxArticulation@physx@@MEAAPEAXI@Z 0000000180011180 f i NpArticulation.obj
 0001:000101b0       ?createLink@?$NpArticulationTemplate@VPxArticulation@physx@@@physx@@UEAAPEAVPxArticulationLink@2@PEAV32@AEBVPxTransform@2@@Z 00000001800111b0 f i NpArticulation.obj
 0001:000103b0       ?getAggregate@?$NpArticulationTemplate@VPxArticulation@physx@@@physx@@UEBAPEAVPxAggregate@2@XZ 00000001800113b0 f i NpArticulation.obj
 0001:000103c0       ?getConcreteTypeName@NpArticulation@physx@@UEBAPEBDXZ 00000001800113c0 f i NpArticulation.obj
 0001:000103d0       ?getImpl@?$NpArticulationTemplate@VPxArticulation@physx@@@physx@@UEAAPEAVPxArticulationImpl@2@XZ 00000001800113d0 f i NpArticulation.obj
 0001:000103e0       ?getImpl@?$NpArticulationTemplate@VPxArticulation@physx@@@physx@@UEBAPEBVPxArticulationImpl@2@XZ 00000001800113e0 f i NpArticulation.obj
 0001:000103f0       ?getLinks@?$NpArticulationTemplate@VPxArticulation@physx@@@physx@@UEBAIPEAPEAVPxArticulationLink@2@II@Z 00000001800113f0 f i NpArticulation.obj
 0001:00010450       ?getName@?$NpArticulationTemplate@VPxArticulation@physx@@@physx@@UEBAPEBDXZ 0000000180011450 f i NpArticulation.obj
 0001:00010460       ?getNbLinks@?$NpArticulationTemplate@VPxArticulation@physx@@@physx@@UEBAIXZ 0000000180011460 f i NpArticulation.obj
 0001:00010470       ?getScene@?$NpArticulationTemplate@VPxArticulation@physx@@@physx@@UEBAPEAVPxScene@2@XZ 0000000180011470 f i NpArticulation.obj
 0001:000104a0       ?getSleepThreshold@?$NpArticulationTemplate@VPxArticulation@physx@@@physx@@UEBAMXZ 00000001800114a0 f i NpArticulation.obj
 0001:000104c0       ?getSolverIterationCounts@?$NpArticulationTemplate@VPxArticulation@physx@@@physx@@UEBAXAEAI0@Z 00000001800114c0 f i NpArticulation.obj
 0001:00010510       ?getStabilizationThreshold@?$NpArticulationTemplate@VPxArticulation@physx@@@physx@@UEBAMXZ 0000000180011510 f i NpArticulation.obj
 0001:00010530       ?getType@?$NpArticulationTemplate@VPxArticulation@physx@@@physx@@UEBA?AW4Enum@PxArticulationBase@2@XZ 0000000180011530 f i NpArticulation.obj
 0001:00010540       ?getWakeCounter@?$NpArticulationTemplate@VPxArticulation@physx@@@physx@@UEBAMXZ 0000000180011540 f i NpArticulation.obj
 0001:00010550       ?getWorldBounds@?$NpArticulationTemplate@VPxArticulation@physx@@@physx@@UEBA?AVPxBounds3@2@M@Z 0000000180011550 f i NpArticulation.obj
 0001:00010730       ?isKindOf@NpArticulation@physx@@UEBA_NPEBD@Z 0000000180011730 f i NpArticulation.obj
 0001:00010780       ?isSleeping@?$NpArticulationTemplate@VPxArticulation@physx@@@physx@@UEBA_NXZ 0000000180011780 f i NpArticulation.obj
 0001:00010790       ?putToSleep@?$NpArticulationTemplate@VPxArticulation@physx@@@physx@@UEAAXXZ 0000000180011790 f i NpArticulation.obj
 0001:000107a0       ?release@?$NpArticulationTemplate@VPxArticulation@physx@@@physx@@UEAAXXZ 00000001800117a0 f i NpArticulation.obj
 0001:000108a0       ?setName@?$NpArticulationTemplate@VPxArticulation@physx@@@physx@@UEAAXPEBD@Z 00000001800118a0 f i NpArticulation.obj
 0001:000108b0       ?setSleepThreshold@?$NpArticulationTemplate@VPxArticulation@physx@@@physx@@UEAAXM@Z 00000001800118b0 f i NpArticulation.obj
 0001:00010940       ?setSolverIterationCounts@?$NpArticulationTemplate@VPxArticulation@physx@@@physx@@UEAAXII@Z 0000000180011940 f i NpArticulation.obj
 0001:000109e0       ?setStabilizationThreshold@?$NpArticulationTemplate@VPxArticulation@physx@@@physx@@UEAAXM@Z 00000001800119e0 f i NpArticulation.obj
 0001:00010a70       ?setWakeCounter@?$NpArticulationTemplate@VPxArticulation@physx@@@physx@@UEAAXM@Z 0000000180011a70 f i NpArticulation.obj
 0001:00010a80       ?wakeUp@?$NpArticulationTemplate@VPxArticulation@physx@@@physx@@UEAAXXZ 0000000180011a80 f i NpArticulation.obj
 0001:00010a90       ?wakeUp@PxArticulationImpl@physx@@QEAAXXZ 0000000180011a90 f i NpArticulation.obj
 0001:00010bf0       ?NpArticulationJointGetBodiesFromScb@physx@@YAXAEAVArticulationJoint@Scb@1@AEAPEAVBody@31@1@Z 0000000180011bf0 f   NpArticulationJoint.obj
 0001:00010c20       ?resolveReferences@NpArticulationJoint@physx@@UEAAXAEAVPxDeserializationContext@2@@Z 0000000180011c20 f   NpArticulationJoint.obj
 0001:00010c90       ?createObject@NpArticulationJoint@physx@@SAPEAV12@AEAPEAEAEAVPxDeserializationContext@2@@Z 0000000180011c90 f   NpArticulationJoint.obj
 0001:00010d40       ??0NpArticulationJoint@physx@@QEAA@AEAVNpArticulationLink@1@AEBVPxTransform@1@01@Z 0000000180011d40 f   NpArticulationJoint.obj
 0001:00010e10       ??1NpArticulationJoint@physx@@UEAA@XZ 0000000180011e10 f   NpArticulationJoint.obj
 0001:00010e50       ?setTargetOrientation@NpArticulationJoint@physx@@UEAAXAEBVPxQuat@2@@Z 0000000180011e50 f   NpArticulationJoint.obj
 0001:00010f00       ?getTargetOrientation@NpArticulationJoint@physx@@UEBA?AVPxQuat@2@XZ 0000000180011f00 f   NpArticulationJoint.obj
 0001:00010f40       ?setTargetVelocity@NpArticulationJoint@physx@@UEAAXAEBVPxVec3@2@@Z 0000000180011f40 f   NpArticulationJoint.obj
 0001:00010ff0       ?getTargetVelocity@NpArticulationJoint@physx@@UEBA?AVPxVec3@2@XZ 0000000180011ff0 f   NpArticulationJoint.obj
 0001:00011040       ?setDriveType@NpArticulationJoint@physx@@UEAAXW4Enum@PxArticulationJointDriveType@2@@Z 0000000180012040 f   NpArticulationJoint.obj
 0001:000110e0       ?getDriveType@NpArticulationJoint@physx@@UEBA?AW4Enum@PxArticulationJointDriveType@2@XZ 00000001800120e0 f   NpArticulationJoint.obj
 0001:00011110       ?setStiffness@NpArticulationJoint@physx@@UEAAXM@Z 0000000180012110 f   NpArticulationJoint.obj
 0001:000111b0       ?getStiffness@NpArticulationJoint@physx@@UEBAMXZ 00000001800121b0 f   NpArticulationJoint.obj
 0001:000111d0       ?setDamping@NpArticulationJoint@physx@@UEAAXM@Z 00000001800121d0 f   NpArticulationJoint.obj
 0001:00011270       ?getDamping@NpArticulationJoint@physx@@UEBAMXZ 0000000180012270 f   NpArticulationJoint.obj
 0001:00011290       ?setInternalCompliance@NpArticulationJoint@physx@@UEAAXM@Z 0000000180012290 f   NpArticulationJoint.obj
 0001:00011330       ?getInternalCompliance@NpArticulationJoint@physx@@UEBAMXZ 0000000180012330 f   NpArticulationJoint.obj
 0001:00011360       ?setExternalCompliance@NpArticulationJoint@physx@@UEAAXM@Z 0000000180012360 f   NpArticulationJoint.obj
 0001:00011400       ?getExternalCompliance@NpArticulationJoint@physx@@UEBAMXZ 0000000180012400 f   NpArticulationJoint.obj
 0001:00011430       ?setSwingLimit@NpArticulationJoint@physx@@UEAAXMM@Z 0000000180012430 f   NpArticulationJoint.obj
 0001:000114f0       ?getSwingLimit@NpArticulationJoint@physx@@UEBAXAEAM0@Z 00000001800124f0 f   NpArticulationJoint.obj
 0001:00011530       ?setTangentialStiffness@NpArticulationJoint@physx@@UEAAXM@Z 0000000180012530 f   NpArticulationJoint.obj
 0001:000115d0       ?getTangentialStiffness@NpArticulationJoint@physx@@UEBAMXZ 00000001800125d0 f   NpArticulationJoint.obj
 0001:00011600       ?setTangentialDamping@NpArticulationJoint@physx@@UEAAXM@Z 0000000180012600 f   NpArticulationJoint.obj
 0001:000116a0       ?getTangentialDamping@NpArticulationJoint@physx@@UEBAMXZ 00000001800126a0 f   NpArticulationJoint.obj
 0001:000116d0       ?setSwingLimitEnabled@NpArticulationJoint@physx@@UEAAX_N@Z 00000001800126d0 f   NpArticulationJoint.obj
 0001:00011770       ?getSwingLimitEnabled@NpArticulationJoint@physx@@UEBA_NXZ 0000000180012770 f   NpArticulationJoint.obj
 0001:00011790       ?setSwingLimitContactDistance@NpArticulationJoint@physx@@UEAAXM@Z 0000000180012790 f   NpArticulationJoint.obj
 0001:00011830       ?getSwingLimitContactDistance@NpArticulationJoint@physx@@UEBAMXZ 0000000180012830 f   NpArticulationJoint.obj
 0001:00011860       ?setTwistLimit@NpArticulationJoint@physx@@UEAAXMM@Z 0000000180012860 f   NpArticulationJoint.obj
 0001:00011920       ?getTwistLimit@NpArticulationJoint@physx@@UEBAXAEAM0@Z 0000000180012920 f   NpArticulationJoint.obj
 0001:00011960       ?setTwistLimitEnabled@NpArticulationJoint@physx@@UEAAX_N@Z 0000000180012960 f   NpArticulationJoint.obj
 0001:00011a00       ?getTwistLimitEnabled@NpArticulationJoint@physx@@UEBA_NXZ 0000000180012a00 f   NpArticulationJoint.obj
 0001:00011a30       ?setTwistLimitContactDistance@NpArticulationJoint@physx@@UEAAXM@Z 0000000180012a30 f   NpArticulationJoint.obj
 0001:00011ad0       ?getTwistLimitContactDistance@NpArticulationJoint@physx@@UEBAMXZ 0000000180012ad0 f   NpArticulationJoint.obj
 0001:00011b00       ?setJointType@NpArticulationJoint@physx@@UEAAXW4Enum@PxArticulationJointType@2@@Z 0000000180012b00 f   NpArticulationJoint.obj
 0001:00011ba0       ?getJointType@NpArticulationJoint@physx@@UEBA?AW4Enum@PxArticulationJointType@2@XZ 0000000180012ba0 f   NpArticulationJoint.obj
 0001:00011bd0       ?setMotion@NpArticulationJoint@physx@@UEAAXW4Enum@PxArticulationAxis@2@W43PxArticulationMotion@2@@Z 0000000180012bd0 f   NpArticulationJoint.obj
 0001:00011cf0       ?getMotion@NpArticulationJoint@physx@@UEBA?AW4Enum@PxArticulationMotion@2@W43PxArticulationAxis@2@@Z 0000000180012cf0 f   NpArticulationJoint.obj
 0001:00011d20       ?setFrictionCoefficient@NpArticulationJoint@physx@@UEAAXM@Z 0000000180012d20 f   NpArticulationJoint.obj
 0001:00011dc0       ?getFrictionCoefficient@NpArticulationJoint@physx@@UEBAMXZ 0000000180012dc0 f   NpArticulationJoint.obj
 0001:00011de0       ??0?$NpArticulationJointTemplate@VPxArticulationJoint@physx@@@physx@@QEAA@AEAVNpArticulationLink@1@AEBVPxTransform@1@01W4Enum@PxArticulationBase@1@@Z 0000000180012de0 f i NpArticulationJoint.obj
 0001:00011ea0       ??0?$PxFlags@W4Enum@PxArticulationMotion@physx@@E@physx@@QEAA@XZ 0000000180012ea0 f i NpArticulationJoint.obj
 0001:00011eb0       ??1?$NpArticulationJointTemplate@VPxArticulationJoint@physx@@@physx@@UEAA@XZ 0000000180012eb0 f i NpArticulationJoint.obj
 0001:00011ee0       ??1PxArticulationJoint@physx@@MEAA@XZ 0000000180012ee0 f i NpArticulationJoint.obj
 0001:00011ef0       ??1PxArticulationJointBase@physx@@UEAA@XZ 0000000180012ef0 f i NpArticulationJoint.obj
 0001:00011f00       ??DPxQuat@physx@@QEBA?AV01@AEBV01@@Z 0000000180012f00 f i NpArticulationJoint.obj
 0001:00012040       ??_E?$NpArticulationJointTemplate@VPxArticulationJoint@physx@@@physx@@UEAAPEAXI@Z 0000000180013040 f i NpArticulationJoint.obj
 0001:00012040       ??_G?$NpArticulationJointTemplate@VPxArticulationJoint@physx@@@physx@@UEAAPEAXI@Z 0000000180013040 f i NpArticulationJoint.obj
 0001:000120c0       ??_GNpArticulationJoint@physx@@UEAAPEAXI@Z 00000001800130c0 f i NpArticulationJoint.obj
 0001:000120c0       ??_ENpArticulationJoint@physx@@UEAAPEAXI@Z 00000001800130c0 f i NpArticulationJoint.obj
 0001:00012140       ??_GPxArticulationJoint@physx@@MEAAPEAXI@Z 0000000180013140 f i NpArticulationJoint.obj
 0001:00012140       ??_EPxArticulationJoint@physx@@MEAAPEAXI@Z 0000000180013140 f i NpArticulationJoint.obj
 0001:00012170       ??_EPxArticulationJointBase@physx@@UEAAPEAXI@Z 0000000180013170 f i NpArticulationJoint.obj
 0001:00012170       ??_GPxArticulationJointBase@physx@@UEAAPEAXI@Z 0000000180013170 f i NpArticulationJoint.obj
 0001:000121a0       ?getChildArticulationLink@?$NpArticulationJointTemplate@VPxArticulationJoint@physx@@@physx@@UEBAAEAVPxArticulationLink@2@XZ 00000001800131a0 f i NpArticulationJoint.obj
 0001:000121b0       ?getChildPose@?$NpArticulationJointTemplate@VPxArticulationJoint@physx@@@physx@@UEBA?AVPxTransform@2@XZ 00000001800131b0 f i NpArticulationJoint.obj
 0001:000121d0       ?getChildPose@PxArticulationJointImpl@physx@@QEBA?AVPxTransform@2@XZ 00000001800131d0 f i NpArticulationJoint.obj
 0001:000123c0       ?getConcreteTypeName@PxArticulationJoint@physx@@UEBAPEBDXZ 00000001800133c0 f i NpArticulationJoint.obj
 0001:000123d0       ?getImpl@?$NpArticulationJointTemplate@VPxArticulationJoint@physx@@@physx@@UEAAPEAVPxArticulationJointImpl@2@XZ 00000001800133d0 f i NpArticulationJoint.obj
 0001:000123e0       ?getImpl@?$NpArticulationJointTemplate@VPxArticulationJoint@physx@@@physx@@UEBAPEBVPxArticulationJointImpl@2@XZ 00000001800133e0 f i NpArticulationJoint.obj
 0001:000123f0       ?getParentArticulationLink@?$NpArticulationJointTemplate@VPxArticulationJoint@physx@@@physx@@UEBAAEAVPxArticulationLink@2@XZ 00000001800133f0 f i NpArticulationJoint.obj
 0001:00012400       ?getParentPose@?$NpArticulationJointTemplate@VPxArticulationJoint@physx@@@physx@@UEBA?AVPxTransform@2@XZ 0000000180013400 f i NpArticulationJoint.obj
 0001:00012440       ?isKindOf@PxArticulationJoint@physx@@MEBA_NPEBD@Z 0000000180013440 f i NpArticulationJoint.obj
 0001:000124b0       ?isKindOf@PxArticulationJointBase@physx@@MEBA_NPEBD@Z 00000001800134b0 f i NpArticulationJoint.obj
 0001:00012500       ?isSubordinate@NpArticulationJoint@physx@@UEBA_NXZ 0000000180013500 f i NpArticulationJoint.obj
 0001:00012510       ?release@?$NpArticulationJointTemplate@VPxArticulationJoint@physx@@@physx@@UEAAXXZ 0000000180013510 f i NpArticulationJoint.obj
 0001:00012570       ?requiresObjects@NpArticulationJoint@physx@@UEAAXAEAVPxProcessPxBaseCallback@2@@Z 0000000180013570 f i NpArticulationJoint.obj
 0001:00012580       ?resolveReferences@PxArticulationJointImpl@physx@@QEAAXAEAVPxDeserializationContext@2@@Z 0000000180013580 f i NpArticulationJoint.obj
 0001:000125e0       ?setChildPose@?$NpArticulationJointTemplate@VPxArticulationJoint@physx@@@physx@@UEAAXAEBVPxTransform@2@@Z 00000001800135e0 f i NpArticulationJoint.obj
 0001:000125f0       ?setChildPose@PxArticulationJointImpl@physx@@QEAAXAEBVPxTransform@2@@Z 00000001800135f0 f i NpArticulationJoint.obj
 0001:00012950       ?setParentPose@?$NpArticulationJointTemplate@VPxArticulationJoint@physx@@@physx@@UEAAXAEBVPxTransform@2@@Z 0000000180013950 f i NpArticulationJoint.obj
 0001:00012960       ?setParentPose@PxArticulationJointImpl@physx@@QEAAXAEBVPxTransform@2@@Z 0000000180013960 f i NpArticulationJoint.obj
 0001:00012d00       ?createObject@NpArticulationJointReducedCoordinate@physx@@SAPEAV12@AEAPEAEAEAVPxDeserializationContext@2@@Z 0000000180013d00 f   NpArticulationJointReducedCoordinate.obj
 0001:00012db0       ?getBinaryMetaData@NpArticulationJointReducedCoordinate@physx@@SAXAEAVPxOutputStream@2@@Z 0000000180013db0 f   NpArticulationJointReducedCoordinate.obj
 0001:00012e90       ??0NpArticulationJointReducedCoordinate@physx@@QEAA@AEAVNpArticulationLink@1@AEBVPxTransform@1@01@Z 0000000180013e90 f   NpArticulationJointReducedCoordinate.obj
 0001:00012f50       ??1NpArticulationJointReducedCoordinate@physx@@UEAA@XZ 0000000180013f50 f   NpArticulationJointReducedCoordinate.obj
 0001:00012f90       ?setJointType@NpArticulationJointReducedCoordinate@physx@@UEAAXW4Enum@PxArticulationJointType@2@@Z 0000000180013f90 f   NpArticulationJointReducedCoordinate.obj
 0001:00013030       ?getJointType@NpArticulationJointReducedCoordinate@physx@@UEBA?AW4Enum@PxArticulationJointType@2@XZ 0000000180014030 f   NpArticulationJointReducedCoordinate.obj
 0001:00013060       ?setMotion@NpArticulationJointReducedCoordinate@physx@@UEAAXW4Enum@PxArticulationAxis@2@W43PxArticulationMotion@2@@Z 0000000180014060 f   NpArticulationJointReducedCoordinate.obj
 0001:00013180       ?getMotion@NpArticulationJointReducedCoordinate@physx@@UEBA?AW4Enum@PxArticulationMotion@2@W43PxArticulationAxis@2@@Z 0000000180014180 f   NpArticulationJointReducedCoordinate.obj
 0001:000131b0       ?setFrictionCoefficient@NpArticulationJointReducedCoordinate@physx@@UEAAXM@Z 00000001800141b0 f   NpArticulationJointReducedCoordinate.obj
 0001:00013250       ?getFrictionCoefficient@NpArticulationJointReducedCoordinate@physx@@UEBAMXZ 0000000180014250 f   NpArticulationJointReducedCoordinate.obj
 0001:00013270       ?setMaxJointVelocity@NpArticulationJointReducedCoordinate@physx@@UEAAXM@Z 0000000180014270 f   NpArticulationJointReducedCoordinate.obj
 0001:00013310       ?getMaxJointVelocity@NpArticulationJointReducedCoordinate@physx@@UEBAMXZ 0000000180014310 f   NpArticulationJointReducedCoordinate.obj
 0001:00013330       ?setLimit@NpArticulationJointReducedCoordinate@physx@@UEAAXW4Enum@PxArticulationAxis@2@MM@Z 0000000180014330 f   NpArticulationJointReducedCoordinate.obj
 0001:000134c0       ?getLimit@NpArticulationJointReducedCoordinate@physx@@UEAAXW4Enum@PxArticulationAxis@2@AEAM1@Z 00000001800144c0 f   NpArticulationJointReducedCoordinate.obj
 0001:00013510       ?setDrive@NpArticulationJointReducedCoordinate@physx@@UEAAXW4Enum@PxArticulationAxis@2@MMM_N@Z 0000000180014510 f   NpArticulationJointReducedCoordinate.obj
 0001:00013530       ?getDrive@NpArticulationJointReducedCoordinate@physx@@UEAAXW4Enum@PxArticulationAxis@2@AEAM11AEA_N@Z 0000000180014530 f   NpArticulationJointReducedCoordinate.obj
 0001:000135d0       ?setDriveTarget@NpArticulationJointReducedCoordinate@physx@@UEAAXW4Enum@PxArticulationAxis@2@M@Z 00000001800145d0 f   NpArticulationJointReducedCoordinate.obj
 0001:00013750       ?setDriveVelocity@NpArticulationJointReducedCoordinate@physx@@UEAAXW4Enum@PxArticulationAxis@2@M@Z 0000000180014750 f   NpArticulationJointReducedCoordinate.obj
 0001:000138d0       ?getDriveTarget@NpArticulationJointReducedCoordinate@physx@@UEAAMW4Enum@PxArticulationAxis@2@@Z 00000001800148d0 f   NpArticulationJointReducedCoordinate.obj
 0001:00013900       ?getDriveVelocity@NpArticulationJointReducedCoordinate@physx@@UEAAMW4Enum@PxArticulationAxis@2@@Z 0000000180014900 f   NpArticulationJointReducedCoordinate.obj
 0001:00013930       ??0?$NpArticulationJointTemplate@VPxArticulationJointReducedCoordinate@physx@@@physx@@QEAA@AEAVNpArticulationLink@1@AEBVPxTransform@1@01W4Enum@PxArticulationBase@1@@Z 0000000180014930 f i NpArticulationJointReducedCoordinate.obj
 0001:000139f0       ??1?$NpArticulationJointTemplate@VPxArticulationJointReducedCoordinate@physx@@@physx@@UEAA@XZ 00000001800149f0 f i NpArticulationJointReducedCoordinate.obj
 0001:00013a20       ??1PxArticulationJointReducedCoordinate@physx@@MEAA@XZ 0000000180014a20 f i NpArticulationJointReducedCoordinate.obj
 0001:00013a30       ??_G?$NpArticulationJointTemplate@VPxArticulationJointReducedCoordinate@physx@@@physx@@UEAAPEAXI@Z 0000000180014a30 f i NpArticulationJointReducedCoordinate.obj
 0001:00013a30       ??_E?$NpArticulationJointTemplate@VPxArticulationJointReducedCoordinate@physx@@@physx@@UEAAPEAXI@Z 0000000180014a30 f i NpArticulationJointReducedCoordinate.obj
 0001:00013ab0       ??_GNpArticulationJointReducedCoordinate@physx@@UEAAPEAXI@Z 0000000180014ab0 f i NpArticulationJointReducedCoordinate.obj
 0001:00013ab0       ??_ENpArticulationJointReducedCoordinate@physx@@UEAAPEAXI@Z 0000000180014ab0 f i NpArticulationJointReducedCoordinate.obj
 0001:00013b30       ??_GPxArticulationJointReducedCoordinate@physx@@MEAAPEAXI@Z 0000000180014b30 f i NpArticulationJointReducedCoordinate.obj
 0001:00013b30       ??_EPxArticulationJointReducedCoordinate@physx@@MEAAPEAXI@Z 0000000180014b30 f i NpArticulationJointReducedCoordinate.obj
 0001:00013b60       ?getChildArticulationLink@?$NpArticulationJointTemplate@VPxArticulationJointReducedCoordinate@physx@@@physx@@UEBAAEAVPxArticulationLink@2@XZ 0000000180014b60 f i NpArticulationJointReducedCoordinate.obj
 0001:00013b70       ?getChildPose@?$NpArticulationJointTemplate@VPxArticulationJointReducedCoordinate@physx@@@physx@@UEBA?AVPxTransform@2@XZ 0000000180014b70 f i NpArticulationJointReducedCoordinate.obj
 0001:00013b90       ?getConcreteTypeName@PxArticulationJointReducedCoordinate@physx@@UEBAPEBDXZ 0000000180014b90 f i NpArticulationJointReducedCoordinate.obj
 0001:00013ba0       ?getImpl@?$NpArticulationJointTemplate@VPxArticulationJointReducedCoordinate@physx@@@physx@@UEAAPEAVPxArticulationJointImpl@2@XZ 0000000180014ba0 f i NpArticulationJointReducedCoordinate.obj
 0001:00013bb0       ?getImpl@?$NpArticulationJointTemplate@VPxArticulationJointReducedCoordinate@physx@@@physx@@UEBAPEBVPxArticulationJointImpl@2@XZ 0000000180014bb0 f i NpArticulationJointReducedCoordinate.obj
 0001:00013bc0       ?getParentArticulationLink@?$NpArticulationJointTemplate@VPxArticulationJointReducedCoordinate@physx@@@physx@@UEBAAEAVPxArticulationLink@2@XZ 0000000180014bc0 f i NpArticulationJointReducedCoordinate.obj
 0001:00013bd0       ?getParentPose@?$NpArticulationJointTemplate@VPxArticulationJointReducedCoordinate@physx@@@physx@@UEBA?AVPxTransform@2@XZ 0000000180014bd0 f i NpArticulationJointReducedCoordinate.obj
 0001:00013c10       ?isKindOf@PxArticulationJointReducedCoordinate@physx@@MEBA_NPEBD@Z 0000000180014c10 f i NpArticulationJointReducedCoordinate.obj
 0001:00013c60       ?isSubordinate@NpArticulationJointReducedCoordinate@physx@@UEBA_NXZ 0000000180014c60 f i NpArticulationJointReducedCoordinate.obj
 0001:00013c70       ?release@?$NpArticulationJointTemplate@VPxArticulationJointReducedCoordinate@physx@@@physx@@UEAAXXZ 0000000180014c70 f i NpArticulationJointReducedCoordinate.obj
 0001:00013cd0       ?requiresObjects@NpArticulationJointReducedCoordinate@physx@@UEAAXAEAVPxProcessPxBaseCallback@2@@Z 0000000180014cd0 f i NpArticulationJointReducedCoordinate.obj
 0001:00013ce0       ?resolveReferences@NpArticulationJointReducedCoordinate@physx@@UEAAXAEAVPxDeserializationContext@2@@Z 0000000180014ce0 f i NpArticulationJointReducedCoordinate.obj
 0001:00013d40       ?setChildPose@?$NpArticulationJointTemplate@VPxArticulationJointReducedCoordinate@physx@@@physx@@UEAAXAEBVPxTransform@2@@Z 0000000180014d40 f i NpArticulationJointReducedCoordinate.obj
 0001:00013d50       ?setDrive@ArticulationJoint@Scb@physx@@QEAAXW4Enum@PxArticulationAxis@3@MMM_N@Z 0000000180014d50 f i NpArticulationJointReducedCoordinate.obj
 0001:00014010       ?setParentPose@?$NpArticulationJointTemplate@VPxArticulationJointReducedCoordinate@physx@@@physx@@UEAAXAEBVPxTransform@2@@Z 0000000180015010 f i NpArticulationJointReducedCoordinate.obj
 0001:00014020       ?exportExtraData@NpArticulationLink@physx@@UEAAXAEAVPxSerializationContext@2@@Z 0000000180015020 f   NpArticulationLink.obj
 0001:000140a0       ?importExtraData@NpArticulationLink@physx@@QEAAXAEAVPxDeserializationContext@2@@Z 00000001800150a0 f   NpArticulationLink.obj
 0001:00014120       ?resolveReferences@NpArticulationLink@physx@@UEAAXAEAVPxDeserializationContext@2@@Z 0000000180015120 f   NpArticulationLink.obj
 0001:00014260       ?requiresObjects@NpArticulationLink@physx@@UEAAXAEAVPxProcessPxBaseCallback@2@@Z 0000000180015260 f   NpArticulationLink.obj
 0001:00014300       ?createObject@NpArticulationLink@physx@@SAPEAV12@AEAPEAEAEAVPxDeserializationContext@2@@Z 0000000180015300 f   NpArticulationLink.obj
 0001:00014450       ??1NpArticulationLink@physx@@UEAA@XZ 0000000180015450 f   NpArticulationLink.obj
 0001:00014510       ?release@NpArticulationLink@physx@@UEAAXXZ 0000000180015510 f   NpArticulationLink.obj
 0001:000145c0       ?setGlobalPose@NpArticulationLink@physx@@UEAAXAEBVPxTransform@2@@Z 00000001800155c0 f   NpArticulationLink.obj
 0001:000145e0       ?setGlobalPose@NpArticulationLink@physx@@UEAAXAEBVPxTransform@2@_N@Z 00000001800155e0 f   NpArticulationLink.obj
 0001:000145f0       ?getGlobalPose@NpArticulationLink@physx@@UEBA?AVPxTransform@2@XZ 00000001800155f0 f   NpArticulationLink.obj
 0001:00014900       ?setLinearDamping@NpArticulationLink@physx@@UEAAXM@Z 0000000180015900 f   NpArticulationLink.obj
 0001:00014990       ?getLinearDamping@NpArticulationLink@physx@@UEBAMXZ 0000000180015990 f   NpArticulationLink.obj
 0001:000149c0       ?setAngularDamping@NpArticulationLink@physx@@UEAAXM@Z 00000001800159c0 f   NpArticulationLink.obj
 0001:00014a50       ?getAngularDamping@NpArticulationLink@physx@@UEBAMXZ 0000000180015a50 f   NpArticulationLink.obj
 0001:00014a80       ?setLinearVelocity@NpArticulationLink@physx@@UEAAXAEBVPxVec3@2@_N@Z 0000000180015a80 f   NpArticulationLink.obj
 0001:00014b10       ?setAngularVelocity@NpArticulationLink@physx@@UEAAXAEBVPxVec3@2@_N@Z 0000000180015b10 f   NpArticulationLink.obj
 0001:00014ba0       ?setMaxAngularVelocity@NpArticulationLink@physx@@UEAAXM@Z 0000000180015ba0 f   NpArticulationLink.obj
 0001:00014c30       ?getMaxAngularVelocity@NpArticulationLink@physx@@UEBAMXZ 0000000180015c30 f   NpArticulationLink.obj
 0001:00014c70       ?setMaxLinearVelocity@NpArticulationLink@physx@@UEAAXM@Z 0000000180015c70 f   NpArticulationLink.obj
 0001:00014d00       ?getMaxLinearVelocity@NpArticulationLink@physx@@UEBAMXZ 0000000180015d00 f   NpArticulationLink.obj
 0001:00014d40       ?getArticulation@NpArticulationLink@physx@@UEBAAEAVPxArticulationBase@2@XZ 0000000180015d40 f   NpArticulationLink.obj
 0001:00014d50       ?getArticulationReducedCoordinate@NpArticulationLink@physx@@UEBAAEAVPxArticulationReducedCoordinate@2@XZ 0000000180015d50 f   NpArticulationLink.obj
 0001:00014d60       ?getInboundJoint@NpArticulationLink@physx@@UEBAPEAVPxArticulationJointBase@2@XZ 0000000180015d60 f   NpArticulationLink.obj
 0001:00014d70       ?getInboundJointDof@NpArticulationLink@physx@@UEBAIXZ 0000000180015d70 f   NpArticulationLink.obj
 0001:00014d80       ?getNbChildren@NpArticulationLink@physx@@UEBAIXZ 0000000180015d80 f   NpArticulationLink.obj
 0001:00014d90       ?getChildren@NpArticulationLink@physx@@UEBAIPEAPEAVPxArticulationLink@2@II@Z 0000000180015d90 f   NpArticulationLink.obj
 0001:00014df0       ?getLinkIndex@NpArticulationLink@physx@@UEBAIXZ 0000000180015df0 f   NpArticulationLink.obj
 0001:00014e00       ?setCMassLocalPose@NpArticulationLink@physx@@UEAAXAEBVPxTransform@2@@Z 0000000180015e00 f   NpArticulationLink.obj
 0001:00015560       ?addForce@NpArticulationLink@physx@@UEAAXAEBVPxVec3@2@W4Enum@PxForceMode@2@_N@Z 0000000180016560 f   NpArticulationLink.obj
 0001:000155f0       ?addTorque@NpArticulationLink@physx@@UEAAXAEBVPxVec3@2@W4Enum@PxForceMode@2@_N@Z 00000001800165f0 f   NpArticulationLink.obj
 0001:00015680       ?setForceAndTorque@NpArticulationLink@physx@@UEAAXAEBVPxVec3@2@0W4Enum@PxForceMode@2@@Z 0000000180016680 f   NpArticulationLink.obj
 0001:00015710       ?clearForce@NpArticulationLink@physx@@UEAAXW4Enum@PxForceMode@2@@Z 0000000180016710 f   NpArticulationLink.obj
 0001:00015750       ?clearTorque@NpArticulationLink@physx@@UEAAXW4Enum@PxForceMode@2@@Z 0000000180016750 f   NpArticulationLink.obj
 0001:00015790       ??0NpArticulationLink@physx@@QEAA@AEBVPxTransform@1@AEAVPxArticulationBase@1@PEAV01@@Z 0000000180016790 f   NpArticulationLink.obj
 0001:00015990       ?releaseInternal@NpArticulationLink@physx@@QEAAXXZ 0000000180016990 f   NpArticulationLink.obj
 0001:00015b20       ?setGlobalPoseInternal@NpArticulationLink@physx@@QEAAXAEBVPxTransform@2@_N@Z 0000000180016b20 f   NpArticulationLink.obj
 0001:00015f80       ?visualize@NpArticulationLink@physx@@QEAAXAEAVRenderOutput@Cm@2@PEAVNpScene@2@@Z 0000000180016f80 f   NpArticulationLink.obj
 0001:000162a0       ?visualizeJoint@NpArticulationLink@physx@@QEAAXAEAVPxConstraintVisualizer@2@@Z 00000001800172a0 f   NpArticulationLink.obj
 0001:000173d0       ??0?$NpActorTemplate@VPxArticulationLink@physx@@@physx@@QEAA@GV?$PxFlags@W4Enum@PxBaseFlag@physx@@G@1@PEBDPEAX@Z 00000001800183d0 f i NpArticulationLink.obj
 0001:00017420       ??0?$NpRigidActorTemplate@VPxArticulationLink@physx@@@physx@@QEAA@GV?$PxFlags@W4Enum@PxBaseFlag@physx@@G@1@@Z 0000000180018420 f i NpArticulationLink.obj
 0001:00017480       ??0?$NpRigidBodyTemplate@VPxArticulationLink@physx@@@physx@@QEAA@GV?$PxFlags@W4Enum@PxBaseFlag@physx@@G@1@W4Enum@PxActorType@1@AEBVPxTransform@1@@Z 0000000180018480 f i NpArticulationLink.obj
 0001:000175e0       ??1?$NpActorTemplate@VPxArticulationLink@physx@@@physx@@UEAA@XZ 00000001800185e0 f i NpArticulationLink.obj
 0001:00017620       ??1?$NpRigidActorTemplate@VPxArticulationLink@physx@@@physx@@UEAA@XZ 0000000180018620 f i NpArticulationLink.obj
 0001:00017670       ??1?$NpRigidBodyTemplate@VPxArticulationLink@physx@@@physx@@UEAA@XZ 0000000180018670 f i NpArticulationLink.obj
 0001:000176d0       ??1PxActor@physx@@MEAA@XZ  00000001800186d0 f i NpArticulationLink.obj
 0001:000176e0       ??1PxArticulationLink@physx@@MEAA@XZ 00000001800186e0 f i NpArticulationLink.obj
 0001:000176f0       ??1PxConstraintVisualizer@physx@@MEAA@XZ 00000001800186f0 f i NpArticulationLink.obj
 0001:00017700       ??1PxRigidActor@physx@@MEAA@XZ 0000000180018700 f i NpArticulationLink.obj
 0001:00017710       ??1PxRigidBody@physx@@MEAA@XZ 0000000180018710 f i NpArticulationLink.obj
 0001:00017720       ??_G?$NpActorTemplate@VPxArticulationLink@physx@@@physx@@UEAAPEAXI@Z 0000000180018720 f i NpArticulationLink.obj
 0001:00017720       ??_E?$NpActorTemplate@VPxArticulationLink@physx@@@physx@@UEAAPEAXI@Z 0000000180018720 f i NpArticulationLink.obj
 0001:000177a0       ??_G?$NpRigidActorTemplate@VPxArticulationLink@physx@@@physx@@UEAAPEAXI@Z 00000001800187a0 f i NpArticulationLink.obj
 0001:000177a0       ??_E?$NpRigidActorTemplate@VPxArticulationLink@physx@@@physx@@UEAAPEAXI@Z 00000001800187a0 f i NpArticulationLink.obj
 0001:00017830       ??_E?$NpRigidBodyTemplate@VPxArticulationLink@physx@@@physx@@UEAAPEAXI@Z 0000000180018830 f i NpArticulationLink.obj
 0001:00017830       ??_G?$NpRigidBodyTemplate@VPxArticulationLink@physx@@@physx@@UEAAPEAXI@Z 0000000180018830 f i NpArticulationLink.obj
 0001:000178e0       ??_EConstraintImmediateVisualizer@Cm@physx@@UEAAPEAXI@Z 00000001800188e0 f i NpArticulationLink.obj
 0001:000178e0       ??_GConstraintImmediateVisualizer@Cm@physx@@UEAAPEAXI@Z 00000001800188e0 f i NpArticulationLink.obj
 0001:00017910       ??_ENpArticulationLink@physx@@UEAAPEAXI@Z 0000000180018910 f i NpArticulationLink.obj
 0001:00017910       ??_GNpArticulationLink@physx@@UEAAPEAXI@Z 0000000180018910 f i NpArticulationLink.obj
 0001:00017a10       ??_EPxActor@physx@@MEAAPEAXI@Z 0000000180018a10 f i NpArticulationLink.obj
 0001:00017a10       ??_GPxActor@physx@@MEAAPEAXI@Z 0000000180018a10 f i NpArticulationLink.obj
 0001:00017a40       ??_GPxArticulationLink@physx@@MEAAPEAXI@Z 0000000180018a40 f i NpArticulationLink.obj
 0001:00017a40       ??_EPxArticulationLink@physx@@MEAAPEAXI@Z 0000000180018a40 f i NpArticulationLink.obj
 0001:00017a70       ??_EPxConstraintVisualizer@physx@@MEAAPEAXI@Z 0000000180018a70 f i NpArticulationLink.obj
 0001:00017a70       ??_GPxConstraintVisualizer@physx@@MEAAPEAXI@Z 0000000180018a70 f i NpArticulationLink.obj
 0001:00017aa0       ??_GPxRigidActor@physx@@MEAAPEAXI@Z 0000000180018aa0 f i NpArticulationLink.obj
 0001:00017aa0       ??_EPxRigidActor@physx@@MEAAPEAXI@Z 0000000180018aa0 f i NpArticulationLink.obj
 0001:00017ad0       ??_EPxRigidBody@physx@@MEAAPEAXI@Z 0000000180018ad0 f i NpArticulationLink.obj
 0001:00017ad0       ??_GPxRigidBody@physx@@MEAAPEAXI@Z 0000000180018ad0 f i NpArticulationLink.obj
 0001:00017b00       ?addSpatialAcceleration@Body@Scb@physx@@QEAAXPEBVPxVec3@3@0@Z 0000000180018b00 f i NpArticulationLink.obj
 0001:00017c40       ?addSpatialForce@?$NpRigidBodyTemplate@VPxArticulationLink@physx@@@physx@@IEAAXPEBVPxVec3@2@0W4Enum@PxForceMode@2@@Z 0000000180018c40 f i NpArticulationLink.obj
 0001:00017ea0       ?addSpatialVelocity@Body@Scb@physx@@QEAAXPEBVPxVec3@3@0@Z 0000000180018ea0 f i NpArticulationLink.obj
 0001:00017fe0       ?allocate@?$Array@UPxDebugLine@physx@@V?$ReflectionAllocator@UPxDebugLine@physx@@@shdfnd@2@@shdfnd@physx@@IEAAPEAUPxDebugLine@3@I@Z 0000000180018fe0 f i NpArticulationLink.obj
 0001:00018080       ?attachShape@?$NpRigidActorTemplate@VPxArticulationLink@physx@@@physx@@UEAA_NAEAVPxShape@2@@Z 0000000180019080 f i NpArticulationLink.obj
 0001:00018120       ?attachShape@?$NpRigidBodyTemplate@VPxArticulationLink@physx@@@physx@@UEAA_NAEAVPxShape@2@@Z 0000000180019120 f i NpArticulationLink.obj
 0001:000181c0       ?clearSpatialForce@?$NpRigidBodyTemplate@VPxArticulationLink@physx@@@physx@@IEAAXW4Enum@PxForceMode@2@_N1@Z 00000001800191c0 f i NpArticulationLink.obj
 0001:00018360       ?copy@?$Array@UPxDebugLine@physx@@V?$ReflectionAllocator@UPxDebugLine@physx@@@shdfnd@2@@shdfnd@physx@@KAXPEAUPxDebugLine@3@0PEBU43@@Z 0000000180019360 f i NpArticulationLink.obj
 0001:00018510       ?detachShape@?$NpRigidActorTemplate@VPxArticulationLink@physx@@@physx@@UEAAXAEAVPxShape@2@_N@Z 0000000180019510 f i NpArticulationLink.obj
 0001:000185c0       ?exportExtraData@?$NpActorTemplate@VPxArticulationLink@physx@@@physx@@UEAAXAEAVPxSerializationContext@2@@Z 00000001800195c0 f i NpArticulationLink.obj
 0001:000185d0       ?exportExtraData@?$NpRigidActorTemplate@VPxArticulationLink@physx@@@physx@@UEAAXAEAVPxSerializationContext@2@@Z 00000001800195d0 f i NpArticulationLink.obj
 0001:00018600       ?getActorFlags@?$NpActorTemplate@VPxArticulationLink@physx@@@physx@@UEBA?AV?$PxFlags@W4Enum@PxActorFlag@physx@@E@2@XZ 0000000180019600 f i NpArticulationLink.obj
 0001:00018650       ?getAggregate@?$NpActorTemplate@VPxArticulationLink@physx@@@physx@@UEBAPEAVPxAggregate@2@XZ 0000000180019650 f i NpArticulationLink.obj
 0001:00018660       ?getAngularVelocity@?$NpRigidBodyTemplate@VPxArticulationLink@physx@@@physx@@UEBA?AVPxVec3@2@XZ 0000000180019660 f i NpArticulationLink.obj
 0001:00018680       ?getCMassLocalPose@?$NpRigidBodyTemplate@VPxArticulationLink@physx@@@physx@@UEBA?AVPxTransform@2@XZ 0000000180019680 f i NpArticulationLink.obj
 0001:000186d0       ?getConcreteTypeName@PxArticulationLink@physx@@UEBAPEBDXZ 00000001800196d0 f i NpArticulationLink.obj
 0001:000186e0       ?getConstraints@?$NpRigidActorTemplate@VPxArticulationLink@physx@@@physx@@UEBAIPEAPEAVPxConstraint@2@II@Z 00000001800196e0 f i NpArticulationLink.obj
 0001:00018760       ?getDominanceGroup@?$NpActorTemplate@VPxArticulationLink@physx@@@physx@@UEBAEXZ 0000000180019760 f i NpArticulationLink.obj
 0001:000187a0       ?getGlobalInertiaTensorInverse@Body@Scb@physx@@QEBA?AVPxMat33@3@XZ 00000001800197a0 f i NpArticulationLink.obj
 0001:00018a30       ?getInternalIslandNodeIndex@?$NpRigidBodyTemplate@VPxArticulationLink@physx@@@physx@@UEBAIXZ 0000000180019a30 f i NpArticulationLink.obj
 0001:00018a40       ?getInvMass@?$NpRigidBodyTemplate@VPxArticulationLink@physx@@@physx@@UEBAMXZ 0000000180019a40 f i NpArticulationLink.obj
 0001:00018a60       ?getLinearVelocity@?$NpRigidBodyTemplate@VPxArticulationLink@physx@@@physx@@UEBA?AVPxVec3@2@XZ 0000000180019a60 f i NpArticulationLink.obj
 0001:00018a80       ?getMass@?$NpRigidBodyTemplate@VPxArticulationLink@physx@@@physx@@UEBAMXZ 0000000180019a80 f i NpArticulationLink.obj
 0001:00018ac0       ?getMassSpaceInertiaTensor@?$NpRigidBodyTemplate@VPxArticulationLink@physx@@@physx@@UEBA?AVPxVec3@2@XZ 0000000180019ac0 f i NpArticulationLink.obj
 0001:00018b50       ?getMassSpaceInvInertiaTensor@?$NpRigidBodyTemplate@VPxArticulationLink@physx@@@physx@@UEBA?AVPxVec3@2@XZ 0000000180019b50 f i NpArticulationLink.obj
 0001:00018b90       ?getMaxContactImpulse@?$NpRigidBodyTemplate@VPxArticulationLink@physx@@@physx@@UEBAMXZ 0000000180019b90 f i NpArticulationLink.obj
 0001:00018bc0       ?getMaxDepenetrationVelocity@?$NpRigidBodyTemplate@VPxArticulationLink@physx@@@physx@@UEBAMXZ 0000000180019bc0 f i NpArticulationLink.obj
 0001:00018bf0       ?getMinCCDAdvanceCoefficient@?$NpRigidBodyTemplate@VPxArticulationLink@physx@@@physx@@UEBAMXZ 0000000180019bf0 f i NpArticulationLink.obj
 0001:00018c10       ?getName@?$NpActorTemplate@VPxArticulationLink@physx@@@physx@@UEBAPEBDXZ 0000000180019c10 f i NpArticulationLink.obj
 0001:00018c20       ?getNbConstraints@?$NpRigidActorTemplate@VPxArticulationLink@physx@@@physx@@UEBAIXZ 0000000180019c20 f i NpArticulationLink.obj
 0001:00018c30       ?getNbShapes@?$NpRigidActorTemplate@VPxArticulationLink@physx@@@physx@@UEBAIXZ 0000000180019c30 f i NpArticulationLink.obj
 0001:00018c40       ?getOwnerClient@?$NpActorTemplate@VPxArticulationLink@physx@@@physx@@UEBAEXZ 0000000180019c40 f i NpArticulationLink.obj
 0001:00018c70       ?getRigidBodyFlags@?$NpRigidBodyTemplate@VPxArticulationLink@physx@@@physx@@UEBA?AV?$PxFlags@W4Enum@PxRigidBodyFlag@physx@@E@2@XZ 0000000180019c70 f i NpArticulationLink.obj
 0001:00018ca0       ?getScene@?$NpActorTemplate@VPxArticulationLink@physx@@@physx@@UEBAPEAVPxScene@2@XZ 0000000180019ca0 f i NpArticulationLink.obj
 0001:00018cb0       ?getShapes@?$NpRigidActorTemplate@VPxArticulationLink@physx@@@physx@@UEBAIPEAPEAVPxShape@2@II@Z 0000000180019cb0 f i NpArticulationLink.obj
 0001:00018cc0       ?getType@NpArticulationLink@physx@@UEBA?AW4Enum@PxActorType@2@XZ 0000000180019cc0 f i NpArticulationLink.obj
 0001:00018cd0       ?getWorldBounds@?$NpRigidActorTemplate@VPxArticulationLink@physx@@@physx@@UEBA?AVPxBounds3@2@M@Z 0000000180019cd0 f i NpArticulationLink.obj
 0001:00018eb0       ?importExtraData@?$NpRigidActorTemplate@VPxArticulationLink@physx@@@physx@@QEAAXAEAVPxDeserializationContext@2@@Z 0000000180019eb0 f i NpArticulationLink.obj
 0001:00018ee0       ?isKindOf@PxActor@physx@@MEBA_NPEBD@Z 0000000180019ee0 f i NpArticulationLink.obj
 0001:00018f30       ?isKindOf@PxArticulationLink@physx@@MEBA_NPEBD@Z 0000000180019f30 f i NpArticulationLink.obj
 0001:00018f80       ?isKindOf@PxRigidActor@physx@@MEBA_NPEBD@Z 0000000180019f80 f i NpArticulationLink.obj
 0001:00019010       ?isKindOf@PxRigidBody@physx@@MEBA_NPEBD@Z 000000018001a010 f i NpArticulationLink.obj
 0001:000190a0       ?isSubordinate@NpArticulationLink@physx@@UEBA_NXZ 000000018001a0a0 f i NpArticulationLink.obj
 0001:000190b0       ?putToSleepInternal@Body@Scb@physx@@QEAAXXZ 000000018001a0b0 f i NpArticulationLink.obj
 0001:00019220       ?recreate@?$Array@UPxDebugLine@physx@@V?$ReflectionAllocator@UPxDebugLine@physx@@@shdfnd@2@@shdfnd@physx@@IEAAXI@Z 000000018001a220 f i NpArticulationLink.obj
 0001:000192b0       ?release@?$NpActorTemplate@VPxArticulationLink@physx@@@physx@@UEAAXXZ 000000018001a2b0 f i NpArticulationLink.obj
 0001:000192c0       ?release@?$NpRigidActorTemplate@VPxArticulationLink@physx@@@physx@@UEAAXXZ 000000018001a2c0 f i NpArticulationLink.obj
 0001:00019360       ?requiresObjects@?$NpRigidActorTemplate@VPxArticulationLink@physx@@@physx@@UEAAXAEAVPxProcessPxBaseCallback@2@@Z 000000018001a360 f i NpArticulationLink.obj
 0001:000193d0       ?resolveReferences@?$NpActorTemplate@VPxArticulationLink@physx@@@physx@@UEAAXAEAVPxDeserializationContext@2@@Z 000000018001a3d0 f i NpArticulationLink.obj
 0001:000193e0       ?resolveReferences@?$NpRigidActorTemplate@VPxArticulationLink@physx@@@physx@@UEAAXAEAVPxDeserializationContext@2@@Z 000000018001a3e0 f i NpArticulationLink.obj
 0001:00019470       ?setActorFlag@?$NpActorTemplate@VPxArticulationLink@physx@@@physx@@UEAAXW4Enum@PxActorFlag@2@_N@Z 000000018001a470 f i NpArticulationLink.obj
 0001:00019530       ?setActorFlag@?$NpRigidActorTemplate@VPxArticulationLink@physx@@@physx@@UEAAXW4Enum@PxActorFlag@2@_N@Z 000000018001a530 f i NpArticulationLink.obj
 0001:000196f0       ?setActorFlags@?$NpActorTemplate@VPxArticulationLink@physx@@@physx@@UEAAXV?$PxFlags@W4Enum@PxActorFlag@physx@@E@2@@Z 000000018001a6f0 f i NpArticulationLink.obj
 0001:00019720       ?setActorFlags@?$NpRigidActorTemplate@VPxArticulationLink@physx@@@physx@@UEAAXV?$PxFlags@W4Enum@PxActorFlag@physx@@E@2@@Z 000000018001a720 f i NpArticulationLink.obj
 0001:00019860       ?setActorFlags@Actor@Scb@physx@@QEAAXV?$PxFlags@W4Enum@PxActorFlag@physx@@E@3@@Z 000000018001a860 f i NpArticulationLink.obj
 0001:00019900       ?setAngularVelocity@Body@Scb@physx@@QEAAXAEBVPxVec3@3@@Z 000000018001a900 f i NpArticulationLink.obj
 0001:00019970       ?setCMassLocalPoseInternal@?$NpRigidBodyTemplate@VPxArticulationLink@physx@@@physx@@IEAAXAEBVPxTransform@2@@Z 000000018001a970 f i NpArticulationLink.obj
 0001:00019cf0       ?setChildPose@ArticulationJoint@Scb@physx@@QEAAXAEBVPxTransform@3@@Z 000000018001acf0 f i NpArticulationLink.obj
 0001:00019da0       ?setDominanceGroup@?$NpActorTemplate@VPxArticulationLink@physx@@@physx@@UEAAXE@Z 000000018001ada0 f i NpArticulationLink.obj
 0001:00019e40       ?setFlags@Body@Scb@physx@@QEAAXV?$PxFlags@W4Enum@PxRigidBodyFlag@physx@@E@3@@Z 000000018001ae40 f i NpArticulationLink.obj
 0001:00019f80       ?setLinearVelocity@Body@Scb@physx@@QEAAXAEBVPxVec3@3@@Z 000000018001af80 f i NpArticulationLink.obj
 0001:00019ff0       ?setMass@?$NpRigidBodyTemplate@VPxArticulationLink@physx@@@physx@@UEAAXM@Z 000000018001aff0 f i NpArticulationLink.obj
 0001:0001a090       ?setMassSpaceInertiaTensor@?$NpRigidBodyTemplate@VPxArticulationLink@physx@@@physx@@UEAAXAEBVPxVec3@2@@Z 000000018001b090 f i NpArticulationLink.obj
 0001:0001a190       ?setMaxContactImpulse@?$NpRigidBodyTemplate@VPxArticulationLink@physx@@@physx@@UEAAXM@Z 000000018001b190 f i NpArticulationLink.obj
 0001:0001a220       ?setMaxDepenetrationVelocity@?$NpRigidBodyTemplate@VPxArticulationLink@physx@@@physx@@UEAAXM@Z 000000018001b220 f i NpArticulationLink.obj
 0001:0001a2b0       ?setMinCCDAdvanceCoefficient@?$NpRigidBodyTemplate@VPxArticulationLink@physx@@@physx@@UEAAXM@Z 000000018001b2b0 f i NpArticulationLink.obj
 0001:0001a340       ?setName@?$NpActorTemplate@VPxArticulationLink@physx@@@physx@@UEAAXPEBD@Z 000000018001b340 f i NpArticulationLink.obj
 0001:0001a350       ?setOwnerClient@?$NpActorTemplate@VPxArticulationLink@physx@@@physx@@UEAAXE@Z 000000018001b350 f i NpArticulationLink.obj
 0001:0001a420       ?setRigidBodyFlag@?$NpRigidBodyTemplate@VPxArticulationLink@physx@@@physx@@UEAAXW4Enum@PxRigidBodyFlag@2@_N@Z 000000018001b420 f i NpArticulationLink.obj
 0001:0001a8b0       ?setRigidBodyFlags@?$NpRigidBodyTemplate@VPxArticulationLink@physx@@@physx@@UEAAXV?$PxFlags@W4Enum@PxRigidBodyFlag@physx@@E@2@@Z 000000018001b8b0 f i NpArticulationLink.obj
 0001:0001ad40       ?setSpatialAcceleration@Body@Scb@physx@@QEAAXPEBVPxVec3@3@0@Z 000000018001bd40 f i NpArticulationLink.obj
 0001:0001ae60       ?setSpatialForce@?$NpRigidBodyTemplate@VPxArticulationLink@physx@@@physx@@IEAAXPEBVPxVec3@2@0W4Enum@PxForceMode@2@@Z 000000018001be60 f i NpArticulationLink.obj
 0001:0001b0c0       ?switchFromNoSim@?$NpRigidActorTemplate@VPxArticulationLink@physx@@@physx@@UEAAXXZ 000000018001c0c0 f i NpArticulationLink.obj
 0001:0001b0d0       ?switchToNoSim@?$NpRigidActorTemplate@VPxArticulationLink@physx@@@physx@@UEAAXXZ 000000018001c0d0 f i NpArticulationLink.obj
 0001:0001b0e0       ?updateShaderComs@?$NpRigidActorTemplate@VPxArticulationLink@physx@@@physx@@QEAAXXZ 000000018001c0e0 f i NpArticulationLink.obj
 0001:0001b160       ?visualize@?$NpRigidActorTemplate@VPxArticulationLink@physx@@@physx@@QEAAXAEAVRenderOutput@Cm@2@PEAVNpScene@2@@Z 000000018001c160 f i NpArticulationLink.obj
 0001:0001b170       ?visualize@?$NpRigidBodyTemplate@VPxArticulationLink@physx@@@physx@@QEAAXAEAVRenderOutput@Cm@2@PEAVNpScene@2@@Z 000000018001c170 f i NpArticulationLink.obj
 0001:0001b530       ?visualizeAngularLimit@ConstraintImmediateVisualizer@Cm@physx@@UEAAXAEBVPxTransform@3@MM_N@Z 000000018001c530 f i NpArticulationLink.obj
 0001:0001b560       ?visualizeDoubleCone@ConstraintImmediateVisualizer@Cm@physx@@UEAAXAEBVPxTransform@3@M_N@Z 000000018001c560 f i NpArticulationLink.obj
 0001:0001b590       ?visualizeJointFrames@ConstraintImmediateVisualizer@Cm@physx@@UEAAXAEBVPxTransform@3@0@Z 000000018001c590 f i NpArticulationLink.obj
 0001:0001b5b0       ?visualizeLimitCone@ConstraintImmediateVisualizer@Cm@physx@@UEAAXAEBVPxTransform@3@MM_N@Z 000000018001c5b0 f i NpArticulationLink.obj
 0001:0001b5e0       ?visualizeLine@ConstraintImmediateVisualizer@Cm@physx@@UEAAXAEBVPxVec3@3@0I@Z 000000018001c5e0 f i NpArticulationLink.obj
 0001:0001b660       ?visualizeLinearLimit@ConstraintImmediateVisualizer@Cm@physx@@UEAAXAEBVPxTransform@3@0M_N@Z 000000018001c660 f i NpArticulationLink.obj
 0001:0001b690       ??0NpBatchQuery@physx@@QEAA@AEAVNpScene@1@AEBVPxBatchQueryDesc@1@@Z 000000018001c690 f   NpBatchQuery.obj
 0001:0001b7c0       ??1NpBatchQuery@physx@@UEAA@XZ 000000018001c7c0 f   NpBatchQuery.obj
 0001:0001b840       ?execute@NpBatchQuery@physx@@UEAAXXZ 000000018001c840 f   NpBatchQuery.obj
 0001:0001c100       ?release@NpBatchQuery@physx@@UEAAXXZ 000000018001d100 f   NpBatchQuery.obj
 0001:0001c170       ?getPreFilterShader@NpBatchQuery@physx@@UEBAP6A?AW4Enum@PxQueryHitType@2@UPxFilterData@2@0PEBXIAEAV?$PxFlags@W4Enum@PxHitFlag@physx@@G@2@@ZXZ 000000018001d170 f   NpBatchQuery.obj
 0001:0001c180       ?getPostFilterShader@NpBatchQuery@physx@@UEBAP6A?AW4Enum@PxQueryHitType@2@UPxFilterData@2@0PEBXIAEBUPxQueryHit@2@@ZXZ 000000018001d180 f   NpBatchQuery.obj
 0001:0001c190       ?getFilterShaderData@NpBatchQuery@physx@@UEBAPEBXXZ 000000018001d190 f   NpBatchQuery.obj
 0001:0001c1a0       ?getFilterShaderDataSize@NpBatchQuery@physx@@UEBAIXZ 000000018001d1a0 f   NpBatchQuery.obj
 0001:0001c1b0       ?setUserMemory@NpBatchQuery@physx@@UEAAXAEBUPxBatchQueryMemory@2@@Z 000000018001d1b0 f   NpBatchQuery.obj
 0001:0001c250       ?getUserMemory@NpBatchQuery@physx@@UEAAAEBUPxBatchQueryMemory@2@XZ 000000018001d250 f   NpBatchQuery.obj
 0001:0001c260       ?raycast@NpBatchQuery@physx@@UEAAXAEBVPxVec3@2@0MGV?$PxFlags@W4Enum@PxHitFlag@physx@@G@2@AEBUPxQueryFilterData@2@PEAXPEBUPxQueryCache@2@@Z 000000018001d260 f   NpBatchQuery.obj
 0001:0001c3d0       ?overlap@NpBatchQuery@physx@@UEAAXAEBVPxGeometry@2@AEBVPxTransform@2@GAEBUPxQueryFilterData@2@PEAXPEBUPxQueryCache@2@@Z 000000018001d3d0 f   NpBatchQuery.obj
 0001:0001c5e0       ?sweep@NpBatchQuery@physx@@UEAAXAEBVPxGeometry@2@AEBVPxTransform@2@AEBVPxVec3@2@MGV?$PxFlags@W4Enum@PxHitFlag@physx@@G@2@AEBUPxQueryFilterData@2@PEAXPEBUPxQueryCache@2@M@Z 000000018001d5e0 f   NpBatchQuery.obj
 0001:0001c850       ?resetResultBuffers@NpBatchQuery@physx@@AEAAXXZ 000000018001d850 f   NpBatchQuery.obj
 0001:0001c960       ?finalizeExecute@NpBatchQuery@physx@@AEAAXXZ 000000018001d960 f   NpBatchQuery.obj
 0001:0001c990       ?writeBatchHeader@NpBatchQuery@physx@@AEAAXAEBUBatchStreamHeader@2@@Z 000000018001d990 f   NpBatchQuery.obj
 0001:0001ca70       ??$writeStatus@U?$PxBatchQueryResult@UPxOverlapHit@physx@@@physx@@UPxOverlapHit@2@@@YAXPEAU?$PxBatchQueryResult@UPxOverlapHit@physx@@@physx@@AEBU?$PxHitBuffer@UPxOverlapHit@physx@@@1@PEAX_N@Z 000000018001da70 f i NpBatchQuery.obj
 0001:0001cac0       ??$writeStatus@U?$PxBatchQueryResult@UPxRaycastHit@physx@@@physx@@UPxRaycastHit@2@@@YAXPEAU?$PxBatchQueryResult@UPxRaycastHit@physx@@@physx@@AEBU?$PxHitBuffer@UPxRaycastHit@physx@@@1@PEAX_N@Z 000000018001dac0 f i NpBatchQuery.obj
 0001:0001cb50       ??$writeStatus@U?$PxBatchQueryResult@UPxSweepHit@physx@@@physx@@UPxSweepHit@2@@@YAXPEAU?$PxBatchQueryResult@UPxSweepHit@physx@@@physx@@AEBU?$PxHitBuffer@UPxSweepHit@physx@@@1@PEAX_N@Z 000000018001db50 f i NpBatchQuery.obj
 0001:0001cbd0       ??1?$PxHitBuffer@UPxOverlapHit@physx@@@physx@@UEAA@XZ 000000018001dbd0 f i NpBatchQuery.obj
 0001:0001cbe0       ??1?$PxHitBuffer@UPxRaycastHit@physx@@@physx@@UEAA@XZ 000000018001dbe0 f i NpBatchQuery.obj
 0001:0001cbf0       ??1?$PxHitBuffer@UPxSweepHit@physx@@@physx@@UEAA@XZ 000000018001dbf0 f i NpBatchQuery.obj
 0001:0001cc00       ??1?$PxHitCallback@UPxOverlapHit@physx@@@physx@@UEAA@XZ 000000018001dc00 f i NpBatchQuery.obj
 0001:0001cc10       ??1?$PxHitCallback@UPxRaycastHit@physx@@@physx@@UEAA@XZ 000000018001dc10 f i NpBatchQuery.obj
 0001:0001cc20       ??1?$PxHitCallback@UPxSweepHit@physx@@@physx@@UEAA@XZ 000000018001dc20 f i NpBatchQuery.obj
 0001:0001cc30       ??1PxBatchQuery@physx@@MEAA@XZ 000000018001dc30 f i NpBatchQuery.obj
 0001:0001cc40       ??_G?$PxHitBuffer@UPxOverlapHit@physx@@@physx@@UEAAPEAXI@Z 000000018001dc40 f i NpBatchQuery.obj
 0001:0001cc40       ??_E?$PxHitBuffer@UPxOverlapHit@physx@@@physx@@UEAAPEAXI@Z 000000018001dc40 f i NpBatchQuery.obj
 0001:0001cc70       ??_E?$PxHitBuffer@UPxRaycastHit@physx@@@physx@@UEAAPEAXI@Z 000000018001dc70 f i NpBatchQuery.obj
 0001:0001cc70       ??_G?$PxHitBuffer@UPxRaycastHit@physx@@@physx@@UEAAPEAXI@Z 000000018001dc70 f i NpBatchQuery.obj
 0001:0001cca0       ??_G?$PxHitBuffer@UPxSweepHit@physx@@@physx@@UEAAPEAXI@Z 000000018001dca0 f i NpBatchQuery.obj
 0001:0001cca0       ??_E?$PxHitBuffer@UPxSweepHit@physx@@@physx@@UEAAPEAXI@Z 000000018001dca0 f i NpBatchQuery.obj
 0001:0001ccd0       ??_G?$PxHitCallback@UPxOverlapHit@physx@@@physx@@UEAAPEAXI@Z 000000018001dcd0 f i NpBatchQuery.obj
 0001:0001ccd0       ??_E?$PxHitCallback@UPxOverlapHit@physx@@@physx@@UEAAPEAXI@Z 000000018001dcd0 f i NpBatchQuery.obj
 0001:0001cd00       ??_E?$PxHitCallback@UPxRaycastHit@physx@@@physx@@UEAAPEAXI@Z 000000018001dd00 f i NpBatchQuery.obj
 0001:0001cd00       ??_G?$PxHitCallback@UPxRaycastHit@physx@@@physx@@UEAAPEAXI@Z 000000018001dd00 f i NpBatchQuery.obj
 0001:0001cd30       ??_E?$PxHitCallback@UPxSweepHit@physx@@@physx@@UEAAPEAXI@Z 000000018001dd30 f i NpBatchQuery.obj
 0001:0001cd30       ??_G?$PxHitCallback@UPxSweepHit@physx@@@physx@@UEAAPEAXI@Z 000000018001dd30 f i NpBatchQuery.obj
 0001:0001cd60       ??_E?$PxOverflowBuffer@UPxOverlapHit@physx@@@@UEAAPEAXI@Z 000000018001dd60 f i NpBatchQuery.obj
 0001:0001cd60       ??_G?$PxOverflowBuffer@UPxOverlapHit@physx@@@@UEAAPEAXI@Z 000000018001dd60 f i NpBatchQuery.obj
 0001:0001cd90       ??_G?$PxOverflowBuffer@UPxRaycastHit@physx@@@@UEAAPEAXI@Z 000000018001dd90 f i NpBatchQuery.obj
 0001:0001cd90       ??_E?$PxOverflowBuffer@UPxRaycastHit@physx@@@@UEAAPEAXI@Z 000000018001dd90 f i NpBatchQuery.obj
 0001:0001cdc0       ??_G?$PxOverflowBuffer@UPxSweepHit@physx@@@@UEAAPEAXI@Z 000000018001ddc0 f i NpBatchQuery.obj
 0001:0001cdc0       ??_E?$PxOverflowBuffer@UPxSweepHit@physx@@@@UEAAPEAXI@Z 000000018001ddc0 f i NpBatchQuery.obj
 0001:0001cdf0       ??_GNpBatchQuery@physx@@UEAAPEAXI@Z 000000018001ddf0 f i NpBatchQuery.obj
 0001:0001cdf0       ??_ENpBatchQuery@physx@@UEAAPEAXI@Z 000000018001ddf0 f i NpBatchQuery.obj
 0001:0001cec0       ??_EPxBatchQuery@physx@@MEAAPEAXI@Z 000000018001dec0 f i NpBatchQuery.obj
 0001:0001cec0       ??_GPxBatchQuery@physx@@MEAAPEAXI@Z 000000018001dec0 f i NpBatchQuery.obj
 0001:0001cef0       ?finalizeQuery@?$PxHitCallback@UPxOverlapHit@physx@@@physx@@UEAAXXZ 000000018001def0 f i NpBatchQuery.obj
 0001:0001cf00       ?finalizeQuery@?$PxHitCallback@UPxRaycastHit@physx@@@physx@@UEAAXXZ 000000018001df00 f i NpBatchQuery.obj
 0001:0001cf10       ?finalizeQuery@?$PxHitCallback@UPxSweepHit@physx@@@physx@@UEAAXXZ 000000018001df10 f i NpBatchQuery.obj
 0001:0001cf20       ?finalizeQuery@?$PxOverflowBuffer@UPxOverlapHit@physx@@@@UEAAXXZ 000000018001df20 f i NpBatchQuery.obj
 0001:0001cf40       ?finalizeQuery@?$PxOverflowBuffer@UPxRaycastHit@physx@@@@UEAAXXZ 000000018001df40 f i NpBatchQuery.obj
 0001:0001cf70       ?finalizeQuery@?$PxOverflowBuffer@UPxSweepHit@physx@@@@UEAAXXZ 000000018001df70 f i NpBatchQuery.obj
 0001:0001cfa0       ?getDesc@NpBatchQuery@physx@@UEBAAEBVPxBatchQueryDesc@2@XZ 000000018001dfa0 f i NpBatchQuery.obj
 0001:0001cfb0       ?processTouches@?$PxHitBuffer@UPxOverlapHit@physx@@@physx@@MEAA_NPEBUPxOverlapHit@2@I@Z 000000018001dfb0 f i NpBatchQuery.obj
 0001:0001cfc0       ?processTouches@?$PxHitBuffer@UPxRaycastHit@physx@@@physx@@MEAA_NPEBUPxRaycastHit@2@I@Z 000000018001dfc0 f i NpBatchQuery.obj
 0001:0001cfd0       ?processTouches@?$PxHitBuffer@UPxSweepHit@physx@@@physx@@MEAA_NPEBUPxSweepHit@2@I@Z 000000018001dfd0 f i NpBatchQuery.obj
 0001:0001cfe0       ?processTouches@?$PxOverflowBuffer@UPxOverlapHit@physx@@@@UEAA_NPEBUPxOverlapHit@physx@@I@Z 000000018001dfe0 f i NpBatchQuery.obj
 0001:0001d010       ?processTouches@?$PxOverflowBuffer@UPxRaycastHit@physx@@@@UEAA_NPEBUPxRaycastHit@physx@@I@Z 000000018001e010 f i NpBatchQuery.obj
 0001:0001d050       ?processTouches@?$PxOverflowBuffer@UPxSweepHit@physx@@@@UEAA_NPEBUPxSweepHit@physx@@I@Z 000000018001e050 f i NpBatchQuery.obj
 0001:0001d090       ?recreate@?$Array@DV?$ReflectionAllocator@D@shdfnd@physx@@@shdfnd@physx@@IEAAXI@Z 000000018001e090 f i NpBatchQuery.obj
 0001:0001d190       ?resizeUninitialized@?$Array@DV?$ReflectionAllocator@D@shdfnd@physx@@@shdfnd@physx@@QEAAXI@Z 000000018001e190 f i NpBatchQuery.obj
 0001:0001d530       ?NpConstraintGetRigidObjectsFromScb@physx@@YAXAEBVConstraint@Scb@1@AEAPEAVRigidObject@31@1@Z 000000018001e530 f   NpConstraint.obj
 0001:0001d5a0       ?setConstraintFunctions@NpConstraint@physx@@UEAAXAEAVPxConstraintConnector@2@AEBUPxConstraintShaderTable@2@@Z 000000018001e5a0 f   NpConstraint.obj
 0001:0001d780       ?createObject@NpConstraint@physx@@SAPEAV12@AEAPEAEAEAVPxDeserializationContext@2@@Z 000000018001e780 f   NpConstraint.obj
 0001:0001d820       ?resolveReferences@NpConstraint@physx@@QEAAXAEAVPxDeserializationContext@2@@Z 000000018001e820 f   NpConstraint.obj
 0001:0001d880       ??0NpConstraint@physx@@QEAA@PEAVPxRigidActor@1@0AEAVPxConstraintConnector@1@AEBUPxConstraintShaderTable@1@I@Z 000000018001e880 f   NpConstraint.obj
 0001:0001da90       ??1NpConstraint@physx@@UEAA@XZ 000000018001ea90 f   NpConstraint.obj
 0001:0001daf0       ?release@NpConstraint@physx@@UEAAXXZ 000000018001eaf0 f   NpConstraint.obj
 0001:0001dc00       ?getScene@NpConstraint@physx@@UEBAPEAVPxScene@2@XZ 000000018001ec00 f   NpConstraint.obj
 0001:0001dc40       ?getActors@NpConstraint@physx@@UEBAXAEAPEAVPxRigidActor@2@0@Z 000000018001ec40 f   NpConstraint.obj
 0001:0001dc60       ?setActors@NpConstraint@physx@@UEAAXPEAVPxRigidActor@2@0@Z 000000018001ec60 f   NpConstraint.obj
 0001:0001dee0       ?getFlags@NpConstraint@physx@@UEBA?AV?$PxFlags@W4Enum@PxConstraintFlag@physx@@G@2@XZ 000000018001eee0 f   NpConstraint.obj
 0001:0001df20       ?setFlags@NpConstraint@physx@@UEAAXV?$PxFlags@W4Enum@PxConstraintFlag@physx@@G@2@@Z 000000018001ef20 f   NpConstraint.obj
 0001:0001df70       ?setFlag@NpConstraint@physx@@UEAAXW4Enum@PxConstraintFlag@2@_N@Z 000000018001ef70 f   NpConstraint.obj
 0001:0001e020       ?getForce@NpConstraint@physx@@UEBAXAEAVPxVec3@2@0@Z 000000018001f020 f   NpConstraint.obj
 0001:0001e060       ?markDirty@NpConstraint@physx@@UEAAXXZ 000000018001f060 f   NpConstraint.obj
 0001:0001e070       ?setBreakForce@NpConstraint@physx@@UEAAXMM@Z 000000018001f070 f   NpConstraint.obj
 0001:0001e140       ?getBreakForce@NpConstraint@physx@@UEBAXAEAM0@Z 000000018001f140 f   NpConstraint.obj
 0001:0001e1b0       ?setMinResponseThreshold@NpConstraint@physx@@UEAAXM@Z 000000018001f1b0 f   NpConstraint.obj
 0001:0001e270       ?getMinResponseThreshold@NpConstraint@physx@@UEBAMXZ 000000018001f270 f   NpConstraint.obj
 0001:0001e2c0       ?isValid@NpConstraint@physx@@UEBA_NXZ 000000018001f2c0 f   NpConstraint.obj
 0001:0001e320       ?getExternalReference@NpConstraint@physx@@UEAAPEAXAEAI@Z 000000018001f320 f   NpConstraint.obj
 0001:0001e340       ?updateConstants@NpConstraint@physx@@QEAAXXZ 000000018001f340 f   NpConstraint.obj
 0001:0001e380       ?comShift@NpConstraint@physx@@QEAAXPEAVPxRigidActor@2@@Z 000000018001f380 f   NpConstraint.obj
 0001:0001e3e0       ?actorDeleted@NpConstraint@physx@@QEAAXPEAVPxRigidActor@2@@Z 000000018001f3e0 f   NpConstraint.obj
 0001:0001e400       ?getNpScene@NpConstraint@physx@@QEBAPEAVNpScene@2@XZ 000000018001f400 f   NpConstraint.obj
 0001:0001e440       ?getSceneFromActors@NpConstraint@physx@@QEBAPEAVNpScene@2@XZ 000000018001f440 f   NpConstraint.obj
 0001:0001e4f0       ?getScbRigidObject@NpConstraint@physx@@SAPEAVRigidObject@Scb@2@PEAVPxRigidActor@2@@Z 000000018001f4f0 f   NpConstraint.obj
 0001:0001e500       ??1PxConstraint@physx@@MEAA@XZ 000000018001f500 f i NpConstraint.obj
 0001:0001e510       ??_ENpConstraint@physx@@UEAAPEAXI@Z 000000018001f510 f i NpConstraint.obj
 0001:0001e510       ??_GNpConstraint@physx@@UEAAPEAXI@Z 000000018001f510 f i NpConstraint.obj
 0001:0001e5b0       ??_EPxConstraint@physx@@MEAAPEAXI@Z 000000018001f5b0 f i NpConstraint.obj
 0001:0001e5b0       ??_GPxConstraint@physx@@MEAAPEAXI@Z 000000018001f5b0 f i NpConstraint.obj
 0001:0001e5e0       ?getConcreteTypeName@PxConstraint@physx@@UEBAPEBDXZ 000000018001f5e0 f i NpConstraint.obj
 0001:0001e5f0       ?isKindOf@PxConstraint@physx@@MEBA_NPEBD@Z 000000018001f5f0 f i NpConstraint.obj
 0001:0001e640       ?isSubordinate@NpConstraint@physx@@UEBA_NXZ 000000018001f640 f i NpConstraint.obj
 0001:0001e650       ?requiresObjects@NpConstraint@physx@@UEAAXAEAVPxProcessPxBaseCallback@2@@Z 000000018001f650 f i NpConstraint.obj
 0001:0001e660       ?setBodies@Constraint@Scb@physx@@QEAAXPEAVRigidObject@23@0@Z 000000018001f660 f i NpConstraint.obj
 0001:0001e750       ?setFlags@Constraint@Scb@physx@@QEAAXV?$PxFlags@W4Enum@PxConstraintFlag@physx@@G@3@@Z 000000018001f750 f i NpConstraint.obj
 0001:0001e7e0       ??0NpFactory@physx@@QEAA@XZ 000000018001f7e0 f   NpFactory.obj
 0001:0001f330       ??1NpFactory@physx@@EEAA@XZ 0000000180020330 f   NpFactory.obj
 0001:0001f6a0       ?createInstance@NpFactory@physx@@SAXXZ 00000001800206a0 f   NpFactory.obj
 0001:0001f730       ?destroyInstance@NpFactory@physx@@SAXXZ 0000000180020730 f   NpFactory.obj
 0001:0001f7c0       ?registerArticulations@NpFactory@physx@@SAXXZ 00000001800207c0 f   NpFactory.obj
 0001:0001f7f0       ?registerArticulationRCs@NpFactory@physx@@SAXXZ 00000001800207f0 f   NpFactory.obj
 0001:0001f820       ?release@NpFactory@physx@@QEAAXXZ 0000000180020820 f   NpFactory.obj
 0001:0001f8a0       ?addCollection@NpFactory@physx@@QEAAXAEBVCollection@Cm@2@@Z 00000001800208a0 f   NpFactory.obj
 0001:0001fb10       ?createRigidDynamic@NpFactory@physx@@QEAAPEAVPxRigidDynamic@2@AEBVPxTransform@2@@Z 0000000180020b10 f   NpFactory.obj
 0001:0001fcc0       ?addRigidDynamic@NpFactory@physx@@QEAAXPEAVPxRigidDynamic@2@_N@Z 0000000180020cc0 f   NpFactory.obj
 0001:0001fd40       ?releaseRigidDynamicToPool@NpFactory@physx@@QEAAXAEAVNpRigidDynamic@2@@Z 0000000180020d40 f   NpFactory.obj
 0001:0001fda0       ?createRigidStatic@NpFactory@physx@@QEAAPEAVPxRigidStatic@2@AEBVPxTransform@2@@Z 0000000180020da0 f   NpFactory.obj
 0001:0001ff50       ?addRigidStatic@NpFactory@physx@@QEAAXPEAVPxRigidStatic@2@_N@Z 0000000180020f50 f   NpFactory.obj
 0001:0001ffd0       ?releaseRigidStaticToPool@NpFactory@physx@@QEAAXAEAVNpRigidStatic@2@@Z 0000000180020fd0 f   NpFactory.obj
 0001:00020030       ?createShape@NpFactory@physx@@QEAAPEAVNpShape@2@AEBVPxGeometry@2@V?$PxFlags@W4Enum@PxShapeFlag@physx@@E@2@PEBQEAVPxMaterial@2@G_N@Z 0000000180021030 f   NpFactory.obj
 0001:00020380       ?addShape@NpFactory@physx@@QEAAXPEAVPxShape@2@_N@Z 0000000180021380 f   NpFactory.obj
 0001:00020400       ?releaseShapeToPool@NpFactory@physx@@QEAAXAEAVNpShape@2@@Z 0000000180021400 f   NpFactory.obj
 0001:00020460       ?getNbShapes@NpFactory@physx@@QEBAIXZ 0000000180021460 f   NpFactory.obj
 0001:00020470       ?getShapes@NpFactory@physx@@QEBAIPEAPEAVPxShape@2@II@Z 0000000180021470 f   NpFactory.obj
 0001:000204d0       ?createConstraint@NpFactory@physx@@QEAAPEAVPxConstraint@2@PEAVPxRigidActor@2@0AEAVPxConstraintConnector@2@AEBUPxConstraintShaderTable@2@I@Z 00000001800214d0 f   NpFactory.obj
 0001:000206b0       ?addConstraint@NpFactory@physx@@QEAAXPEAVPxConstraint@2@_N@Z 00000001800216b0 f   NpFactory.obj
 0001:00020730       ?releaseConstraintToPool@NpFactory@physx@@QEAAXAEAVNpConstraint@2@@Z 0000000180021730 f   NpFactory.obj
 0001:00020790       ?createArticulation@NpFactory@physx@@QEAAPEAVPxArticulation@2@XZ 0000000180021790 f   NpFactory.obj
 0001:00020840       ?addArticulation@NpFactory@physx@@QEAAXPEAVPxArticulationBase@2@_N@Z 0000000180021840 f   NpFactory.obj
 0001:000208c0       ?releaseArticulationToPool@NpFactory@physx@@QEAAXAEAVPxArticulationBase@2@@Z 00000001800218c0 f   NpFactory.obj
 0001:00020970       ?createArticulationRC@NpFactory@physx@@QEAAPEAVPxArticulationReducedCoordinate@2@XZ 0000000180021970 f   NpFactory.obj
 0001:00020a20       ?createNpArticulation@NpFactory@physx@@QEAAPEAVNpArticulation@2@XZ 0000000180021a20 f   NpFactory.obj
 0001:00020b90       ?createNpArticulationRC@NpFactory@physx@@QEAAPEAVNpArticulationReducedCoordinate@2@XZ 0000000180021b90 f   NpFactory.obj
 0001:00020d00       ?createNpArticulationLink@NpFactory@physx@@QEAAPEAVNpArticulationLink@2@AEAVPxArticulationBase@2@PEAV32@AEBVPxTransform@2@@Z 0000000180021d00 f   NpFactory.obj
 0001:00020e80       ?releaseArticulationLinkToPool@NpFactory@physx@@QEAAXAEAVNpArticulationLink@2@@Z 0000000180021e80 f   NpFactory.obj
 0001:00020ee0       ?createArticulationLink@NpFactory@physx@@QEAAPEAVPxArticulationLink@2@AEAVPxArticulationBase@2@PEAVNpArticulationLink@2@AEBVPxTransform@2@@Z 0000000180021ee0 f   NpFactory.obj
 0001:00020f40       ?createNpArticulationJoint@NpFactory@physx@@QEAAPEAVNpArticulationJoint@2@AEAVNpArticulationLink@2@AEBVPxTransform@2@01@Z 0000000180021f40 f   NpFactory.obj
 0001:000210d0       ?releaseArticulationJointToPool@NpFactory@physx@@QEAAXAEAVNpArticulationJoint@2@@Z 00000001800220d0 f   NpFactory.obj
 0001:00021130       ?createNpArticulationJointRC@NpFactory@physx@@QEAAPEAVNpArticulationJointReducedCoordinate@2@AEAVNpArticulationLink@2@AEBVPxTransform@2@01@Z 0000000180022130 f   NpFactory.obj
 0001:000212c0       ?releaseArticulationJointRCToPool@NpFactory@physx@@QEAAXAEAVNpArticulationJointReducedCoordinate@2@@Z 00000001800222c0 f   NpFactory.obj
 0001:00021320       ?createAggregate@NpFactory@physx@@QEAAPEAVPxAggregate@2@I_N@Z 0000000180022320 f   NpFactory.obj
 0001:000214e0       ?addAggregate@NpFactory@physx@@QEAAXPEAVPxAggregate@2@_N@Z 00000001800224e0 f   NpFactory.obj
 0001:00021560       ?releaseAggregateToPool@NpFactory@physx@@QEAAXAEAVNpAggregate@2@@Z 0000000180022560 f   NpFactory.obj
 0001:000215c0       ?createMaterial@NpFactory@physx@@QEAAPEAVPxMaterial@2@MMM@Z 00000001800225c0 f   NpFactory.obj
 0001:000217a0       ?releaseMaterialToPool@NpFactory@physx@@QEAAXAEAVNpMaterial@2@@Z 00000001800227a0 f   NpFactory.obj
 0001:00021800       ?onActorRelease@NpFactory@physx@@QEAAXPEAVPxActor@2@@Z 0000000180022800 f   NpFactory.obj
 0001:00021930       ?onConstraintRelease@NpFactory@physx@@QEAAXPEAVPxConstraint@2@@Z 0000000180022930 f   NpFactory.obj
 0001:00021a60       ?onAggregateRelease@NpFactory@physx@@QEAAXPEAVPxAggregate@2@@Z 0000000180022a60 f   NpFactory.obj
 0001:00021b90       ?onArticulationRelease@NpFactory@physx@@QEAAXPEAVPxArticulationBase@2@@Z 0000000180022b90 f   NpFactory.obj
 0001:00021cc0       ?onShapeRelease@NpFactory@physx@@QEAAXPEAVPxShape@2@@Z 0000000180022cc0 f   NpFactory.obj
 0001:00021d00       ?acquireConnectorArray@NpFactory@physx@@QEAAPEAVNpConnectorArray@2@XZ 0000000180022d00 f   NpFactory.obj
 0001:00021e60       ?releaseConnectorArray@NpFactory@physx@@QEAAXPEAVNpConnectorArray@2@@Z 0000000180022e60 f   NpFactory.obj
 0001:00021f00       ?NpDestroy@physx@@YAXAEAVBase@Scb@1@@Z 0000000180022f00 f   NpFactory.obj
 0001:000230b0       ??$sort@PEAXU?$Less@PEAX@shdfnd@physx@@V?$ReflectionAllocator@V?$PtrBlock@$03@NpPtrTableStorageManager@physx@@@23@@shdfnd@physx@@YAXPEAPEAXIAEBU?$Less@PEAX@01@AEBV?$ReflectionAllocator@V?$PtrBlock@$03@NpPtrTableStorageManager@physx@@@01@I@Z 00000001800240b0 f i NpFactory.obj
 0001:00023510       ??$sort@PEAXU?$Less@PEAX@shdfnd@physx@@V?$ReflectionAllocator@V?$PtrBlock@$0BA@@NpPtrTableStorageManager@physx@@@23@@shdfnd@physx@@YAXPEAPEAXIAEBU?$Less@PEAX@01@AEBV?$ReflectionAllocator@V?$PtrBlock@$0BA@@NpPtrTableStorageManager@physx@@@01@I@Z 0000000180024510 f i NpFactory.obj
 0001:00023970       ??$sort@PEAXU?$Less@PEAX@shdfnd@physx@@V?$ReflectionAllocator@V?$PtrBlock@$0EA@@NpPtrTableStorageManager@physx@@@23@@shdfnd@physx@@YAXPEAPEAXIAEBU?$Less@PEAX@01@AEBV?$ReflectionAllocator@V?$PtrBlock@$0EA@@NpPtrTableStorageManager@physx@@@01@I@Z 0000000180024970 f i NpFactory.obj
 0001:00023dd0       ??$sort@PEAXU?$Less@PEAX@shdfnd@physx@@V?$ReflectionAllocator@VNpAggregate@physx@@@23@@shdfnd@physx@@YAXPEAPEAXIAEBU?$Less@PEAX@01@AEBV?$ReflectionAllocator@VNpAggregate@physx@@@01@I@Z 0000000180024dd0 f i NpFactory.obj
 0001:00024230       ??$sort@PEAXU?$Less@PEAX@shdfnd@physx@@V?$ReflectionAllocator@VNpArticulation@physx@@@23@@shdfnd@physx@@YAXPEAPEAXIAEBU?$Less@PEAX@01@AEBV?$ReflectionAllocator@VNpArticulation@physx@@@01@I@Z 0000000180025230 f i NpFactory.obj
 0001:00024690       ??$sort@PEAXU?$Less@PEAX@shdfnd@physx@@V?$ReflectionAllocator@VNpArticulationJoint@physx@@@23@@shdfnd@physx@@YAXPEAPEAXIAEBU?$Less@PEAX@01@AEBV?$ReflectionAllocator@VNpArticulationJoint@physx@@@01@I@Z 0000000180025690 f i NpFactory.obj
 0001:00024af0       ??$sort@PEAXU?$Less@PEAX@shdfnd@physx@@V?$ReflectionAllocator@VNpArticulationJointReducedCoordinate@physx@@@23@@shdfnd@physx@@YAXPEAPEAXIAEBU?$Less@PEAX@01@AEBV?$ReflectionAllocator@VNpArticulationJointReducedCoordinate@physx@@@01@I@Z 0000000180025af0 f i NpFactory.obj
 0001:00024f50       ??$sort@PEAXU?$Less@PEAX@shdfnd@physx@@V?$ReflectionAllocator@VNpArticulationLink@physx@@@23@@shdfnd@physx@@YAXPEAPEAXIAEBU?$Less@PEAX@01@AEBV?$ReflectionAllocator@VNpArticulationLink@physx@@@01@I@Z 0000000180025f50 f i NpFactory.obj
 0001:000253b0       ??$sort@PEAXU?$Less@PEAX@shdfnd@physx@@V?$ReflectionAllocator@VNpArticulationReducedCoordinate@physx@@@23@@shdfnd@physx@@YAXPEAPEAXIAEBU?$Less@PEAX@01@AEBV?$ReflectionAllocator@VNpArticulationReducedCoordinate@physx@@@01@I@Z 00000001800263b0 f i NpFactory.obj
 0001:00025810       ??$sort@PEAXU?$Less@PEAX@shdfnd@physx@@V?$ReflectionAllocator@VNpConnectorArray@physx@@@23@@shdfnd@physx@@YAXPEAPEAXIAEBU?$Less@PEAX@01@AEBV?$ReflectionAllocator@VNpConnectorArray@physx@@@01@I@Z 0000000180026810 f i NpFactory.obj
 0001:00025c70       ??$sort@PEAXU?$Less@PEAX@shdfnd@physx@@V?$ReflectionAllocator@VNpConstraint@physx@@@23@@shdfnd@physx@@YAXPEAPEAXIAEBU?$Less@PEAX@01@AEBV?$ReflectionAllocator@VNpConstraint@physx@@@01@I@Z 0000000180026c70 f i NpFactory.obj
 0001:000260d0       ??$sort@PEAXU?$Less@PEAX@shdfnd@physx@@V?$ReflectionAllocator@VNpMaterial@physx@@@23@@shdfnd@physx@@YAXPEAPEAXIAEBU?$Less@PEAX@01@AEBV?$ReflectionAllocator@VNpMaterial@physx@@@01@I@Z 00000001800270d0 f i NpFactory.obj
 0001:00026530       ??$sort@PEAXU?$Less@PEAX@shdfnd@physx@@V?$ReflectionAllocator@VNpRigidDynamic@physx@@@23@@shdfnd@physx@@YAXPEAPEAXIAEBU?$Less@PEAX@01@AEBV?$ReflectionAllocator@VNpRigidDynamic@physx@@@01@I@Z 0000000180027530 f i NpFactory.obj
 0001:00026990       ??$sort@PEAXU?$Less@PEAX@shdfnd@physx@@V?$ReflectionAllocator@VNpRigidStatic@physx@@@23@@shdfnd@physx@@YAXPEAPEAXIAEBU?$Less@PEAX@01@AEBV?$ReflectionAllocator@VNpRigidStatic@physx@@@01@I@Z 0000000180027990 f i NpFactory.obj
 0001:00026df0       ??$sort@PEAXU?$Less@PEAX@shdfnd@physx@@V?$ReflectionAllocator@VNpShape@physx@@@23@@shdfnd@physx@@YAXPEAPEAXIAEBU?$Less@PEAX@01@AEBV?$ReflectionAllocator@VNpShape@physx@@@01@I@Z 0000000180027df0 f i NpFactory.obj
 0001:00027250       ??1?$Array@PEAXV?$InlineAllocator@$0CAA@V?$ReflectionAllocator@V?$PtrBlock@$03@NpPtrTableStorageManager@physx@@@shdfnd@physx@@@shdfnd@physx@@@shdfnd@physx@@QEAA@XZ 0000000180028250 f i NpFactory.obj
 0001:000272c0       ??1?$Array@PEAXV?$InlineAllocator@$0CAA@V?$ReflectionAllocator@V?$PtrBlock@$0BA@@NpPtrTableStorageManager@physx@@@shdfnd@physx@@@shdfnd@physx@@@shdfnd@physx@@QEAA@XZ 00000001800282c0 f i NpFactory.obj
 0001:00027330       ??1?$Array@PEAXV?$InlineAllocator@$0CAA@V?$ReflectionAllocator@V?$PtrBlock@$0EA@@NpPtrTableStorageManager@physx@@@shdfnd@physx@@@shdfnd@physx@@@shdfnd@physx@@QEAA@XZ 0000000180028330 f i NpFactory.obj
 0001:000273a0       ??1?$Array@PEAXV?$InlineAllocator@$0CAA@V?$ReflectionAllocator@VNpAggregate@physx@@@shdfnd@physx@@@shdfnd@physx@@@shdfnd@physx@@QEAA@XZ 00000001800283a0 f i NpFactory.obj
 0001:00027410       ??1?$Array@PEAXV?$InlineAllocator@$0CAA@V?$ReflectionAllocator@VNpArticulation@physx@@@shdfnd@physx@@@shdfnd@physx@@@shdfnd@physx@@QEAA@XZ 0000000180028410 f i NpFactory.obj
 0001:00027480       ??1?$Array@PEAXV?$InlineAllocator@$0CAA@V?$ReflectionAllocator@VNpArticulationJoint@physx@@@shdfnd@physx@@@shdfnd@physx@@@shdfnd@physx@@QEAA@XZ 0000000180028480 f i NpFactory.obj
 0001:000274f0       ??1?$Array@PEAXV?$InlineAllocator@$0CAA@V?$ReflectionAllocator@VNpArticulationJointReducedCoordinate@physx@@@shdfnd@physx@@@shdfnd@physx@@@shdfnd@physx@@QEAA@XZ 00000001800284f0 f i NpFactory.obj
 0001:00027560       ??1?$Array@PEAXV?$InlineAllocator@$0CAA@V?$ReflectionAllocator@VNpArticulationLink@physx@@@shdfnd@physx@@@shdfnd@physx@@@shdfnd@physx@@QEAA@XZ 0000000180028560 f i NpFactory.obj
 0001:000275d0       ??1?$Array@PEAXV?$InlineAllocator@$0CAA@V?$ReflectionAllocator@VNpArticulationReducedCoordinate@physx@@@shdfnd@physx@@@shdfnd@physx@@@shdfnd@physx@@QEAA@XZ 00000001800285d0 f i NpFactory.obj
 0001:00027640       ??1?$Array@PEAXV?$InlineAllocator@$0CAA@V?$ReflectionAllocator@VNpConnectorArray@physx@@@shdfnd@physx@@@shdfnd@physx@@@shdfnd@physx@@QEAA@XZ 0000000180028640 f i NpFactory.obj
 0001:000276b0       ??1?$Array@PEAXV?$InlineAllocator@$0CAA@V?$ReflectionAllocator@VNpConstraint@physx@@@shdfnd@physx@@@shdfnd@physx@@@shdfnd@physx@@QEAA@XZ 00000001800286b0 f i NpFactory.obj
 0001:00027720       ??1?$Array@PEAXV?$InlineAllocator@$0CAA@V?$ReflectionAllocator@VNpMaterial@physx@@@shdfnd@physx@@@shdfnd@physx@@@shdfnd@physx@@QEAA@XZ 0000000180028720 f i NpFactory.obj
 0001:00027790       ??1?$Array@PEAXV?$InlineAllocator@$0CAA@V?$ReflectionAllocator@VNpRigidDynamic@physx@@@shdfnd@physx@@@shdfnd@physx@@@shdfnd@physx@@QEAA@XZ 0000000180028790 f i NpFactory.obj
 0001:00027800       ??1?$Array@PEAXV?$InlineAllocator@$0CAA@V?$ReflectionAllocator@VNpRigidStatic@physx@@@shdfnd@physx@@@shdfnd@physx@@@shdfnd@physx@@QEAA@XZ 0000000180028800 f i NpFactory.obj
 0001:00027870       ??1?$Array@PEAXV?$InlineAllocator@$0CAA@V?$ReflectionAllocator@VNpShape@physx@@@shdfnd@physx@@@shdfnd@physx@@@shdfnd@physx@@QEAA@XZ 0000000180028870 f i NpFactory.obj
 0001:000278e0       ??1?$PoolBase@V?$PtrBlock@$03@NpPtrTableStorageManager@physx@@V?$ReflectionAllocator@V?$PtrBlock@$03@NpPtrTableStorageManager@physx@@@shdfnd@3@@shdfnd@physx@@QEAA@XZ 00000001800288e0 f i NpFactory.obj
 0001:00027a40       ??1?$PoolBase@V?$PtrBlock@$0BA@@NpPtrTableStorageManager@physx@@V?$ReflectionAllocator@V?$PtrBlock@$0BA@@NpPtrTableStorageManager@physx@@@shdfnd@3@@shdfnd@physx@@QEAA@XZ 0000000180028a40 f i NpFactory.obj
 0001:00027ba0       ??1?$PoolBase@V?$PtrBlock@$0EA@@NpPtrTableStorageManager@physx@@V?$ReflectionAllocator@V?$PtrBlock@$0EA@@NpPtrTableStorageManager@physx@@@shdfnd@3@@shdfnd@physx@@QEAA@XZ 0000000180028ba0 f i NpFactory.obj
 0001:00027d00       ??1?$PoolBase@VNpAggregate@physx@@V?$ReflectionAllocator@VNpAggregate@physx@@@shdfnd@2@@shdfnd@physx@@QEAA@XZ 0000000180028d00 f i NpFactory.obj
 0001:00027f00       ??1?$PoolBase@VNpArticulation@physx@@V?$ReflectionAllocator@VNpArticulation@physx@@@shdfnd@2@@shdfnd@physx@@QEAA@XZ 0000000180028f00 f i NpFactory.obj
 0001:00028100       ??1?$PoolBase@VNpArticulationJoint@physx@@V?$ReflectionAllocator@VNpArticulationJoint@physx@@@shdfnd@2@@shdfnd@physx@@QEAA@XZ 0000000180029100 f i NpFactory.obj
 0001:00028300       ??1?$PoolBase@VNpArticulationJointReducedCoordinate@physx@@V?$ReflectionAllocator@VNpArticulationJointReducedCoordinate@physx@@@shdfnd@2@@shdfnd@physx@@QEAA@XZ 0000000180029300 f i NpFactory.obj
 0001:00028500       ??1?$PoolBase@VNpArticulationLink@physx@@V?$ReflectionAllocator@VNpArticulationLink@physx@@@shdfnd@2@@shdfnd@physx@@QEAA@XZ 0000000180029500 f i NpFactory.obj
 0001:00028700       ??1?$PoolBase@VNpArticulationReducedCoordinate@physx@@V?$ReflectionAllocator@VNpArticulationReducedCoordinate@physx@@@shdfnd@2@@shdfnd@physx@@QEAA@XZ 0000000180029700 f i NpFactory.obj
 0001:00028900       ??1?$PoolBase@VNpConnectorArray@physx@@V?$ReflectionAllocator@VNpConnectorArray@physx@@@shdfnd@2@@shdfnd@physx@@QEAA@XZ 0000000180029900 f i NpFactory.obj
 0001:00028980       ??1?$PoolBase@VNpConstraint@physx@@V?$ReflectionAllocator@VNpConstraint@physx@@@shdfnd@2@@shdfnd@physx@@QEAA@XZ 0000000180029980 f i NpFactory.obj
 0001:00028b80       ??1?$PoolBase@VNpMaterial@physx@@V?$ReflectionAllocator@VNpMaterial@physx@@@shdfnd@2@@shdfnd@physx@@QEAA@XZ 0000000180029b80 f i NpFactory.obj
 0001:00028d80       ??1?$PoolBase@VNpRigidDynamic@physx@@V?$ReflectionAllocator@VNpRigidDynamic@physx@@@shdfnd@2@@shdfnd@physx@@QEAA@XZ 0000000180029d80 f i NpFactory.obj
 0001:00028f80       ??1?$PoolBase@VNpRigidStatic@physx@@V?$ReflectionAllocator@VNpRigidStatic@physx@@@shdfnd@2@@shdfnd@physx@@QEAA@XZ 0000000180029f80 f i NpFactory.obj
 0001:00029180       ??1?$PoolBase@VNpShape@physx@@V?$ReflectionAllocator@VNpShape@physx@@@shdfnd@2@@shdfnd@physx@@QEAA@XZ 000000018002a180 f i NpFactory.obj
 0001:00029380       ??1PtrTableStorageManager@Cm@physx@@MEAA@XZ 000000018002a380 f i NpFactory.obj
 0001:00029390       ??_ENpFactory@physx@@EEAAPEAXI@Z 000000018002a390 f i NpFactory.obj
 0001:00029390       ??_GNpFactory@physx@@EEAAPEAXI@Z 000000018002a390 f i NpFactory.obj
 0001:000293f0       ??_GNpPtrTableStorageManager@physx@@UEAAPEAXI@Z 000000018002a3f0 f i NpFactory.obj
 0001:000293f0       ??_ENpPtrTableStorageManager@physx@@UEAAPEAXI@Z 000000018002a3f0 f i NpFactory.obj
 0001:000294b0       ??_EPtrTableStorageManager@Cm@physx@@MEAAPEAXI@Z 000000018002a4b0 f i NpFactory.obj
 0001:000294b0       ??_GPtrTableStorageManager@Cm@physx@@MEAAPEAXI@Z 000000018002a4b0 f i NpFactory.obj
 0001:000294e0       ?allocate@?$Array@PEAVPxActor@physx@@V?$ReflectionAllocator@PEAVPxActor@physx@@@shdfnd@2@@shdfnd@physx@@IEAAPEAPEAVPxActor@3@I@Z 000000018002a4e0 f i NpFactory.obj
 0001:00029580       ?allocate@?$Array@PEAVPxAggregate@physx@@V?$ReflectionAllocator@PEAVPxAggregate@physx@@@shdfnd@2@@shdfnd@physx@@IEAAPEAPEAVPxAggregate@3@I@Z 000000018002a580 f i NpFactory.obj
 0001:00029620       ?allocate@?$Array@PEAVPxArticulationBase@physx@@V?$ReflectionAllocator@PEAVPxArticulationBase@physx@@@shdfnd@2@@shdfnd@physx@@IEAAPEAPEAVPxArticulationBase@3@I@Z 000000018002a620 f i NpFactory.obj
 0001:000296c0       ?allocate@?$Array@PEAVPxConstraint@physx@@V?$ReflectionAllocator@PEAVPxConstraint@physx@@@shdfnd@2@@shdfnd@physx@@IEAAPEAPEAVPxConstraint@3@I@Z 000000018002a6c0 f i NpFactory.obj
 0001:00029760       ?allocate@?$ReflectionAllocator@G@shdfnd@physx@@QEAAPEAX_KPEBDH@Z 000000018002a760 f i NpFactory.obj
 0001:00029800       ?allocate@?$ReflectionAllocator@V?$PtrBlock@$03@NpPtrTableStorageManager@physx@@@shdfnd@physx@@QEAAPEAX_KPEBDH@Z 000000018002a800 f i NpFactory.obj
 0001:000298a0       ?allocate@?$ReflectionAllocator@V?$PtrBlock@$0BA@@NpPtrTableStorageManager@physx@@@shdfnd@physx@@QEAAPEAX_KPEBDH@Z 000000018002a8a0 f i NpFactory.obj
 0001:00029940       ?allocate@?$ReflectionAllocator@V?$PtrBlock@$0EA@@NpPtrTableStorageManager@physx@@@shdfnd@physx@@QEAAPEAX_KPEBDH@Z 000000018002a940 f i NpFactory.obj
 0001:000299e0       ?allocate@?$ReflectionAllocator@VNpAggregate@physx@@@shdfnd@physx@@QEAAPEAX_KPEBDH@Z 000000018002a9e0 f i NpFactory.obj
 0001:00029a80       ?allocate@?$ReflectionAllocator@VNpArticulation@physx@@@shdfnd@physx@@QEAAPEAX_KPEBDH@Z 000000018002aa80 f i NpFactory.obj
 0001:00029b20       ?allocate@?$ReflectionAllocator@VNpArticulationJoint@physx@@@shdfnd@physx@@QEAAPEAX_KPEBDH@Z 000000018002ab20 f i NpFactory.obj
 0001:00029bc0       ?allocate@?$ReflectionAllocator@VNpArticulationJointReducedCoordinate@physx@@@shdfnd@physx@@QEAAPEAX_KPEBDH@Z 000000018002abc0 f i NpFactory.obj
 0001:00029c60       ?allocate@?$ReflectionAllocator@VNpArticulationLink@physx@@@shdfnd@physx@@QEAAPEAX_KPEBDH@Z 000000018002ac60 f i NpFactory.obj
 0001:00029d00       ?allocate@?$ReflectionAllocator@VNpArticulationReducedCoordinate@physx@@@shdfnd@physx@@QEAAPEAX_KPEBDH@Z 000000018002ad00 f i NpFactory.obj
 0001:00029da0       ?allocate@?$ReflectionAllocator@VNpConnectorArray@physx@@@shdfnd@physx@@QEAAPEAX_KPEBDH@Z 000000018002ada0 f i NpFactory.obj
 0001:00029e40       ?allocate@?$ReflectionAllocator@VNpConstraint@physx@@@shdfnd@physx@@QEAAPEAX_KPEBDH@Z 000000018002ae40 f i NpFactory.obj
 0001:00029ee0       ?allocate@?$ReflectionAllocator@VNpMaterial@physx@@@shdfnd@physx@@QEAAPEAX_KPEBDH@Z 000000018002aee0 f i NpFactory.obj
 0001:00029f80       ?allocate@?$ReflectionAllocator@VNpRigidDynamic@physx@@@shdfnd@physx@@QEAAPEAX_KPEBDH@Z 000000018002af80 f i NpFactory.obj
 0001:0002a020       ?allocate@?$ReflectionAllocator@VNpRigidStatic@physx@@@shdfnd@physx@@QEAAPEAX_KPEBDH@Z 000000018002b020 f i NpFactory.obj
 0001:0002a0c0       ?allocate@?$ReflectionAllocator@VNpShape@physx@@@shdfnd@physx@@QEAAPEAX_KPEBDH@Z 000000018002b0c0 f i NpFactory.obj
 0001:0002a160       ?allocate@NpPtrTableStorageManager@physx@@UEAAPEAPEAXI@Z 000000018002b160 f i NpFactory.obj
 0001:0002a540       ?canReuse@NpPtrTableStorageManager@physx@@UEAA_NII@Z 000000018002b540 f i NpFactory.obj
 0001:0002a590       ?create@?$HashBase@PEAVPxActor@physx@@PEAV12@U?$Hash@PEAVPxActor@physx@@@shdfnd@2@UGetKey@?$HashSetBase@PEAVPxActor@physx@@U?$Hash@PEAVPxActor@physx@@@shdfnd@2@VNonTrackingAllocator@42@$0A@@internal@42@VNonTrackingAllocator@42@$0A@@internal@shdfnd@physx@@QEAAPEAPEAVPxActor@4@AEBQEAV54@AEA_N@Z 000000018002b590 f i NpFactory.obj
 0001:0002a740       ?create@?$HashBase@PEAVPxAggregate@physx@@PEAV12@U?$Hash@PEAVPxAggregate@physx@@@shdfnd@2@UGetKey@?$HashSetBase@PEAVPxAggregate@physx@@U?$Hash@PEAVPxAggregate@physx@@@shdfnd@2@VNonTrackingAllocator@42@$0A@@internal@42@VNonTrackingAllocator@42@$0A@@internal@shdfnd@physx@@QEAAPEAPEAVPxAggregate@4@AEBQEAV54@AEA_N@Z 000000018002b740 f i NpFactory.obj
 0001:0002a8f0       ?create@?$HashBase@PEAVPxArticulationBase@physx@@PEAV12@U?$Hash@PEAVPxArticulationBase@physx@@@shdfnd@2@UGetKey@?$HashSetBase@PEAVPxArticulationBase@physx@@U?$Hash@PEAVPxArticulationBase@physx@@@shdfnd@2@VNonTrackingAllocator@42@$0A@@internal@42@VNonTrackingAllocator@42@$0A@@internal@shdfnd@physx@@QEAAPEAPEAVPxArticulationBase@4@AEBQEAV54@AEA_N@Z 000000018002b8f0 f i NpFactory.obj
 0001:0002aaa0       ?create@?$HashBase@PEAVPxConstraint@physx@@PEAV12@U?$Hash@PEAVPxConstraint@physx@@@shdfnd@2@UGetKey@?$HashSetBase@PEAVPxConstraint@physx@@U?$Hash@PEAVPxConstraint@physx@@@shdfnd@2@VNonTrackingAllocator@42@$0A@@internal@42@VNonTrackingAllocator@42@$0A@@internal@shdfnd@physx@@QEAAPEAPEAVPxConstraint@4@AEBQEAV54@AEA_N@Z 000000018002baa0 f i NpFactory.obj
 0001:0002ac50       ?create@?$HashBase@PEAVPxShape@physx@@PEAV12@U?$Hash@PEAVPxShape@physx@@@shdfnd@2@UGetKey@?$HashSetBase@PEAVPxShape@physx@@U?$Hash@PEAVPxShape@physx@@@shdfnd@2@VNonTrackingAllocator@42@$00@internal@42@VNonTrackingAllocator@42@$00@internal@shdfnd@physx@@QEAAPEAPEAVPxShape@4@AEBQEAV54@AEA_N@Z 000000018002bc50 f i NpFactory.obj
 0001:0002adf0       ?deallocate@NpPtrTableStorageManager@physx@@UEAAXPEAPEAXI@Z 000000018002bdf0 f i NpFactory.obj
 0001:0002aea0       ?disposeElements@?$PoolBase@VNpConnectorArray@physx@@V?$ReflectionAllocator@VNpConnectorArray@physx@@@shdfnd@2@@shdfnd@physx@@IEAAXXZ 000000018002bea0 f i NpFactory.obj
 0001:0002b0a0       ?erase@?$HashBase@PEAVPxShape@physx@@PEAV12@U?$Hash@PEAVPxShape@physx@@@shdfnd@2@UGetKey@?$HashSetBase@PEAVPxShape@physx@@U?$Hash@PEAVPxShape@physx@@@shdfnd@2@VNonTrackingAllocator@42@$00@internal@42@VNonTrackingAllocator@42@$00@internal@shdfnd@physx@@QEAA_NAEBQEAVPxShape@4@@Z 000000018002c0a0 f i NpFactory.obj
 0001:0002b210       ?growAndPushBack@?$Array@PEAVPxActor@physx@@V?$ReflectionAllocator@PEAVPxActor@physx@@@shdfnd@2@@shdfnd@physx@@IEAAAEAPEAVPxActor@3@AEBQEAV43@@Z 000000018002c210 f i NpFactory.obj
 0001:0002b2d0       ?growAndPushBack@?$Array@PEAVPxAggregate@physx@@V?$ReflectionAllocator@PEAVPxAggregate@physx@@@shdfnd@2@@shdfnd@physx@@IEAAAEAPEAVPxAggregate@3@AEBQEAV43@@Z 000000018002c2d0 f i NpFactory.obj
 0001:0002b390       ?growAndPushBack@?$Array@PEAVPxArticulationBase@physx@@V?$ReflectionAllocator@PEAVPxArticulationBase@physx@@@shdfnd@2@@shdfnd@physx@@IEAAAEAPEAVPxArticulationBase@3@AEBQEAV43@@Z 000000018002c390 f i NpFactory.obj
 0001:0002b450       ?growAndPushBack@?$Array@PEAVPxConstraint@physx@@V?$ReflectionAllocator@PEAVPxConstraint@physx@@@shdfnd@2@@shdfnd@physx@@IEAAAEAPEAVPxConstraint@3@AEBQEAV43@@Z 000000018002c450 f i NpFactory.obj
 0001:0002b510       ?growAndPushBack@?$Array@PEAXV?$InlineAllocator@$0CAA@V?$ReflectionAllocator@V?$PtrBlock@$03@NpPtrTableStorageManager@physx@@@shdfnd@physx@@@shdfnd@physx@@@shdfnd@physx@@IEAAAEAPEAXAEBQEAX@Z 000000018002c510 f i NpFactory.obj
 0001:0002b630       ?growAndPushBack@?$Array@PEAXV?$InlineAllocator@$0CAA@V?$ReflectionAllocator@V?$PtrBlock@$0BA@@NpPtrTableStorageManager@physx@@@shdfnd@physx@@@shdfnd@physx@@@shdfnd@physx@@IEAAAEAPEAXAEBQEAX@Z 000000018002c630 f i NpFactory.obj
 0001:0002b750       ?growAndPushBack@?$Array@PEAXV?$InlineAllocator@$0CAA@V?$ReflectionAllocator@V?$PtrBlock@$0EA@@NpPtrTableStorageManager@physx@@@shdfnd@physx@@@shdfnd@physx@@@shdfnd@physx@@IEAAAEAPEAXAEBQEAX@Z 000000018002c750 f i NpFactory.obj
 0001:0002b870       ?growAndPushBack@?$Array@PEAXV?$InlineAllocator@$0CAA@V?$ReflectionAllocator@VNpAggregate@physx@@@shdfnd@physx@@@shdfnd@physx@@@shdfnd@physx@@IEAAAEAPEAXAEBQEAX@Z 000000018002c870 f i NpFactory.obj
 0001:0002b990       ?growAndPushBack@?$Array@PEAXV?$InlineAllocator@$0CAA@V?$ReflectionAllocator@VNpArticulation@physx@@@shdfnd@physx@@@shdfnd@physx@@@shdfnd@physx@@IEAAAEAPEAXAEBQEAX@Z 000000018002c990 f i NpFactory.obj
 0001:0002bab0       ?growAndPushBack@?$Array@PEAXV?$InlineAllocator@$0CAA@V?$ReflectionAllocator@VNpArticulationJoint@physx@@@shdfnd@physx@@@shdfnd@physx@@@shdfnd@physx@@IEAAAEAPEAXAEBQEAX@Z 000000018002cab0 f i NpFactory.obj
 0001:0002bbd0       ?growAndPushBack@?$Array@PEAXV?$InlineAllocator@$0CAA@V?$ReflectionAllocator@VNpArticulationJointReducedCoordinate@physx@@@shdfnd@physx@@@shdfnd@physx@@@shdfnd@physx@@IEAAAEAPEAXAEBQEAX@Z 000000018002cbd0 f i NpFactory.obj
 0001:0002bcf0       ?growAndPushBack@?$Array@PEAXV?$InlineAllocator@$0CAA@V?$ReflectionAllocator@VNpArticulationLink@physx@@@shdfnd@physx@@@shdfnd@physx@@@shdfnd@physx@@IEAAAEAPEAXAEBQEAX@Z 000000018002ccf0 f i NpFactory.obj
 0001:0002be10       ?growAndPushBack@?$Array@PEAXV?$InlineAllocator@$0CAA@V?$ReflectionAllocator@VNpArticulationReducedCoordinate@physx@@@shdfnd@physx@@@shdfnd@physx@@@shdfnd@physx@@IEAAAEAPEAXAEBQEAX@Z 000000018002ce10 f i NpFactory.obj
 0001:0002bf30       ?growAndPushBack@?$Array@PEAXV?$InlineAllocator@$0CAA@V?$ReflectionAllocator@VNpConnectorArray@physx@@@shdfnd@physx@@@shdfnd@physx@@@shdfnd@physx@@IEAAAEAPEAXAEBQEAX@Z 000000018002cf30 f i NpFactory.obj
 0001:0002c050       ?growAndPushBack@?$Array@PEAXV?$InlineAllocator@$0CAA@V?$ReflectionAllocator@VNpConstraint@physx@@@shdfnd@physx@@@shdfnd@physx@@@shdfnd@physx@@IEAAAEAPEAXAEBQEAX@Z 000000018002d050 f i NpFactory.obj
 0001:0002c170       ?growAndPushBack@?$Array@PEAXV?$InlineAllocator@$0CAA@V?$ReflectionAllocator@VNpMaterial@physx@@@shdfnd@physx@@@shdfnd@physx@@@shdfnd@physx@@IEAAAEAPEAXAEBQEAX@Z 000000018002d170 f i NpFactory.obj
 0001:0002c290       ?growAndPushBack@?$Array@PEAXV?$InlineAllocator@$0CAA@V?$ReflectionAllocator@VNpRigidDynamic@physx@@@shdfnd@physx@@@shdfnd@physx@@@shdfnd@physx@@IEAAAEAPEAXAEBQEAX@Z 000000018002d290 f i NpFactory.obj
 0001:0002c3b0       ?growAndPushBack@?$Array@PEAXV?$InlineAllocator@$0CAA@V?$ReflectionAllocator@VNpRigidStatic@physx@@@shdfnd@physx@@@shdfnd@physx@@@shdfnd@physx@@IEAAAEAPEAXAEBQEAX@Z 000000018002d3b0 f i NpFactory.obj
 0001:0002c4d0       ?growAndPushBack@?$Array@PEAXV?$InlineAllocator@$0CAA@V?$ReflectionAllocator@VNpShape@physx@@@shdfnd@physx@@@shdfnd@physx@@@shdfnd@physx@@IEAAAEAPEAXAEBQEAX@Z 000000018002d4d0 f i NpFactory.obj
 0001:0002c5f0       ?growAndPushBack@?$Array@PEAXV?$ReflectionAllocator@V?$PtrBlock@$03@NpPtrTableStorageManager@physx@@@shdfnd@physx@@@shdfnd@physx@@IEAAAEAPEAXAEBQEAX@Z 000000018002d5f0 f i NpFactory.obj
 0001:0002c6d0       ?growAndPushBack@?$Array@PEAXV?$ReflectionAllocator@V?$PtrBlock@$0BA@@NpPtrTableStorageManager@physx@@@shdfnd@physx@@@shdfnd@physx@@IEAAAEAPEAXAEBQEAX@Z 000000018002d6d0 f i NpFactory.obj
 0001:0002c7b0       ?growAndPushBack@?$Array@PEAXV?$ReflectionAllocator@V?$PtrBlock@$0EA@@NpPtrTableStorageManager@physx@@@shdfnd@physx@@@shdfnd@physx@@IEAAAEAPEAXAEBQEAX@Z 000000018002d7b0 f i NpFactory.obj
 0001:0002c890       ?growAndPushBack@?$Array@PEAXV?$ReflectionAllocator@VNpAggregate@physx@@@shdfnd@physx@@@shdfnd@physx@@IEAAAEAPEAXAEBQEAX@Z 000000018002d890 f i NpFactory.obj
 0001:0002c970       ?growAndPushBack@?$Array@PEAXV?$ReflectionAllocator@VNpArticulation@physx@@@shdfnd@physx@@@shdfnd@physx@@IEAAAEAPEAXAEBQEAX@Z 000000018002d970 f i NpFactory.obj
 0001:0002ca50       ?growAndPushBack@?$Array@PEAXV?$ReflectionAllocator@VNpArticulationJoint@physx@@@shdfnd@physx@@@shdfnd@physx@@IEAAAEAPEAXAEBQEAX@Z 000000018002da50 f i NpFactory.obj
 0001:0002cb30       ?growAndPushBack@?$Array@PEAXV?$ReflectionAllocator@VNpArticulationJointReducedCoordinate@physx@@@shdfnd@physx@@@shdfnd@physx@@IEAAAEAPEAXAEBQEAX@Z 000000018002db30 f i NpFactory.obj
 0001:0002cc10       ?growAndPushBack@?$Array@PEAXV?$ReflectionAllocator@VNpArticulationLink@physx@@@shdfnd@physx@@@shdfnd@physx@@IEAAAEAPEAXAEBQEAX@Z 000000018002dc10 f i NpFactory.obj
 0001:0002ccf0       ?growAndPushBack@?$Array@PEAXV?$ReflectionAllocator@VNpArticulationReducedCoordinate@physx@@@shdfnd@physx@@@shdfnd@physx@@IEAAAEAPEAXAEBQEAX@Z 000000018002dcf0 f i NpFactory.obj
 0001:0002cdd0       ?growAndPushBack@?$Array@PEAXV?$ReflectionAllocator@VNpConnectorArray@physx@@@shdfnd@physx@@@shdfnd@physx@@IEAAAEAPEAXAEBQEAX@Z 000000018002ddd0 f i NpFactory.obj
 0001:0002ceb0       ?growAndPushBack@?$Array@PEAXV?$ReflectionAllocator@VNpConstraint@physx@@@shdfnd@physx@@@shdfnd@physx@@IEAAAEAPEAXAEBQEAX@Z 000000018002deb0 f i NpFactory.obj
 0001:0002cf90       ?growAndPushBack@?$Array@PEAXV?$ReflectionAllocator@VNpMaterial@physx@@@shdfnd@physx@@@shdfnd@physx@@IEAAAEAPEAXAEBQEAX@Z 000000018002df90 f i NpFactory.obj
 0001:0002d070       ?growAndPushBack@?$Array@PEAXV?$ReflectionAllocator@VNpRigidDynamic@physx@@@shdfnd@physx@@@shdfnd@physx@@IEAAAEAPEAXAEBQEAX@Z 000000018002e070 f i NpFactory.obj
 0001:0002d150       ?growAndPushBack@?$Array@PEAXV?$ReflectionAllocator@VNpRigidStatic@physx@@@shdfnd@physx@@@shdfnd@physx@@IEAAAEAPEAXAEBQEAX@Z 000000018002e150 f i NpFactory.obj
 0001:0002d230       ?growAndPushBack@?$Array@PEAXV?$ReflectionAllocator@VNpShape@physx@@@shdfnd@physx@@@shdfnd@physx@@IEAAAEAPEAXAEBQEAX@Z 000000018002e230 f i NpFactory.obj
 0001:0002d310       ?recreate@?$Array@GV?$InlineAllocator@$07V?$ReflectionAllocator@G@shdfnd@physx@@@shdfnd@physx@@@shdfnd@physx@@IEAAXI@Z 000000018002e310 f i NpFactory.obj
 0001:0002d3d0       ?recreate@?$Array@PEAVPxActor@physx@@V?$ReflectionAllocator@PEAVPxActor@physx@@@shdfnd@2@@shdfnd@physx@@IEAAXI@Z 000000018002e3d0 f i NpFactory.obj
 0001:0002d470       ?recreate@?$Array@PEAVPxAggregate@physx@@V?$ReflectionAllocator@PEAVPxAggregate@physx@@@shdfnd@2@@shdfnd@physx@@IEAAXI@Z 000000018002e470 f i NpFactory.obj
 0001:0002d510       ?recreate@?$Array@PEAVPxArticulationBase@physx@@V?$ReflectionAllocator@PEAVPxArticulationBase@physx@@@shdfnd@2@@shdfnd@physx@@IEAAXI@Z 000000018002e510 f i NpFactory.obj
 0001:0002d5b0       ?recreate@?$Array@PEAVPxConstraint@physx@@V?$ReflectionAllocator@PEAVPxConstraint@physx@@@shdfnd@2@@shdfnd@physx@@IEAAXI@Z 000000018002e5b0 f i NpFactory.obj
 0001:0002d650       ?reserveInternal@?$HashBase@PEAVPxActor@physx@@PEAV12@U?$Hash@PEAVPxActor@physx@@@shdfnd@2@UGetKey@?$HashSetBase@PEAVPxActor@physx@@U?$Hash@PEAVPxActor@physx@@@shdfnd@2@VNonTrackingAllocator@42@$0A@@internal@42@VNonTrackingAllocator@42@$0A@@internal@shdfnd@physx@@AEAAXI@Z 000000018002e650 f i NpFactory.obj
 0001:0002da40       ?reserveInternal@?$HashBase@PEAVPxAggregate@physx@@PEAV12@U?$Hash@PEAVPxAggregate@physx@@@shdfnd@2@UGetKey@?$HashSetBase@PEAVPxAggregate@physx@@U?$Hash@PEAVPxAggregate@physx@@@shdfnd@2@VNonTrackingAllocator@42@$0A@@internal@42@VNonTrackingAllocator@42@$0A@@internal@shdfnd@physx@@AEAAXI@Z 000000018002ea40 f i NpFactory.obj
 0001:0002de30       ?reserveInternal@?$HashBase@PEAVPxArticulationBase@physx@@PEAV12@U?$Hash@PEAVPxArticulationBase@physx@@@shdfnd@2@UGetKey@?$HashSetBase@PEAVPxArticulationBase@physx@@U?$Hash@PEAVPxArticulationBase@physx@@@shdfnd@2@VNonTrackingAllocator@42@$0A@@internal@42@VNonTrackingAllocator@42@$0A@@internal@shdfnd@physx@@AEAAXI@Z 000000018002ee30 f i NpFactory.obj
 0001:0002e220       ?reserveInternal@?$HashBase@PEAVPxConstraint@physx@@PEAV12@U?$Hash@PEAVPxConstraint@physx@@@shdfnd@2@UGetKey@?$HashSetBase@PEAVPxConstraint@physx@@U?$Hash@PEAVPxConstraint@physx@@@shdfnd@2@VNonTrackingAllocator@42@$0A@@internal@42@VNonTrackingAllocator@42@$0A@@internal@shdfnd@physx@@AEAAXI@Z 000000018002f220 f i NpFactory.obj
 0001:0002e610       ?reserveInternal@?$HashBase@PEAVPxShape@physx@@PEAV12@U?$Hash@PEAVPxShape@physx@@@shdfnd@2@UGetKey@?$HashSetBase@PEAVPxShape@physx@@U?$Hash@PEAVPxShape@physx@@@shdfnd@2@VNonTrackingAllocator@42@$00@internal@42@VNonTrackingAllocator@42@$00@internal@shdfnd@physx@@AEAAXI@Z 000000018002f610 f i NpFactory.obj
 0001:0002e7e0       ?resize@?$Array@GV?$InlineAllocator@$07V?$ReflectionAllocator@G@shdfnd@physx@@@shdfnd@physx@@@shdfnd@physx@@QEAAXIAEBG@Z 000000018002f7e0 f i NpFactory.obj
 0001:0002e8a0       ?onRefCountZero@NpMaterial@physx@@UEAAXXZ 000000018002f8a0 f   NpMaterial.obj
 0001:0002e900       ?resolveReferences@NpMaterial@physx@@UEAAXAEAVPxDeserializationContext@2@@Z 000000018002f900 f   NpMaterial.obj
 0001:0002e920       ?createObject@NpMaterial@physx@@SAPEAV12@AEAPEAEAEAVPxDeserializationContext@2@@Z 000000018002f920 f   NpMaterial.obj
 0001:0002e9d0       ??0NpMaterial@physx@@QEAA@AEBVMaterialCore@Sc@1@@Z 000000018002f9d0 f   NpMaterial.obj
 0001:0002ea60       ??1NpMaterial@physx@@UEAA@XZ 000000018002fa60 f   NpMaterial.obj
 0001:0002eab0       ?release@NpMaterial@physx@@UEAAXXZ 000000018002fab0 f   NpMaterial.obj
 0001:0002eaf0       ?acquireReference@NpMaterial@physx@@UEAAXXZ 000000018002faf0 f   NpMaterial.obj
 0001:0002eb00       ?getReferenceCount@NpMaterial@physx@@UEBAIXZ 000000018002fb00 f   NpMaterial.obj
 0001:0002eb10       ?setDynamicFriction@NpMaterial@physx@@UEAAXM@Z 000000018002fb10 f   NpMaterial.obj
 0001:0002eb30       ?getDynamicFriction@NpMaterial@physx@@UEBAMXZ 000000018002fb30 f   NpMaterial.obj
 0001:0002eb40       ?setStaticFriction@NpMaterial@physx@@UEAAXM@Z 000000018002fb40 f   NpMaterial.obj
 0001:0002eb60       ?getStaticFriction@NpMaterial@physx@@UEBAMXZ 000000018002fb60 f   NpMaterial.obj
 0001:0002eb70       ?setRestitution@NpMaterial@physx@@UEAAXM@Z 000000018002fb70 f   NpMaterial.obj
 0001:0002ec00       ?getRestitution@NpMaterial@physx@@UEBAMXZ 000000018002fc00 f   NpMaterial.obj
 0001:0002ec10       ?setFlag@NpMaterial@physx@@UEAAXW4Enum@PxMaterialFlag@2@_N@Z 000000018002fc10 f   NpMaterial.obj
 0001:0002ec50       ?setFlags@NpMaterial@physx@@UEAAXV?$PxFlags@W4Enum@PxMaterialFlag@physx@@G@2@@Z 000000018002fc50 f   NpMaterial.obj
 0001:0002ec70       ?getFlags@NpMaterial@physx@@UEBA?AV?$PxFlags@W4Enum@PxMaterialFlag@physx@@G@2@XZ 000000018002fc70 f   NpMaterial.obj
 0001:0002ec90       ?setFrictionCombineMode@NpMaterial@physx@@UEAAXW4Enum@PxCombineMode@2@@Z 000000018002fc90 f   NpMaterial.obj
 0001:0002ecb0       ?getFrictionCombineMode@NpMaterial@physx@@UEBA?AW4Enum@PxCombineMode@2@XZ 000000018002fcb0 f   NpMaterial.obj
 0001:0002ecc0       ?setRestitutionCombineMode@NpMaterial@physx@@UEAAXW4Enum@PxCombineMode@2@@Z 000000018002fcc0 f   NpMaterial.obj
 0001:0002ece0       ?getRestitutionCombineMode@NpMaterial@physx@@UEBA?AW4Enum@PxCombineMode@2@XZ 000000018002fce0 f   NpMaterial.obj
 0001:0002ecf0       ??1PxMaterial@physx@@MEAA@XZ 000000018002fcf0 f i NpMaterial.obj
 0001:0002ed00       ??1RefCountable@Cm@physx@@UEAA@XZ 000000018002fd00 f i NpMaterial.obj
 0001:0002ed0c       ??_ENpMaterial@physx@@WBI@EAAPEAXI@Z 000000018002fd0c f i NpMaterial.obj
 0001:0002ed20       ??_ENpMaterial@physx@@UEAAPEAXI@Z 000000018002fd20 f i NpMaterial.obj
 0001:0002ed20       ??_GNpMaterial@physx@@UEAAPEAXI@Z 000000018002fd20 f i NpMaterial.obj
 0001:0002edb0       ??_GPxMaterial@physx@@MEAAPEAXI@Z 000000018002fdb0 f i NpMaterial.obj
 0001:0002edb0       ??_EPxMaterial@physx@@MEAAPEAXI@Z 000000018002fdb0 f i NpMaterial.obj
 0001:0002ede0       ??_ERefCountable@Cm@physx@@UEAAPEAXI@Z 000000018002fde0 f i NpMaterial.obj
 0001:0002ede0       ??_GRefCountable@Cm@physx@@UEAAPEAXI@Z 000000018002fde0 f i NpMaterial.obj
 0001:0002ee10       ?getConcreteTypeName@PxMaterial@physx@@UEBAPEBDXZ 000000018002fe10 f i NpMaterial.obj
 0001:0002ee20       ?isKindOf@PxMaterial@physx@@MEBA_NPEBD@Z 000000018002fe20 f i NpMaterial.obj
 0001:0002ee70       ?onRefCountZero@RefCountable@Cm@physx@@UEAAXXZ 000000018002fe70 f i NpMaterial.obj
 0001:0002ee90       ?requiresObjects@NpMaterial@physx@@UEAAXAEAVPxProcessPxBaseCallback@2@@Z 000000018002fe90 f i NpMaterial.obj
 0001:0002eea0       PxGetPhysicsBinaryMetaData 000000018002fea0 f   NpMetaData.obj
 0001:0002f930       ?getBinaryMetaData_PxBase@physx@@YAXAEAVPxOutputStream@1@@Z 0000000180030930 f   NpMetaData.obj
 0001:0002fa80       ?getBinaryMetaData@RefCountable@Cm@physx@@SAXAEAVPxOutputStream@3@@Z 0000000180030a80 f   NpMetaData.obj
 0001:0002fb20       ?getBinaryMetaData@NpMaterial@physx@@SAXAEAVPxOutputStream@2@@Z 0000000180030b20 f   NpMetaData.obj
 0001:0002fc80       ?getBinaryMetaData@NpShape@physx@@SAXAEAVPxOutputStream@2@@Z 0000000180030c80 f   NpMetaData.obj
 0001:0002ff10       ?getBinaryMetaData@NpShapeManager@physx@@SAXAEAVPxOutputStream@2@@Z 0000000180030f10 f   NpMetaData.obj
 0001:00030080       ?getBinaryMetaData@NpConstraint@physx@@SAXAEAVPxOutputStream@2@@Z 0000000180031080 f   NpMetaData.obj
 0001:00030260       ?getBinaryMetaData@NpConnector@physx@@SAXAEAVPxOutputStream@2@@Z 0000000180031260 f   NpMetaData.obj
 0001:00030390       ?getBinaryMetaData@NpConnectorArray@physx@@SAXAEAVPxOutputStream@2@@Z 0000000180031390 f   NpMetaData.obj
 0001:000305c0       ?getBinaryMetaData@NpActor@physx@@SAXAEAVPxOutputStream@2@@Z 00000001800315c0 f   NpMetaData.obj
 0001:000306b0       ?getBinaryMetaData@NpRigidStatic@physx@@SAXAEAVPxOutputStream@2@@Z 00000001800316b0 f   NpMetaData.obj
 0001:00030910       ?getBinaryMetaData@NpRigidDynamic@physx@@SAXAEAVPxOutputStream@2@@Z 0000000180031910 f   NpMetaData.obj
 0001:00030b70       ?getBinaryMetaData@NpArticulationLinkArray@physx@@SAXAEAVPxOutputStream@2@@Z 0000000180031b70 f   NpMetaData.obj
 0001:00030da0       ?getBinaryMetaData@NpArticulationLink@physx@@SAXAEAVPxOutputStream@2@@Z 0000000180031da0 f   NpMetaData.obj
 0001:00031180       ?getBinaryMetaData@NpAggregate@physx@@SAXAEAVPxOutputStream@2@@Z 0000000180032180 f   NpMetaData.obj
 0001:00031330       ?getBinaryMetaData@NpArticulationJoint@physx@@SAXAEAVPxOutputStream@2@@Z 0000000180032330 f   NpMetaData.obj
 0001:000314d0       ?getBinaryMetaData@NpArticulation@physx@@SAXAEAVPxOutputStream@2@@Z 00000001800324d0 f   NpMetaData.obj
 0001:00032500       PxRegisterArticulations    0000000180033500 f   NpPhysics.obj
 0001:00032520       PxRegisterArticulationsReducedCoordinate 0000000180033520 f   NpPhysics.obj
 0001:00032540       PxRegisterHeightFields     0000000180033540 f   NpPhysics.obj
 0001:00032560       PxCreateBasePhysics        0000000180033560 f   NpPhysics.obj
 0001:00032770       PxGetPhysics               0000000180033770 f   NpPhysics.obj
 0001:00032780       ??0NpPhysics@physx@@AEAA@AEBVPxTolerancesScale@1@AEBUPxvOffsetTable@1@_NPEAVPsPvd@pvdsdk@1@@Z 0000000180033780 f   NpPhysics.obj
 0001:000329f0       ??1NpPhysics@physx@@EEAA@XZ 00000001800339f0 f   NpPhysics.obj
 0001:00032d00       ?createInstance@NpPhysics@physx@@SAPEAV12@IAEAVPxFoundation@2@AEBVPxTolerancesScale@2@_NPEAVPsPvd@pvdsdk@2@@Z 0000000180033d00 f   NpPhysics.obj
 0001:00032f10       ?releaseInstance@NpPhysics@physx@@SAIXZ 0000000180033f10 f   NpPhysics.obj
 0001:00032f70       ?release@NpPhysics@physx@@UEAAXXZ 0000000180033f70 f   NpPhysics.obj
 0001:00032fc0       ?createScene@NpPhysics@physx@@UEAAPEAVPxScene@2@AEBVPxSceneDesc@2@@Z 0000000180033fc0 f   NpPhysics.obj
 0001:00033190       ?releaseSceneInternal@NpPhysics@physx@@QEAAXAEAVPxScene@2@@Z 0000000180034190 f   NpPhysics.obj
 0001:00033210       ?getNbScenes@NpPhysics@physx@@UEBAIXZ 0000000180034210 f   NpPhysics.obj
 0001:00033250       ?getScenes@NpPhysics@physx@@UEBAIPEAPEAVPxScene@2@II@Z 0000000180034250 f   NpPhysics.obj
 0001:000332e0       ?createRigidStatic@NpPhysics@physx@@UEAAPEAVPxRigidStatic@2@AEBVPxTransform@2@@Z 00000001800342e0 f   NpPhysics.obj
 0001:000333b0       ?createRigidDynamic@NpPhysics@physx@@UEAAPEAVPxRigidDynamic@2@AEBVPxTransform@2@@Z 00000001800343b0 f   NpPhysics.obj
 0001:00033480       ?createArticulation@NpPhysics@physx@@UEAAPEAVPxArticulation@2@XZ 0000000180034480 f   NpPhysics.obj
 0001:000334a0       ?createArticulationReducedCoordinate@NpPhysics@physx@@UEAAPEAVPxArticulationReducedCoordinate@2@XZ 00000001800344a0 f   NpPhysics.obj
 0001:000334c0       ?createConstraint@NpPhysics@physx@@UEAAPEAVPxConstraint@2@PEAVPxRigidActor@2@0AEAVPxConstraintConnector@2@AEBUPxConstraintShaderTable@2@I@Z 00000001800344c0 f   NpPhysics.obj
 0001:000334e0       ?createAggregate@NpPhysics@physx@@UEAAPEAVPxAggregate@2@I_N@Z 00000001800344e0 f   NpPhysics.obj
 0001:00033500       ?createShape@NpPhysics@physx@@UEAAPEAVPxShape@2@AEBVPxGeometry@2@PEBQEAVPxMaterial@2@G_NV?$PxFlags@W4Enum@PxShapeFlag@physx@@E@2@@Z 0000000180034500 f   NpPhysics.obj
 0001:00033540       ?getNbShapes@NpPhysics@physx@@UEBAIXZ 0000000180034540 f   NpPhysics.obj
 0001:00033560       ?getShapes@NpPhysics@physx@@UEBAIPEAPEAVPxShape@2@II@Z 0000000180034560 f   NpPhysics.obj
 0001:00033580       ?createMaterial@NpPhysics@physx@@UEAAPEAVPxMaterial@2@MMM@Z 0000000180034580 f   NpPhysics.obj
 0001:000335b0       ?getNbMaterials@NpPhysics@physx@@UEBAIXZ 00000001800345b0 f   NpPhysics.obj
 0001:000335f0       ?getMaterials@NpPhysics@physx@@UEBAIPEAPEAVPxMaterial@2@II@Z 00000001800345f0 f   NpPhysics.obj
 0001:000336b0       ?createTriangleMesh@NpPhysics@physx@@UEAAPEAVPxTriangleMesh@2@AEAVPxInputStream@2@@Z 00000001800346b0 f   NpPhysics.obj
 0001:000336d0       ?getNbTriangleMeshes@NpPhysics@physx@@UEBAIXZ 00000001800346d0 f   NpPhysics.obj
 0001:000336f0       ?getTriangleMeshes@NpPhysics@physx@@UEBAIPEAPEAVPxTriangleMesh@2@II@Z 00000001800346f0 f   NpPhysics.obj
 0001:00033710       ?createHeightField@NpPhysics@physx@@UEAAPEAVPxHeightField@2@AEAVPxInputStream@2@@Z 0000000180034710 f   NpPhysics.obj
 0001:00033730       ?getNbHeightFields@NpPhysics@physx@@UEBAIXZ 0000000180034730 f   NpPhysics.obj
 0001:00033750       ?getHeightFields@NpPhysics@physx@@UEBAIPEAPEAVPxHeightField@2@II@Z 0000000180034750 f   NpPhysics.obj
 0001:00033770       ?createConvexMesh@NpPhysics@physx@@UEAAPEAVPxConvexMesh@2@AEAVPxInputStream@2@@Z 0000000180034770 f   NpPhysics.obj
 0001:00033790       ?getNbConvexMeshes@NpPhysics@physx@@UEBAIXZ 0000000180034790 f   NpPhysics.obj
 0001:000337b0       ?getConvexMeshes@NpPhysics@physx@@UEBAIPEAPEAVPxConvexMesh@2@II@Z 00000001800347b0 f   NpPhysics.obj
 0001:000337d0       ?createBVHStructure@NpPhysics@physx@@UEAAPEAVPxBVHStructure@2@AEAVPxInputStream@2@@Z 00000001800347d0 f   NpPhysics.obj
 0001:000337f0       ?getNbBVHStructures@NpPhysics@physx@@UEBAIXZ 00000001800347f0 f   NpPhysics.obj
 0001:00033810       ?getBVHStructures@NpPhysics@physx@@UEBAIPEAPEAVPxBVHStructure@2@II@Z 0000000180034810 f   NpPhysics.obj
 0001:00033830       ?registerPhysXIndicatorGpuClient@NpPhysics@physx@@QEAAXXZ 0000000180034830 f   NpPhysics.obj
 0001:00033880       ?unregisterPhysXIndicatorGpuClient@NpPhysics@physx@@QEAAXXZ 0000000180034880 f   NpPhysics.obj
 0001:000338d0       ?createPruningStructure@NpPhysics@physx@@UEAAPEAVPxPruningStructure@2@PEBQEAVPxRigidActor@2@I@Z 00000001800348d0 f   NpPhysics.obj
 0001:000339c0       ?getTolerancesScale@NpPhysics@physx@@UEBAAEBVPxTolerancesScale@2@XZ 00000001800349c0 f   NpPhysics.obj
 0001:000339d0       ?getFoundation@NpPhysics@physx@@UEAAAEAVPxFoundation@2@XZ 00000001800349d0 f   NpPhysics.obj
 0001:000339e0       ?registerDeletionListener@NpPhysics@physx@@UEAAXAEAVPxDeletionListener@2@AEBV?$PxFlags@W4Enum@PxDeletionEventFlag@physx@@E@2@_N@Z 00000001800349e0 f   NpPhysics.obj
 0001:00033bd0       ?unregisterDeletionListener@NpPhysics@physx@@UEAAXAEAVPxDeletionListener@2@@Z 0000000180034bd0 f   NpPhysics.obj
 0001:00033d00       ?registerDeletionListenerObjects@NpPhysics@physx@@UEAAXAEAVPxDeletionListener@2@PEBQEBVPxBase@2@I@Z 0000000180034d00 f   NpPhysics.obj
 0001:00033e40       ?unregisterDeletionListenerObjects@NpPhysics@physx@@UEAAXAEAVPxDeletionListener@2@PEBQEBVPxBase@2@I@Z 0000000180034e40 f   NpPhysics.obj
 0001:00034040       ?notifyDeletionListeners@NpPhysics@physx@@QEAAXPEBVPxBase@2@PEAXW4Enum@PxDeletionEventFlag@2@@Z 0000000180035040 f   NpPhysics.obj
 0001:00034190       ?removeMaterialFromTable@NpPhysics@physx@@QEAAXAEAVNpMaterial@2@@Z 0000000180035190 f   NpPhysics.obj
 0001:00034250       ?updateMaterial@NpPhysics@physx@@QEAAXAEAVNpMaterial@2@@Z 0000000180035250 f   NpPhysics.obj
 0001:000342d0       ?sendMaterialTable@NpPhysics@physx@@QEAA_NAEAVNpScene@2@@Z 00000001800352d0 f   NpPhysics.obj
 0001:00034350       ?addMaterial@NpPhysics@physx@@QEAAPEAVNpMaterial@2@PEAV32@@Z 0000000180035350 f   NpPhysics.obj
 0001:000344c0       ?initOffsetTables@NpPhysics@physx@@SAXAEAUPxvOffsetTable@2@@Z 00000001800354c0 f   NpPhysics.obj
 0001:00034540       PxAddCollectionToPhysics   0000000180035540 f   NpPhysics.obj
 0001:00034550       ??1GuMeshFactoryListener@physx@@MEAA@XZ 0000000180035550 f i NpPhysics.obj
 0001:00034560       ??1PxPhysics@physx@@UEAA@XZ 0000000180035560 f i NpPhysics.obj
 0001:00034570       ??1PxPhysicsInsertionCallback@physx@@MEAA@XZ 0000000180035570 f i NpPhysics.obj
 0001:00034580       ??_EGuMeshFactoryListener@physx@@MEAAPEAXI@Z 0000000180035580 f i NpPhysics.obj
 0001:00034580       ??_GGuMeshFactoryListener@physx@@MEAAPEAXI@Z 0000000180035580 f i NpPhysics.obj
 0001:000345b0       ??_GMeshDeletionListener@NpPhysics@physx@@UEAAPEAXI@Z 00000001800355b0 f i NpPhysics.obj
 0001:000345b0       ??_EMeshDeletionListener@NpPhysics@physx@@UEAAPEAXI@Z 00000001800355b0 f i NpPhysics.obj
 0001:000345e0       ??_GNpPhysics@physx@@EEAAPEAXI@Z 00000001800355e0 f i NpPhysics.obj
 0001:000345e0       ??_ENpPhysics@physx@@EEAAPEAXI@Z 00000001800355e0 f i NpPhysics.obj
 0001:00034640       ??_ENpPhysicsInsertionCallback@physx@@UEAAPEAXI@Z 0000000180035640 f i NpPhysics.obj
 0001:00034640       ??_GNpPhysicsInsertionCallback@physx@@UEAAPEAXI@Z 0000000180035640 f i NpPhysics.obj
 0001:00034670       ??_GPxPhysics@physx@@UEAAPEAXI@Z 0000000180035670 f i NpPhysics.obj
 0001:00034670       ??_EPxPhysics@physx@@UEAAPEAXI@Z 0000000180035670 f i NpPhysics.obj
 0001:000346a0       ??_GPxPhysicsInsertionCallback@physx@@MEAAPEAXI@Z 00000001800356a0 f i NpPhysics.obj
 0001:000346a0       ??_EPxPhysicsInsertionCallback@physx@@MEAAPEAXI@Z 00000001800356a0 f i NpPhysics.obj
 0001:000346d0       ?allocate@?$ReflectionAllocator@I@shdfnd@physx@@QEAAPEAX_KPEBDH@Z 00000001800356d0 f i NpPhysics.obj
 0001:00034770       ?buildObjectFromData@NpPhysicsInsertionCallback@physx@@UEAAPEAVPxBase@2@W4Enum@PxConcreteType@2@PEAX@Z 0000000180035770 f i NpPhysics.obj
 0001:00034810       ?create@?$HashBase@PEBVPxBase@physx@@PEBV12@U?$Hash@PEBVPxBase@physx@@@shdfnd@2@UGetKey@?$HashSetBase@PEBVPxBase@physx@@U?$Hash@PEBVPxBase@physx@@@shdfnd@2@VNonTrackingAllocator@42@$0A@@internal@42@VNonTrackingAllocator@42@$0A@@internal@shdfnd@physx@@QEAAPEAPEBVPxBase@4@AEBQEBV54@AEA_N@Z 0000000180035810 f i NpPhysics.obj
 0001:000349c0       ?create@?$HashBase@V?$Pair@QEAVPxDeletionListener@physx@@PEAUNpDelListenerEntry@NpPhysics@2@@shdfnd@physx@@PEAVPxDeletionListener@3@U?$Hash@PEAVPxDeletionListener@physx@@@23@UGetKey@?$HashMapBase@PEAVPxDeletionListener@physx@@PEAUNpDelListenerEntry@NpPhysics@2@U?$Hash@PEAVPxDeletionListener@physx@@@shdfnd@2@VNonTrackingAllocator@62@@internal@23@VNonTrackingAllocator@23@$00@internal@shdfnd@physx@@QEAAPEAV?$Pair@QEAVPxDeletionListener@physx@@PEAUNpDelListenerEntry@NpPhysics@2@@34@AEBQEAVPxDeletionListener@4@AEA_N@Z 00000001800359c0 f i NpPhysics.obj
 0001:00034b60       ?erase@?$HashBase@V?$Pair@QEAVPxDeletionListener@physx@@PEAUNpDelListenerEntry@NpPhysics@2@@shdfnd@physx@@PEAVPxDeletionListener@3@U?$Hash@PEAVPxDeletionListener@physx@@@23@UGetKey@?$HashMapBase@PEAVPxDeletionListener@physx@@PEAUNpDelListenerEntry@NpPhysics@2@U?$Hash@PEAVPxDeletionListener@physx@@@shdfnd@2@VNonTrackingAllocator@62@@internal@23@VNonTrackingAllocator@23@$00@internal@shdfnd@physx@@QEAA_NAEBQEAVPxDeletionListener@4@@Z 0000000180035b60 f i NpPhysics.obj
 0001:00034d00       ?getPhysicsInsertionCallback@NpPhysics@physx@@UEAAAEAVPxPhysicsInsertionCallback@2@XZ 0000000180035d00 f i NpPhysics.obj
 0001:00034d10       ?growAndPushBack@?$Array@IV?$ReflectionAllocator@I@shdfnd@physx@@@shdfnd@physx@@IEAAAEAIAEBI@Z 0000000180035d10 f i NpPhysics.obj
 0001:00034de0       ?growAndPushBack@?$Array@PEAVNpScene@physx@@V?$ReflectionAllocator@PEAVNpScene@physx@@@shdfnd@2@@shdfnd@physx@@IEAAAEAPEAVNpScene@3@AEBQEAV43@@Z 0000000180035de0 f i NpPhysics.obj
 0001:00034f00       ?onGuMeshFactoryBufferRelease@MeshDeletionListener@NpPhysics@physx@@UEAAXPEBVPxBase@3@G@Z 0000000180035f00 f i NpPhysics.obj
 0001:00034f20       ?reserveInternal@?$HashBase@PEBVPxBase@physx@@PEBV12@U?$Hash@PEBVPxBase@physx@@@shdfnd@2@UGetKey@?$HashSetBase@PEBVPxBase@physx@@U?$Hash@PEBVPxBase@physx@@@shdfnd@2@VNonTrackingAllocator@42@$0A@@internal@42@VNonTrackingAllocator@42@$0A@@internal@shdfnd@physx@@AEAAXI@Z 0000000180035f20 f i NpPhysics.obj
 0001:00035310       ?reserveInternal@?$HashBase@V?$Pair@QEAVPxDeletionListener@physx@@PEAUNpDelListenerEntry@NpPhysics@2@@shdfnd@physx@@PEAVPxDeletionListener@3@U?$Hash@PEAVPxDeletionListener@physx@@@23@UGetKey@?$HashMapBase@PEAVPxDeletionListener@physx@@PEAUNpDelListenerEntry@NpPhysics@2@U?$Hash@PEAVPxDeletionListener@physx@@@shdfnd@2@VNonTrackingAllocator@62@@internal@23@VNonTrackingAllocator@23@$00@internal@shdfnd@physx@@AEAAXI@Z 0000000180036310 f i NpPhysics.obj
 0001:000354f0       ??0NpReadCheck@physx@@QEAA@PEBVNpScene@1@PEBD@Z 00000001800364f0 f   NpReadCheck.obj
 0001:000355d0       ??1NpReadCheck@physx@@QEAA@XZ 00000001800365d0 f   NpReadCheck.obj
 0001:00035670       ?NpRigidDynamicGetShapes@physx@@YAIAEAVBody@Scb@1@AEAPEBQEAXPEA_N@Z 0000000180036670 f   NpRigidDynamic.obj
 0001:000356d0       ?requiresObjects@NpRigidDynamic@physx@@UEAAXAEAVPxProcessPxBaseCallback@2@@Z 00000001800366d0 f   NpRigidDynamic.obj
 0001:00035740       ?createObject@NpRigidDynamic@physx@@SAPEAV12@AEAPEAEAEAVPxDeserializationContext@2@@Z 0000000180036740 f   NpRigidDynamic.obj
 0001:00035840       ??1NpRigidDynamic@physx@@UEAA@XZ 0000000180036840 f   NpRigidDynamic.obj
 0001:000358a0       ?release@NpRigidDynamic@physx@@UEAAXXZ 00000001800368a0 f   NpRigidDynamic.obj
 0001:00035990       ?setGlobalPose@NpRigidDynamic@physx@@UEAAXAEBVPxTransform@2@_N@Z 0000000180036990 f   NpRigidDynamic.obj
 0001:00035dd0       ?setKinematicTarget@NpRigidDynamic@physx@@UEAAXAEBVPxTransform@2@@Z 0000000180036dd0 f   NpRigidDynamic.obj
 0001:000360e0       ?getKinematicTarget@NpRigidDynamic@physx@@UEBA_NAEAVPxTransform@2@@Z 00000001800370e0 f   NpRigidDynamic.obj
 0001:00036580       ?setCMassLocalPose@NpRigidDynamic@physx@@UEAAXAEBVPxTransform@2@@Z 0000000180037580 f   NpRigidDynamic.obj
 0001:00036cd0       ?setLinearDamping@NpRigidDynamic@physx@@UEAAXM@Z 0000000180037cd0 f   NpRigidDynamic.obj
 0001:00036d60       ?getLinearDamping@NpRigidDynamic@physx@@UEBAMXZ 0000000180037d60 f   NpRigidDynamic.obj
 0001:00036d90       ?setAngularDamping@NpRigidDynamic@physx@@UEAAXM@Z 0000000180037d90 f   NpRigidDynamic.obj
 0001:00036e20       ?getAngularDamping@NpRigidDynamic@physx@@UEBAMXZ 0000000180037e20 f   NpRigidDynamic.obj
 0001:00036e50       ?setLinearVelocity@NpRigidDynamic@physx@@UEAAXAEBVPxVec3@2@_N@Z 0000000180037e50 f   NpRigidDynamic.obj
 0001:00036ed0       ?setAngularVelocity@NpRigidDynamic@physx@@UEAAXAEBVPxVec3@2@_N@Z 0000000180037ed0 f   NpRigidDynamic.obj
 0001:00036f50       ?setMaxAngularVelocity@NpRigidDynamic@physx@@UEAAXM@Z 0000000180037f50 f   NpRigidDynamic.obj
 0001:00036fe0       ?getMaxAngularVelocity@NpRigidDynamic@physx@@UEBAMXZ 0000000180037fe0 f   NpRigidDynamic.obj
 0001:00037020       ?setMaxLinearVelocity@NpRigidDynamic@physx@@UEAAXM@Z 0000000180038020 f   NpRigidDynamic.obj
 0001:000370b0       ?getMaxLinearVelocity@NpRigidDynamic@physx@@UEBAMXZ 00000001800380b0 f   NpRigidDynamic.obj
 0001:000370f0       ?addForce@NpRigidDynamic@physx@@UEAAXAEBVPxVec3@2@W4Enum@PxForceMode@2@_N@Z 00000001800380f0 f   NpRigidDynamic.obj
 0001:00037160       ?clearForce@NpRigidDynamic@physx@@UEAAXW4Enum@PxForceMode@2@@Z 0000000180038160 f   NpRigidDynamic.obj
 0001:00037180       ?addTorque@NpRigidDynamic@physx@@UEAAXAEBVPxVec3@2@W4Enum@PxForceMode@2@_N@Z 0000000180038180 f   NpRigidDynamic.obj
 0001:00037200       ?clearTorque@NpRigidDynamic@physx@@UEAAXW4Enum@PxForceMode@2@@Z 0000000180038200 f   NpRigidDynamic.obj
 0001:00037220       ?setForceAndTorque@NpRigidDynamic@physx@@UEAAXAEBVPxVec3@2@0W4Enum@PxForceMode@2@@Z 0000000180038220 f   NpRigidDynamic.obj
 0001:00037280       ?isSleeping@NpRigidDynamic@physx@@UEBA_NXZ 0000000180038280 f   NpRigidDynamic.obj
 0001:000372a0       ?getSleepThreshold@NpRigidDynamic@physx@@UEBAMXZ 00000001800382a0 f   NpRigidDynamic.obj
 0001:000372d0       ?setSleepThreshold@NpRigidDynamic@physx@@UEAAXM@Z 00000001800382d0 f   NpRigidDynamic.obj
 0001:00037360       ?getStabilizationThreshold@NpRigidDynamic@physx@@UEBAMXZ 0000000180038360 f   NpRigidDynamic.obj
 0001:00037390       ?setStabilizationThreshold@NpRigidDynamic@physx@@UEAAXM@Z 0000000180038390 f   NpRigidDynamic.obj
 0001:00037420       ?setWakeCounter@NpRigidDynamic@physx@@UEAAXM@Z 0000000180038420 f   NpRigidDynamic.obj
 0001:00037510       ?getWakeCounter@NpRigidDynamic@physx@@UEBAMXZ 0000000180038510 f   NpRigidDynamic.obj
 0001:00037520       ?wakeUp@NpRigidDynamic@physx@@UEAAXXZ 0000000180038520 f   NpRigidDynamic.obj
 0001:00037540       ?putToSleep@NpRigidDynamic@physx@@UEAAXXZ 0000000180038540 f   NpRigidDynamic.obj
 0001:00037550       ?setSolverIterationCounts@NpRigidDynamic@physx@@UEAAXII@Z 0000000180038550 f   NpRigidDynamic.obj
 0001:000375f0       ?getSolverIterationCounts@NpRigidDynamic@physx@@UEBAXAEAI0@Z 00000001800385f0 f   NpRigidDynamic.obj
 0001:00037640       ?setContactReportThreshold@NpRigidDynamic@physx@@UEAAXM@Z 0000000180038640 f   NpRigidDynamic.obj
 0001:000376e0       ?getContactReportThreshold@NpRigidDynamic@physx@@UEBAMXZ 00000001800386e0 f   NpRigidDynamic.obj
 0001:00037710       ?getRigidDynamicLockFlags@NpRigidDynamic@physx@@UEBA?AV?$PxFlags@W4Enum@PxRigidDynamicLockFlag@physx@@G@2@XZ 0000000180038710 f   NpRigidDynamic.obj
 0001:00037750       ?setRigidDynamicLockFlags@NpRigidDynamic@physx@@UEAAXV?$PxFlags@W4Enum@PxRigidDynamicLockFlag@physx@@G@2@@Z 0000000180038750 f   NpRigidDynamic.obj
 0001:00037780       ?setRigidDynamicLockFlag@NpRigidDynamic@physx@@UEAAXW4Enum@PxRigidDynamicLockFlag@2@_N@Z 0000000180038780 f   NpRigidDynamic.obj
 0001:000377e0       ??0NpRigidDynamic@physx@@QEAA@AEBVPxTransform@1@@Z 00000001800387e0 f   NpRigidDynamic.obj
 0001:00037940       ?switchToNoSim@NpRigidDynamic@physx@@UEAAXXZ 0000000180038940 f   NpRigidDynamic.obj
 0001:00037a40       ?switchFromNoSim@NpRigidDynamic@physx@@UEAAXXZ 0000000180038a40 f   NpRigidDynamic.obj
 0001:00037a70       ?wakeUpInternalNoKinematicTest@NpRigidDynamic@physx@@QEAAXAEAVBody@Scb@2@_N1@Z 0000000180038a70 f   NpRigidDynamic.obj
 0001:00037af0       ?visualize@NpRigidDynamic@physx@@QEAAXAEAVRenderOutput@Cm@2@PEAVNpScene@2@@Z 0000000180038af0 f   NpRigidDynamic.obj
 0001:00037d80       ??0?$NpActorTemplate@VPxRigidDynamic@physx@@@physx@@QEAA@GV?$PxFlags@W4Enum@PxBaseFlag@physx@@G@1@PEBDPEAX@Z 0000000180038d80 f i NpRigidDynamic.obj
 0001:00037dd0       ??0?$NpRigidActorTemplate@VPxRigidDynamic@physx@@@physx@@QEAA@GV?$PxFlags@W4Enum@PxBaseFlag@physx@@G@1@@Z 0000000180038dd0 f i NpRigidDynamic.obj
 0001:00037e30       ??0?$NpRigidBodyTemplate@VPxRigidDynamic@physx@@@physx@@QEAA@GV?$PxFlags@W4Enum@PxBaseFlag@physx@@G@1@W4Enum@PxActorType@1@AEBVPxTransform@1@@Z 0000000180038e30 f i NpRigidDynamic.obj
 0001:00037f90       ??1?$NpActorTemplate@VPxRigidDynamic@physx@@@physx@@UEAA@XZ 0000000180038f90 f i NpRigidDynamic.obj
 0001:00037fd0       ??1?$NpRigidActorTemplate@VPxRigidDynamic@physx@@@physx@@UEAA@XZ 0000000180038fd0 f i NpRigidDynamic.obj
 0001:00038020       ??1?$NpRigidBodyTemplate@VPxRigidDynamic@physx@@@physx@@UEAA@XZ 0000000180039020 f i NpRigidDynamic.obj
 0001:00038080       ??1PxRigidDynamic@physx@@MEAA@XZ 0000000180039080 f i NpRigidDynamic.obj
 0001:00038090       ??_G?$NpActorTemplate@VPxRigidDynamic@physx@@@physx@@UEAAPEAXI@Z 0000000180039090 f i NpRigidDynamic.obj
 0001:00038090       ??_E?$NpActorTemplate@VPxRigidDynamic@physx@@@physx@@UEAAPEAXI@Z 0000000180039090 f i NpRigidDynamic.obj
 0001:00038110       ??_G?$NpRigidActorTemplate@VPxRigidDynamic@physx@@@physx@@UEAAPEAXI@Z 0000000180039110 f i NpRigidDynamic.obj
 0001:00038110       ??_E?$NpRigidActorTemplate@VPxRigidDynamic@physx@@@physx@@UEAAPEAXI@Z 0000000180039110 f i NpRigidDynamic.obj
 0001:000381a0       ??_G?$NpRigidBodyTemplate@VPxRigidDynamic@physx@@@physx@@UEAAPEAXI@Z 00000001800391a0 f i NpRigidDynamic.obj
 0001:000381a0       ??_E?$NpRigidBodyTemplate@VPxRigidDynamic@physx@@@physx@@UEAAPEAXI@Z 00000001800391a0 f i NpRigidDynamic.obj
 0001:00038250       ??_ENpRigidDynamic@physx@@UEAAPEAXI@Z 0000000180039250 f i NpRigidDynamic.obj
 0001:00038250       ??_GNpRigidDynamic@physx@@UEAAPEAXI@Z 0000000180039250 f i NpRigidDynamic.obj
 0001:00038300       ??_EPxRigidDynamic@physx@@MEAAPEAXI@Z 0000000180039300 f i NpRigidDynamic.obj
 0001:00038300       ??_GPxRigidDynamic@physx@@MEAAPEAXI@Z 0000000180039300 f i NpRigidDynamic.obj
 0001:00038330       ?addSpatialForce@?$NpRigidBodyTemplate@VPxRigidDynamic@physx@@@physx@@IEAAXPEBVPxVec3@2@0W4Enum@PxForceMode@2@@Z 0000000180039330 f i NpRigidDynamic.obj
 0001:00038590       ?attachShape@?$NpRigidActorTemplate@VPxRigidDynamic@physx@@@physx@@UEAA_NAEAVPxShape@2@@Z 0000000180039590 f i NpRigidDynamic.obj
 0001:00038630       ?attachShape@?$NpRigidBodyTemplate@VPxRigidDynamic@physx@@@physx@@UEAA_NAEAVPxShape@2@@Z 0000000180039630 f i NpRigidDynamic.obj
 0001:000386d0       ?clearSpatialForce@?$NpRigidBodyTemplate@VPxRigidDynamic@physx@@@physx@@IEAAXW4Enum@PxForceMode@2@_N1@Z 00000001800396d0 f i NpRigidDynamic.obj
 0001:00038870       ?detachShape@?$NpRigidActorTemplate@VPxRigidDynamic@physx@@@physx@@UEAAXAEAVPxShape@2@_N@Z 0000000180039870 f i NpRigidDynamic.obj
 0001:00038920       ?exportExtraData@?$NpActorTemplate@VPxRigidDynamic@physx@@@physx@@UEAAXAEAVPxSerializationContext@2@@Z 0000000180039920 f i NpRigidDynamic.obj
 0001:00038930       ?exportExtraData@?$NpRigidActorTemplate@VPxRigidDynamic@physx@@@physx@@UEAAXAEAVPxSerializationContext@2@@Z 0000000180039930 f i NpRigidDynamic.obj
 0001:00038960       ?getActorFlags@?$NpActorTemplate@VPxRigidDynamic@physx@@@physx@@UEBA?AV?$PxFlags@W4Enum@PxActorFlag@physx@@E@2@XZ 0000000180039960 f i NpRigidDynamic.obj
 0001:000389b0       ?getAggregate@?$NpActorTemplate@VPxRigidDynamic@physx@@@physx@@UEBAPEAVPxAggregate@2@XZ 00000001800399b0 f i NpRigidDynamic.obj
 0001:000389c0       ?getAngularVelocity@?$NpRigidBodyTemplate@VPxRigidDynamic@physx@@@physx@@UEBA?AVPxVec3@2@XZ 00000001800399c0 f i NpRigidDynamic.obj
 0001:000389e0       ?getCMassLocalPose@?$NpRigidBodyTemplate@VPxRigidDynamic@physx@@@physx@@UEBA?AVPxTransform@2@XZ 00000001800399e0 f i NpRigidDynamic.obj
 0001:00038a30       ?getConcreteTypeName@PxRigidDynamic@physx@@UEBAPEBDXZ 0000000180039a30 f i NpRigidDynamic.obj
 0001:00038a40       ?getConstraints@?$NpRigidActorTemplate@VPxRigidDynamic@physx@@@physx@@UEBAIPEAPEAVPxConstraint@2@II@Z 0000000180039a40 f i NpRigidDynamic.obj
 0001:00038ac0       ?getDominanceGroup@?$NpActorTemplate@VPxRigidDynamic@physx@@@physx@@UEBAEXZ 0000000180039ac0 f i NpRigidDynamic.obj
 0001:00038b00       ?getGlobalPose@NpRigidDynamic@physx@@UEBA?AVPxTransform@2@XZ 0000000180039b00 f i NpRigidDynamic.obj
 0001:00038e10       ?getInternalIslandNodeIndex@?$NpRigidBodyTemplate@VPxRigidDynamic@physx@@@physx@@UEBAIXZ 0000000180039e10 f i NpRigidDynamic.obj
 0001:00038e20       ?getInvMass@?$NpRigidBodyTemplate@VPxRigidDynamic@physx@@@physx@@UEBAMXZ 0000000180039e20 f i NpRigidDynamic.obj
 0001:00038e40       ?getLinearVelocity@?$NpRigidBodyTemplate@VPxRigidDynamic@physx@@@physx@@UEBA?AVPxVec3@2@XZ 0000000180039e40 f i NpRigidDynamic.obj
 0001:00038e60       ?getMass@?$NpRigidBodyTemplate@VPxRigidDynamic@physx@@@physx@@UEBAMXZ 0000000180039e60 f i NpRigidDynamic.obj
 0001:00038ea0       ?getMassSpaceInertiaTensor@?$NpRigidBodyTemplate@VPxRigidDynamic@physx@@@physx@@UEBA?AVPxVec3@2@XZ 0000000180039ea0 f i NpRigidDynamic.obj
 0001:00038f30       ?getMassSpaceInvInertiaTensor@?$NpRigidBodyTemplate@VPxRigidDynamic@physx@@@physx@@UEBA?AVPxVec3@2@XZ 0000000180039f30 f i NpRigidDynamic.obj
 0001:00038f70       ?getMaxContactImpulse@?$NpRigidBodyTemplate@VPxRigidDynamic@physx@@@physx@@UEBAMXZ 0000000180039f70 f i NpRigidDynamic.obj
 0001:00038fa0       ?getMaxDepenetrationVelocity@?$NpRigidBodyTemplate@VPxRigidDynamic@physx@@@physx@@UEBAMXZ 0000000180039fa0 f i NpRigidDynamic.obj
 0001:00038fd0       ?getMinCCDAdvanceCoefficient@?$NpRigidBodyTemplate@VPxRigidDynamic@physx@@@physx@@UEBAMXZ 0000000180039fd0 f i NpRigidDynamic.obj
 0001:00038ff0       ?getName@?$NpActorTemplate@VPxRigidDynamic@physx@@@physx@@UEBAPEBDXZ 0000000180039ff0 f i NpRigidDynamic.obj
 0001:00039000       ?getNbConstraints@?$NpRigidActorTemplate@VPxRigidDynamic@physx@@@physx@@UEBAIXZ 000000018003a000 f i NpRigidDynamic.obj
 0001:00039010       ?getNbShapes@?$NpRigidActorTemplate@VPxRigidDynamic@physx@@@physx@@UEBAIXZ 000000018003a010 f i NpRigidDynamic.obj
 0001:00039020       ?getOwnerClient@?$NpActorTemplate@VPxRigidDynamic@physx@@@physx@@UEBAEXZ 000000018003a020 f i NpRigidDynamic.obj
 0001:00039050       ?getRigidBodyFlags@?$NpRigidBodyTemplate@VPxRigidDynamic@physx@@@physx@@UEBA?AV?$PxFlags@W4Enum@PxRigidBodyFlag@physx@@E@2@XZ 000000018003a050 f i NpRigidDynamic.obj
 0001:00039080       ?getScene@?$NpActorTemplate@VPxRigidDynamic@physx@@@physx@@UEBAPEAVPxScene@2@XZ 000000018003a080 f i NpRigidDynamic.obj
 0001:00039090       ?getShapes@?$NpRigidActorTemplate@VPxRigidDynamic@physx@@@physx@@UEBAIPEAPEAVPxShape@2@II@Z 000000018003a090 f i NpRigidDynamic.obj
 0001:000390a0       ?getType@NpRigidDynamic@physx@@UEBA?AW4Enum@PxActorType@2@XZ 000000018003a0a0 f i NpRigidDynamic.obj
 0001:000390b0       ?getWorldBounds@?$NpRigidActorTemplate@VPxRigidDynamic@physx@@@physx@@UEBA?AVPxBounds3@2@M@Z 000000018003a0b0 f i NpRigidDynamic.obj
 0001:00039290       ?importExtraData@?$NpRigidActorTemplate@VPxRigidDynamic@physx@@@physx@@QEAAXAEAVPxDeserializationContext@2@@Z 000000018003a290 f i NpRigidDynamic.obj
 0001:000392c0       ?isKindOf@PxRigidDynamic@physx@@MEBA_NPEBD@Z 000000018003a2c0 f i NpRigidDynamic.obj
 0001:00039360       ?release@?$NpActorTemplate@VPxRigidDynamic@physx@@@physx@@UEAAXXZ 000000018003a360 f i NpRigidDynamic.obj
 0001:00039370       ?release@?$NpRigidActorTemplate@VPxRigidDynamic@physx@@@physx@@UEAAXXZ 000000018003a370 f i NpRigidDynamic.obj
 0001:00039410       ?requiresObjects@?$NpRigidActorTemplate@VPxRigidDynamic@physx@@@physx@@UEAAXAEAVPxProcessPxBaseCallback@2@@Z 000000018003a410 f i NpRigidDynamic.obj
 0001:00039480       ?resolveReferences@?$NpActorTemplate@VPxRigidDynamic@physx@@@physx@@UEAAXAEAVPxDeserializationContext@2@@Z 000000018003a480 f i NpRigidDynamic.obj
 0001:00039490       ?resolveReferences@?$NpRigidActorTemplate@VPxRigidDynamic@physx@@@physx@@UEAAXAEAVPxDeserializationContext@2@@Z 000000018003a490 f i NpRigidDynamic.obj
 0001:00039520       ?setActorFlag@?$NpActorTemplate@VPxRigidDynamic@physx@@@physx@@UEAAXW4Enum@PxActorFlag@2@_N@Z 000000018003a520 f i NpRigidDynamic.obj
 0001:000395e0       ?setActorFlag@?$NpRigidActorTemplate@VPxRigidDynamic@physx@@@physx@@UEAAXW4Enum@PxActorFlag@2@_N@Z 000000018003a5e0 f i NpRigidDynamic.obj
 0001:000397a0       ?setActorFlags@?$NpActorTemplate@VPxRigidDynamic@physx@@@physx@@UEAAXV?$PxFlags@W4Enum@PxActorFlag@physx@@E@2@@Z 000000018003a7a0 f i NpRigidDynamic.obj
 0001:000397d0       ?setActorFlags@?$NpRigidActorTemplate@VPxRigidDynamic@physx@@@physx@@UEAAXV?$PxFlags@W4Enum@PxActorFlag@physx@@E@2@@Z 000000018003a7d0 f i NpRigidDynamic.obj
 0001:00039910       ?setCMassLocalPoseInternal@?$NpRigidBodyTemplate@VPxRigidDynamic@physx@@@physx@@IEAAXAEBVPxTransform@2@@Z 000000018003a910 f i NpRigidDynamic.obj
 0001:00039c90       ?setDominanceGroup@?$NpActorTemplate@VPxRigidDynamic@physx@@@physx@@UEAAXE@Z 000000018003ac90 f i NpRigidDynamic.obj
 0001:00039d30       ?setKinematicTarget@Body@Scb@physx@@QEAAXAEBVPxTransform@3@@Z 000000018003ad30 f i NpRigidDynamic.obj
 0001:00039e40       ?setLockFlags@Body@Scb@physx@@QEAAXV?$PxFlags@W4Enum@PxRigidDynamicLockFlag@physx@@G@3@@Z 000000018003ae40 f i NpRigidDynamic.obj
 0001:00039ed0       ?setMass@?$NpRigidBodyTemplate@VPxRigidDynamic@physx@@@physx@@UEAAXM@Z 000000018003aed0 f i NpRigidDynamic.obj
 0001:00039f70       ?setMassSpaceInertiaTensor@?$NpRigidBodyTemplate@VPxRigidDynamic@physx@@@physx@@UEAAXAEBVPxVec3@2@@Z 000000018003af70 f i NpRigidDynamic.obj
 0001:0003a070       ?setMaxContactImpulse@?$NpRigidBodyTemplate@VPxRigidDynamic@physx@@@physx@@UEAAXM@Z 000000018003b070 f i NpRigidDynamic.obj
 0001:0003a100       ?setMaxDepenetrationVelocity@?$NpRigidBodyTemplate@VPxRigidDynamic@physx@@@physx@@UEAAXM@Z 000000018003b100 f i NpRigidDynamic.obj
 0001:0003a190       ?setMinCCDAdvanceCoefficient@?$NpRigidBodyTemplate@VPxRigidDynamic@physx@@@physx@@UEAAXM@Z 000000018003b190 f i NpRigidDynamic.obj
 0001:0003a220       ?setName@?$NpActorTemplate@VPxRigidDynamic@physx@@@physx@@UEAAXPEBD@Z 000000018003b220 f i NpRigidDynamic.obj
 0001:0003a230       ?setOwnerClient@?$NpActorTemplate@VPxRigidDynamic@physx@@@physx@@UEAAXE@Z 000000018003b230 f i NpRigidDynamic.obj
 0001:0003a300       ?setRigidBodyFlag@?$NpRigidBodyTemplate@VPxRigidDynamic@physx@@@physx@@UEAAXW4Enum@PxRigidBodyFlag@2@_N@Z 000000018003b300 f i NpRigidDynamic.obj
 0001:0003a790       ?setRigidBodyFlags@?$NpRigidBodyTemplate@VPxRigidDynamic@physx@@@physx@@UEAAXV?$PxFlags@W4Enum@PxRigidBodyFlag@physx@@E@2@@Z 000000018003b790 f i NpRigidDynamic.obj
 0001:0003ac20       ?setSpatialForce@?$NpRigidBodyTemplate@VPxRigidDynamic@physx@@@physx@@IEAAXPEBVPxVec3@2@0W4Enum@PxForceMode@2@@Z 000000018003bc20 f i NpRigidDynamic.obj
 0001:0003ae80       ?switchFromNoSim@?$NpRigidActorTemplate@VPxRigidDynamic@physx@@@physx@@UEAAXXZ 000000018003be80 f i NpRigidDynamic.obj
 0001:0003ae90       ?switchToNoSim@?$NpRigidActorTemplate@VPxRigidDynamic@physx@@@physx@@UEAAXXZ 000000018003be90 f i NpRigidDynamic.obj
 0001:0003aea0       ?updateShaderComs@?$NpRigidActorTemplate@VPxRigidDynamic@physx@@@physx@@QEAAXXZ 000000018003bea0 f i NpRigidDynamic.obj
 0001:0003af20       ?visualize@?$NpRigidActorTemplate@VPxRigidDynamic@physx@@@physx@@QEAAXAEAVRenderOutput@Cm@2@PEAVNpScene@2@@Z 000000018003bf20 f i NpRigidDynamic.obj
 0001:0003af30       ?visualize@?$NpRigidBodyTemplate@VPxRigidDynamic@physx@@@physx@@QEAAXAEAVRenderOutput@Cm@2@PEAVNpScene@2@@Z 000000018003bf30 f i NpRigidDynamic.obj
 0001:0003b2f0       ?wakeUpInternal@Body@Scb@physx@@QEAAXM@Z 000000018003c2f0 f i NpRigidDynamic.obj
 0001:0003b370       ?NpRigidStaticGetShapes@physx@@YAIAEAVRigidStatic@Scb@1@AEAPEBQEAX@Z 000000018003c370 f   NpRigidStatic.obj
 0001:0003b3c0       ?requiresObjects@NpRigidStatic@physx@@UEAAXAEAVPxProcessPxBaseCallback@2@@Z 000000018003c3c0 f   NpRigidStatic.obj
 0001:0003b430       ?createObject@NpRigidStatic@physx@@SAPEAV12@AEAPEAEAEAVPxDeserializationContext@2@@Z 000000018003c430 f   NpRigidStatic.obj
 0001:0003b510       ??1NpRigidStatic@physx@@UEAA@XZ 000000018003c510 f   NpRigidStatic.obj
 0001:0003b570       ?release@NpRigidStatic@physx@@UEAAXXZ 000000018003c570 f   NpRigidStatic.obj
 0001:0003b660       ?setGlobalPose@NpRigidStatic@physx@@UEAAXAEBVPxTransform@2@_N@Z 000000018003c660 f   NpRigidStatic.obj
 0001:0003b8c0       ?getGlobalPose@NpRigidStatic@physx@@UEBA?AVPxTransform@2@XZ 000000018003c8c0 f   NpRigidStatic.obj
 0001:0003b910       ??0NpRigidStatic@physx@@QEAA@AEBVPxTransform@1@@Z 000000018003c910 f   NpRigidStatic.obj
 0001:0003b9f0       ?switchToNoSim@NpRigidStatic@physx@@UEAAXXZ 000000018003c9f0 f   NpRigidStatic.obj
 0001:0003ba20       ?switchFromNoSim@NpRigidStatic@physx@@UEAAXXZ 000000018003ca20 f   NpRigidStatic.obj
 0001:0003ba50       ?visualize@NpRigidStatic@physx@@QEAAXAEAVRenderOutput@Cm@2@PEAVNpScene@2@@Z 000000018003ca50 f   NpRigidStatic.obj
 0001:0003bb80       ??0?$NpActorTemplate@VPxRigidStatic@physx@@@physx@@QEAA@GV?$PxFlags@W4Enum@PxBaseFlag@physx@@G@1@PEBDPEAX@Z 000000018003cb80 f i NpRigidStatic.obj
 0001:0003bbd0       ??0?$NpRigidActorTemplate@VPxRigidStatic@physx@@@physx@@QEAA@GV?$PxFlags@W4Enum@PxBaseFlag@physx@@G@1@@Z 000000018003cbd0 f i NpRigidStatic.obj
 0001:0003bc30       ??1?$NpActorTemplate@VPxRigidStatic@physx@@@physx@@UEAA@XZ 000000018003cc30 f i NpRigidStatic.obj
 0001:0003bc70       ??1?$NpRigidActorTemplate@VPxRigidStatic@physx@@@physx@@UEAA@XZ 000000018003cc70 f i NpRigidStatic.obj
 0001:0003bcc0       ??1PxRigidStatic@physx@@MEAA@XZ 000000018003ccc0 f i NpRigidStatic.obj
 0001:0003bcd0       ??_G?$NpActorTemplate@VPxRigidStatic@physx@@@physx@@UEAAPEAXI@Z 000000018003ccd0 f i NpRigidStatic.obj
 0001:0003bcd0       ??_E?$NpActorTemplate@VPxRigidStatic@physx@@@physx@@UEAAPEAXI@Z 000000018003ccd0 f i NpRigidStatic.obj
 0001:0003bd50       ??_G?$NpRigidActorTemplate@VPxRigidStatic@physx@@@physx@@UEAAPEAXI@Z 000000018003cd50 f i NpRigidStatic.obj
 0001:0003bd50       ??_E?$NpRigidActorTemplate@VPxRigidStatic@physx@@@physx@@UEAAPEAXI@Z 000000018003cd50 f i NpRigidStatic.obj
 0001:0003bde0       ??_GNpRigidStatic@physx@@UEAAPEAXI@Z 000000018003cde0 f i NpRigidStatic.obj
 0001:0003bde0       ??_ENpRigidStatic@physx@@UEAAPEAXI@Z 000000018003cde0 f i NpRigidStatic.obj
 0001:0003be90       ??_GPxRigidStatic@physx@@MEAAPEAXI@Z 000000018003ce90 f i NpRigidStatic.obj
 0001:0003be90       ??_EPxRigidStatic@physx@@MEAAPEAXI@Z 000000018003ce90 f i NpRigidStatic.obj
 0001:0003bec0       ?attachShape@?$NpRigidActorTemplate@VPxRigidStatic@physx@@@physx@@UEAA_NAEAVPxShape@2@@Z 000000018003cec0 f i NpRigidStatic.obj
 0001:0003bf60       ?detachShape@?$NpRigidActorTemplate@VPxRigidStatic@physx@@@physx@@UEAAXAEAVPxShape@2@_N@Z 000000018003cf60 f i NpRigidStatic.obj
 0001:0003c010       ?exportExtraData@?$NpActorTemplate@VPxRigidStatic@physx@@@physx@@UEAAXAEAVPxSerializationContext@2@@Z 000000018003d010 f i NpRigidStatic.obj
 0001:0003c020       ?exportExtraData@?$NpRigidActorTemplate@VPxRigidStatic@physx@@@physx@@UEAAXAEAVPxSerializationContext@2@@Z 000000018003d020 f i NpRigidStatic.obj
 0001:0003c050       ?getActorFlags@?$NpActorTemplate@VPxRigidStatic@physx@@@physx@@UEBA?AV?$PxFlags@W4Enum@PxActorFlag@physx@@E@2@XZ 000000018003d050 f i NpRigidStatic.obj
 0001:0003c0a0       ?getAggregate@?$NpActorTemplate@VPxRigidStatic@physx@@@physx@@UEBAPEAVPxAggregate@2@XZ 000000018003d0a0 f i NpRigidStatic.obj
 0001:0003c0b0       ?getConcreteTypeName@PxRigidStatic@physx@@UEBAPEBDXZ 000000018003d0b0 f i NpRigidStatic.obj
 0001:0003c0c0       ?getConstraints@?$NpRigidActorTemplate@VPxRigidStatic@physx@@@physx@@UEBAIPEAPEAVPxConstraint@2@II@Z 000000018003d0c0 f i NpRigidStatic.obj
 0001:0003c140       ?getDominanceGroup@?$NpActorTemplate@VPxRigidStatic@physx@@@physx@@UEBAEXZ 000000018003d140 f i NpRigidStatic.obj
 0001:0003c180       ?getName@?$NpActorTemplate@VPxRigidStatic@physx@@@physx@@UEBAPEBDXZ 000000018003d180 f i NpRigidStatic.obj
 0001:0003c190       ?getNbConstraints@?$NpRigidActorTemplate@VPxRigidStatic@physx@@@physx@@UEBAIXZ 000000018003d190 f i NpRigidStatic.obj
 0001:0003c1a0       ?getNbShapes@?$NpRigidActorTemplate@VPxRigidStatic@physx@@@physx@@UEBAIXZ 000000018003d1a0 f i NpRigidStatic.obj
 0001:0003c1b0       ?getOwnerClient@?$NpActorTemplate@VPxRigidStatic@physx@@@physx@@UEBAEXZ 000000018003d1b0 f i NpRigidStatic.obj
 0001:0003c1e0       ?getScene@?$NpActorTemplate@VPxRigidStatic@physx@@@physx@@UEBAPEAVPxScene@2@XZ 000000018003d1e0 f i NpRigidStatic.obj
 0001:0003c1f0       ?getShapes@?$NpRigidActorTemplate@VPxRigidStatic@physx@@@physx@@UEBAIPEAPEAVPxShape@2@II@Z 000000018003d1f0 f i NpRigidStatic.obj
 0001:0003c200       ?getType@NpRigidStatic@physx@@UEBA?AW4Enum@PxActorType@2@XZ 000000018003d200 f i NpRigidStatic.obj
 0001:0003c210       ?getWorldBounds@?$NpRigidActorTemplate@VPxRigidStatic@physx@@@physx@@UEBA?AVPxBounds3@2@M@Z 000000018003d210 f i NpRigidStatic.obj
 0001:0003c3f0       ?importExtraData@?$NpRigidActorTemplate@VPxRigidStatic@physx@@@physx@@QEAAXAEAVPxDeserializationContext@2@@Z 000000018003d3f0 f i NpRigidStatic.obj
 0001:0003c420       ?isKindOf@PxRigidStatic@physx@@MEBA_NPEBD@Z 000000018003d420 f i NpRigidStatic.obj
 0001:0003c470       ?release@?$NpActorTemplate@VPxRigidStatic@physx@@@physx@@UEAAXXZ 000000018003d470 f i NpRigidStatic.obj
 0001:0003c480       ?release@?$NpRigidActorTemplate@VPxRigidStatic@physx@@@physx@@UEAAXXZ 000000018003d480 f i NpRigidStatic.obj
 0001:0003c520       ?requiresObjects@?$NpRigidActorTemplate@VPxRigidStatic@physx@@@physx@@UEAAXAEAVPxProcessPxBaseCallback@2@@Z 000000018003d520 f i NpRigidStatic.obj
 0001:0003c590       ?resolveReferences@?$NpActorTemplate@VPxRigidStatic@physx@@@physx@@UEAAXAEAVPxDeserializationContext@2@@Z 000000018003d590 f i NpRigidStatic.obj
 0001:0003c5a0       ?resolveReferences@?$NpRigidActorTemplate@VPxRigidStatic@physx@@@physx@@UEAAXAEAVPxDeserializationContext@2@@Z 000000018003d5a0 f i NpRigidStatic.obj
 0001:0003c630       ?setActorFlag@?$NpActorTemplate@VPxRigidStatic@physx@@@physx@@UEAAXW4Enum@PxActorFlag@2@_N@Z 000000018003d630 f i NpRigidStatic.obj
 0001:0003c6f0       ?setActorFlag@?$NpRigidActorTemplate@VPxRigidStatic@physx@@@physx@@UEAAXW4Enum@PxActorFlag@2@_N@Z 000000018003d6f0 f i NpRigidStatic.obj
 0001:0003c8b0       ?setActorFlags@?$NpActorTemplate@VPxRigidStatic@physx@@@physx@@UEAAXV?$PxFlags@W4Enum@PxActorFlag@physx@@E@2@@Z 000000018003d8b0 f i NpRigidStatic.obj
 0001:0003c8e0       ?setActorFlags@?$NpRigidActorTemplate@VPxRigidStatic@physx@@@physx@@UEAAXV?$PxFlags@W4Enum@PxActorFlag@physx@@E@2@@Z 000000018003d8e0 f i NpRigidStatic.obj
 0001:0003ca20       ?setDominanceGroup@?$NpActorTemplate@VPxRigidStatic@physx@@@physx@@UEAAXE@Z 000000018003da20 f i NpRigidStatic.obj
 0001:0003cac0       ?setName@?$NpActorTemplate@VPxRigidStatic@physx@@@physx@@UEAAXPEBD@Z 000000018003dac0 f i NpRigidStatic.obj
 0001:0003cad0       ?setOwnerClient@?$NpActorTemplate@VPxRigidStatic@physx@@@physx@@UEAAXE@Z 000000018003dad0 f i NpRigidStatic.obj
 0001:0003cba0       ?switchFromNoSim@?$NpRigidActorTemplate@VPxRigidStatic@physx@@@physx@@UEAAXXZ 000000018003dba0 f i NpRigidStatic.obj
 0001:0003cbb0       ?switchToNoSim@?$NpRigidActorTemplate@VPxRigidStatic@physx@@@physx@@UEAAXXZ 000000018003dbb0 f i NpRigidStatic.obj
 0001:0003cbc0       ?updateShaderComs@?$NpRigidActorTemplate@VPxRigidStatic@physx@@@physx@@QEAAXXZ 000000018003dbc0 f i NpRigidStatic.obj
 0001:0003cc40       ?visualize@?$NpRigidActorTemplate@VPxRigidStatic@physx@@@physx@@QEAAXAEAVRenderOutput@Cm@2@PEAVNpScene@2@@Z 000000018003dc40 f i NpRigidStatic.obj
 0001:0003cc50       ??0NpSceneQueries@physx@@QEAA@AEBVPxSceneDesc@1@@Z 000000018003dc50 f   NpScene.obj
 0001:0003cdc0       ??1NpSceneQueries@physx@@UEAA@XZ 000000018003ddc0 f   NpScene.obj
 0001:0003ce30       ?setData@NpContactCallbackTask@physx@@QEAAXPEAVNpScene@2@PEBUPxContactPairHeader@2@I@Z 000000018003de30 f   NpScene.obj
 0001:0003ce50       ?run@NpContactCallbackTask@physx@@UEAAXXZ 000000018003de50 f   NpScene.obj
 0001:0003cee0       ?release@NpScene@physx@@UEAAXXZ 000000018003dee0 f   NpScene.obj
 0001:0003cfb0       ?setFlag@NpScene@physx@@UEAAXW4Enum@PxSceneFlag@2@_N@Z 000000018003dfb0 f   NpScene.obj
 0001:0003d040       ?getFlags@NpScene@physx@@UEBA?AV?$PxFlags@W4Enum@PxSceneFlag@physx@@I@2@XZ 000000018003e040 f   NpScene.obj
 0001:0003d070       ?setGravity@NpScene@physx@@UEAAXAEBVPxVec3@2@@Z 000000018003e070 f   NpScene.obj
 0001:0003d0d0       ?getGravity@NpScene@physx@@UEBA?AVPxVec3@2@XZ 000000018003e0d0 f   NpScene.obj
 0001:0003d140       ?setBounceThresholdVelocity@NpScene@physx@@UEAAXM@Z 000000018003e140 f   NpScene.obj
 0001:0003d170       ?getBounceThresholdVelocity@NpScene@physx@@UEBAMXZ 000000018003e170 f   NpScene.obj
 0001:0003d1a0       ?getFrictionOffsetThreshold@NpScene@physx@@UEBAMXZ 000000018003e1a0 f   NpScene.obj
 0001:0003d1b0       ?setLimits@NpScene@physx@@UEAAXAEBVPxSceneLimits@2@@Z 000000018003e1b0 f   NpScene.obj
 0001:0003d230       ?getLimits@NpScene@physx@@UEBA?AVPxSceneLimits@2@XZ 000000018003e230 f   NpScene.obj
 0001:0003d250       ?addActor@NpScene@physx@@UEAAXAEAVPxActor@2@PEBVPxBVHStructure@2@@Z 000000018003e250 f   NpScene.obj
 0001:0003d440       ?removeActor@NpScene@physx@@UEAAXAEAVPxActor@2@_N@Z 000000018003e440 f   NpScene.obj
 0001:0003d4e0       ?getNbConstraints@NpScene@physx@@UEBAIXZ 000000018003e4e0 f   NpScene.obj
 0001:0003d4f0       ?getConstraints@NpScene@physx@@UEBAIPEAPEAVPxConstraint@2@II@Z 000000018003e4f0 f   NpScene.obj
 0001:0003d550       ?addArticulation@NpScene@physx@@UEAAXAEAVPxArticulationBase@2@@Z 000000018003e550 f   NpScene.obj
 0001:0003d660       ?removeArticulation@NpScene@physx@@UEAAXAEAVPxArticulationBase@2@_N@Z 000000018003e660 f   NpScene.obj
 0001:0003d700       ?getNbArticulations@NpScene@physx@@UEBAIXZ 000000018003e700 f   NpScene.obj
 0001:0003d710       ?getArticulations@NpScene@physx@@UEBAIPEAPEAVPxArticulationBase@2@II@Z 000000018003e710 f   NpScene.obj
 0001:0003d770       ?addAggregate@NpScene@physx@@UEAAXAEAVPxAggregate@2@@Z 000000018003e770 f   NpScene.obj
 0001:0003d970       ?removeAggregate@NpScene@physx@@UEAAXAEAVPxAggregate@2@_N@Z 000000018003e970 f   NpScene.obj
 0001:0003db50       ?getNbAggregates@NpScene@physx@@UEBAIXZ 000000018003eb50 f   NpScene.obj
 0001:0003db60       ?getAggregates@NpScene@physx@@UEBAIPEAPEAVPxAggregate@2@II@Z 000000018003eb60 f   NpScene.obj
 0001:0003dbc0       ?addCollection@NpScene@physx@@UEAAXAEBVPxCollection@2@@Z 000000018003ebc0 f   NpScene.obj
 0001:0003dd60       ?setDominanceGroupPair@NpScene@physx@@UEAAXEEAEBUPxDominanceGroupPair@2@@Z 000000018003ed60 f   NpScene.obj
 0001:0003de30       ?getDominanceGroupPair@NpScene@physx@@UEBA?AUPxDominanceGroupPair@2@EE@Z 000000018003ee30 f   NpScene.obj
 0001:0003df00       ?getNbActors@NpScene@physx@@UEBAIV?$PxFlags@W4Enum@PxActorTypeFlag@physx@@G@2@@Z 000000018003ef00 f   NpScene.obj
 0001:0003dfa0       ?getActors@NpScene@physx@@UEBAIV?$PxFlags@W4Enum@PxActorTypeFlag@physx@@G@2@PEAPEAVPxActor@2@II@Z 000000018003efa0 f   NpScene.obj
 0001:0003e080       ?getActiveActors@NpScene@physx@@UEAAPEAPEAVPxActor@2@AEAI@Z 000000018003f080 f   NpScene.obj
 0001:0003e0e0       ?getSimulationStatistics@NpScene@physx@@UEBAXAEAVPxSimulationStatistics@2@@Z 000000018003f0e0 f   NpScene.obj
 0001:0003e130       ?createClient@NpScene@physx@@UEAAEXZ 000000018003f130 f   NpScene.obj
 0001:0003e170       ?setFrictionType@NpScene@physx@@UEAAXW4Enum@PxFrictionType@2@@Z 000000018003f170 f   NpScene.obj
 0001:0003e180       ?getFrictionType@NpScene@physx@@UEBA?AW4Enum@PxFrictionType@2@XZ 000000018003f180 f   NpScene.obj
 0001:0003e190       ?setSimulationEventCallback@NpScene@physx@@UEAAXPEAVPxSimulationEventCallback@2@@Z 000000018003f190 f   NpScene.obj
 0001:0003e1e0       ?getSimulationEventCallback@NpScene@physx@@UEBAPEAVPxSimulationEventCallback@2@XZ 000000018003f1e0 f   NpScene.obj
 0001:0003e1f0       ?setContactModifyCallback@NpScene@physx@@UEAAXPEAVPxContactModifyCallback@2@@Z 000000018003f1f0 f   NpScene.obj
 0001:0003e240       ?getContactModifyCallback@NpScene@physx@@UEBAPEAVPxContactModifyCallback@2@XZ 000000018003f240 f   NpScene.obj
 0001:0003e250       ?setCCDContactModifyCallback@NpScene@physx@@UEAAXPEAVPxCCDContactModifyCallback@2@@Z 000000018003f250 f   NpScene.obj
 0001:0003e2a0       ?getCCDContactModifyCallback@NpScene@physx@@UEBAPEAVPxCCDContactModifyCallback@2@XZ 000000018003f2a0 f   NpScene.obj
 0001:0003e2b0       ?setBroadPhaseCallback@NpScene@physx@@UEAAXPEAVPxBroadPhaseCallback@2@@Z 000000018003f2b0 f   NpScene.obj
 0001:0003e300       ?getBroadPhaseCallback@NpScene@physx@@UEBAPEAVPxBroadPhaseCallback@2@XZ 000000018003f300 f   NpScene.obj
 0001:0003e310       ?setCCDMaxPasses@NpScene@physx@@UEAAXI@Z 000000018003f310 f   NpScene.obj
 0001:0003e360       ?getCCDMaxPasses@NpScene@physx@@UEBAIXZ 000000018003f360 f   NpScene.obj
 0001:0003e370       ?setFilterShaderData@NpScene@physx@@UEAAXPEBXI@Z 000000018003f370 f   NpScene.obj
 0001:0003e3c0       ?getFilterShaderData@NpScene@physx@@UEBAPEBXXZ 000000018003f3c0 f   NpScene.obj
 0001:0003e3d0       ?getFilterShaderDataSize@NpScene@physx@@UEBAIXZ 000000018003f3d0 f   NpScene.obj
 0001:0003e3e0       ?getFilterShader@NpScene@physx@@UEBAP6A?AV?$PxFlags@W4Enum@PxFilterFlag@physx@@G@2@IUPxFilterData@2@I0AEAV?$PxFlags@W4Enum@PxPairFlag@physx@@G@2@PEBXI@ZXZ 000000018003f3e0 f   NpScene.obj
 0001:0003e3f0       ?getFilterCallback@NpScene@physx@@UEBAPEAVPxSimulationFilterCallback@2@XZ 000000018003f3f0 f   NpScene.obj
 0001:0003e400       ?resetFiltering@NpScene@physx@@UEAAXAEAVPxActor@2@@Z 000000018003f400 f   NpScene.obj
 0001:0003e510       ?resetFiltering@NpScene@physx@@UEAAXAEAVPxRigidActor@2@PEBQEAVPxShape@2@I@Z 000000018003f510 f   NpScene.obj
 0001:0003e610       ?getPhysics@NpScene@physx@@UEAAAEAVPxPhysics@2@XZ 000000018003f610 f   NpScene.obj
 0001:0003e620       ?simulate@NpScene@physx@@UEAAXMPEAVPxBaseTask@2@PEAXI_N@Z 000000018003f620 f   NpScene.obj
 0001:0003e660       ?advance@NpScene@physx@@UEAAXPEAVPxBaseTask@2@@Z 000000018003f660 f   NpScene.obj
 0001:0003e740       ?collide@NpScene@physx@@UEAAXMPEAVPxBaseTask@2@PEAXI_N@Z 000000018003f740 f   NpScene.obj
 0001:0003e780       ?checkResults@NpScene@physx@@UEAA_N_N@Z 000000018003f780 f   NpScene.obj
 0001:0003e7a0       ?checkCollision@NpScene@physx@@UEAA_N_N@Z 000000018003f7a0 f   NpScene.obj
 0001:0003e7c0       ?fetchCollision@NpScene@physx@@UEAA_N_N@Z 000000018003f7c0 f   NpScene.obj
 0001:0003e840       ?fetchResults@NpScene@physx@@UEAA_N_NPEAI@Z 000000018003f840 f   NpScene.obj
 0001:0003e910       ?fetchResultsStart@NpScene@physx@@UEAA_NAEAPEBUPxContactPairHeader@2@AEAI_N@Z 000000018003f910 f   NpScene.obj
 0001:0003e9f0       ?processCallbacks@NpScene@physx@@UEAAXPEAVPxBaseTask@2@@Z 000000018003f9f0 f   NpScene.obj
 0001:0003ec10       ?fetchResultsFinish@NpScene@physx@@UEAAXPEAI@Z 000000018003fc10 f   NpScene.obj
 0001:0003ec70       ?flushSimulation@NpScene@physx@@UEAAX_N@Z 000000018003fc70 f   NpScene.obj
 0001:0003edc0       ?flushQueryUpdates@NpScene@physx@@UEAAXXZ 000000018003fdc0 f   NpScene.obj
 0001:0003ee50       ?getRenderBuffer@NpScene@physx@@UEAAAEBVPxRenderBuffer@2@XZ 000000018003fe50 f   NpScene.obj
 0001:0003eeb0       ?createBatchQuery@NpScene@physx@@UEAAPEAVPxBatchQuery@2@AEBVPxBatchQueryDesc@2@@Z 000000018003feb0 f   NpScene.obj
 0001:0003efa0       ?releaseBatchQuery@NpScene@physx@@QEAAXPEAVPxBatchQuery@2@@Z 000000018003ffa0 f   NpScene.obj
 0001:0003f010       ?setDynamicTreeRebuildRateHint@NpScene@physx@@UEAAXI@Z 0000000180040010 f   NpScene.obj
 0001:0003f030       ?getDynamicTreeRebuildRateHint@NpScene@physx@@UEBAIXZ 0000000180040030 f   NpScene.obj
 0001:0003f040       ?forceDynamicTreeRebuild@NpScene@physx@@UEAAX_N0@Z 0000000180040040 f   NpScene.obj
 0001:0003f080       ?sceneQueriesUpdate@NpScene@physx@@UEAAXPEAVPxBaseTask@2@_N@Z 0000000180040080 f   NpScene.obj
 0001:0003f240       ?checkQueries@NpScene@physx@@UEAA_N_N@Z 0000000180040240 f   NpScene.obj
 0001:0003f260       ?fetchQueries@NpScene@physx@@UEAA_N_N@Z 0000000180040260 f   NpScene.obj
 0001:0003f320       ?setSceneQueryUpdateMode@NpScene@physx@@UEAAXW4Enum@PxSceneQueryUpdateMode@2@@Z 0000000180040320 f   NpScene.obj
 0001:0003f330       ?getSceneQueryUpdateMode@NpScene@physx@@UEBA?AW4Enum@PxSceneQueryUpdateMode@2@XZ 0000000180040330 f   NpScene.obj
 0001:0003f340       ?setSolverBatchSize@NpScene@physx@@UEAAXI@Z 0000000180040340 f   NpScene.obj
 0001:0003f370       ?getSolverBatchSize@NpScene@physx@@UEBAIXZ 0000000180040370 f   NpScene.obj
 0001:0003f390       ?setVisualizationParameter@NpScene@physx@@UEAA_NW4Enum@PxVisualizationParameter@2@M@Z 0000000180040390 f   NpScene.obj
 0001:0003f430       ?getVisualizationParameter@NpScene@physx@@UEBAMW4Enum@PxVisualizationParameter@2@@Z 0000000180040430 f   NpScene.obj
 0001:0003f4b0       ?setVisualizationCullingBox@NpScene@physx@@UEAAXAEBVPxBounds3@2@@Z 00000001800404b0 f   NpScene.obj
 0001:0003f510       ?getVisualizationCullingBox@NpScene@physx@@UEBA?AVPxBounds3@2@XZ 0000000180040510 f   NpScene.obj
 0001:0003f570       ?setNbContactDataBlocks@NpScene@physx@@UEAAXI@Z 0000000180040570 f   NpScene.obj
 0001:0003f580       ?getNbContactDataBlocksUsed@NpScene@physx@@UEBAIXZ 0000000180040580 f   NpScene.obj
 0001:0003f590       ?getMaxNbContactDataBlocksUsed@NpScene@physx@@UEBAIXZ 0000000180040590 f   NpScene.obj
 0001:0003f5a0       ?getContactReportStreamBufferSize@NpScene@physx@@UEBAIXZ 00000001800405a0 f   NpScene.obj
 0001:0003f5b0       ?getTimestamp@NpScene@physx@@UEBAIXZ 00000001800405b0 f   NpScene.obj
 0001:0003f5c0       ?getSceneQueryStaticTimestamp@NpScene@physx@@UEBAIXZ 00000001800405c0 f   NpScene.obj
 0001:0003f5d0       ?getCpuDispatcher@NpScene@physx@@UEBAPEAVPxCpuDispatcher@2@XZ 00000001800405d0 f   NpScene.obj
 0001:0003f600       ?getGpuDispatcher@NpScene@physx@@UEBAPEAVPxGpuDispatcher@2@XZ 0000000180040600 f   NpScene.obj
 0001:0003f630       ?getStaticStructure@NpScene@physx@@UEBA?AW4Enum@PxPruningStructureType@2@XZ 0000000180040630 f   NpScene.obj
 0001:0003f640       ?getDynamicStructure@NpScene@physx@@UEBA?AW4Enum@PxPruningStructureType@2@XZ 0000000180040640 f   NpScene.obj
 0001:0003f650       ?getBroadPhaseType@NpScene@physx@@UEBA?AW4Enum@PxBroadPhaseType@2@XZ 0000000180040650 f   NpScene.obj
 0001:0003f660       ?getBroadPhaseCaps@NpScene@physx@@UEBA_NAEAUPxBroadPhaseCaps@2@@Z 0000000180040660 f   NpScene.obj
 0001:0003f670       ?getNbBroadPhaseRegions@NpScene@physx@@UEBAIXZ 0000000180040670 f   NpScene.obj
 0001:0003f680       ?getBroadPhaseRegions@NpScene@physx@@UEBAIPEAUPxBroadPhaseRegionInfo@2@II@Z 0000000180040680 f   NpScene.obj
 0001:0003f690       ?addBroadPhaseRegion@NpScene@physx@@UEAAIAEBUPxBroadPhaseRegion@2@_N@Z 0000000180040690 f   NpScene.obj
 0001:0003f6f0       ?removeBroadPhaseRegion@NpScene@physx@@UEAA_NI@Z 00000001800406f0 f   NpScene.obj
 0001:0003f700       ?addActors@NpScene@physx@@UEAAXPEBQEAVPxActor@2@I@Z 0000000180040700 f   NpScene.obj
 0001:0003f710       ?addActors@NpScene@physx@@UEAAXAEBVPxPruningStructure@2@@Z 0000000180040710 f   NpScene.obj
 0001:0003f770       ?removeActors@NpScene@physx@@UEAAXPEBQEAVPxActor@2@I_N@Z 0000000180040770 f   NpScene.obj
 0001:0003fca0       ?lockRead@NpScene@physx@@UEAAXPEBDI@Z 0000000180040ca0 f   NpScene.obj
 0001:0003fd30       ?unlockRead@NpScene@physx@@UEAAXXZ 0000000180040d30 f   NpScene.obj
 0001:0003fdf0       ?lockWrite@NpScene@physx@@UEAAXPEBDI@Z 0000000180040df0 f   NpScene.obj
 0001:0003fef0       ?unlockWrite@NpScene@physx@@UEAAXXZ 0000000180040ef0 f   NpScene.obj
 0001:0003ffc0       ?getWakeCounterResetValue@NpScene@physx@@UEBAMXZ 0000000180040fc0 f   NpScene.obj
 0001:0003ffd0       ?shiftOrigin@NpScene@physx@@UEAAXAEBVPxVec3@2@@Z 0000000180040fd0 f   NpScene.obj
 0001:000404a0       ?getScenePvdClient@NpScene@physx@@UEAAPEAVPxPvdSceneClient@2@XZ 00000001800414a0 f   NpScene.obj
 0001:000404b0       ?getSimulationController@NpScene@physx@@UEAAPEAVPxsSimulationController@2@XZ 00000001800414b0 f   NpScene.obj
 0001:000404c0       ?setActiveActors@NpScene@physx@@UEAAXPEAPEAVPxActor@2@I@Z 00000001800414c0 f   NpScene.obj
 0001:000404d0       ?getFrozenActors@NpScene@physx@@UEAAPEAPEAVPxActor@2@AEAI@Z 00000001800414d0 f   NpScene.obj
 0001:00040530       ?setFrozenActorFlag@NpScene@physx@@UEAAX_N@Z 0000000180041530 f   NpScene.obj
 0001:00040540       ?forceSceneQueryRebuild@NpScene@physx@@UEAAXXZ 0000000180041540 f   NpScene.obj
 0001:00040590       ?frameEnd@NpScene@physx@@UEAAXXZ 0000000180041590 f   NpScene.obj
 0001:000405a0       ??0NpScene@physx@@QEAA@AEBVPxSceneDesc@1@@Z 00000001800415a0 f   NpScene.obj
 0001:00040c30       ??1NpScene@physx@@UEAA@XZ  0000000180041c30 f   NpScene.obj
 0001:00041270       ?addActorInternal@NpScene@physx@@QEAAXAEAVPxActor@2@PEBVPxBVHStructure@2@@Z 0000000180042270 f   NpScene.obj
 0001:00041390       ?removeActorInternal@NpScene@physx@@QEAAXAEAVPxActor@2@_N1@Z 0000000180042390 f   NpScene.obj
 0001:000415d0       ?addActorsInternal@NpScene@physx@@QEAAXPEIBQEAVPxActor@2@IPEBVPruningStructure@Sq@2@@Z 00000001800425d0 f   NpScene.obj
 0001:00041c90       ?addArticulationInternal@NpScene@physx@@QEAAXAEAVPxArticulationBase@2@@Z 0000000180042c90 f   NpScene.obj
 0001:00042330       ?removeArticulationInternal@NpScene@physx@@QEAAXAEAVPxArticulationBase@2@_N1@Z 0000000180043330 f   NpScene.obj
 0001:000425f0       ?addMaterial@NpScene@physx@@QEAAXAEBVNpMaterial@2@@Z 00000001800435f0 f   NpScene.obj
 0001:00042610       ?updateMaterial@NpScene@physx@@QEAAXAEBVNpMaterial@2@@Z 0000000180043610 f   NpScene.obj
 0001:00042630       ?removeMaterial@NpScene@physx@@QEAAXAEBVNpMaterial@2@@Z 0000000180043630 f   NpScene.obj
 0001:00042650       ?executeScene@NpScene@physx@@QEAAXPEAVPxBaseTask@2@@Z 0000000180043650 f   NpScene.obj
 0001:00042670       ?executeCollide@NpScene@physx@@QEAAXPEAVPxBaseTask@2@@Z 0000000180043670 f   NpScene.obj
 0001:00042690       ?executeAdvance@NpScene@physx@@QEAAXPEAVPxBaseTask@2@@Z 0000000180043690 f   NpScene.obj
 0001:000426b0       ?loadFromDesc@NpScene@physx@@QEAA_NAEBVPxSceneDesc@2@@Z 00000001800436b0 f   NpScene.obj
 0001:00042720       ?removeFromRigidActorList@NpScene@physx@@QEAAXAEBI@Z 0000000180043720 f   NpScene.obj
 0001:000427a0       ?addArticulationLink@NpScene@physx@@QEAAXAEAVNpArticulationLink@2@@Z 00000001800437a0 f   NpScene.obj
 0001:00042850       ?addArticulationLinkBody@NpScene@physx@@QEAAXAEAVNpArticulationLink@2@@Z 0000000180043850 f   NpScene.obj
 0001:000428c0       ?addArticulationLinkConstraint@NpScene@physx@@QEAAXAEAVNpArticulationLink@2@@Z 00000001800438c0 f   NpScene.obj
 0001:00042920       ?removeArticulationLink@NpScene@physx@@QEAAXAEAVNpArticulationLink@2@_N@Z 0000000180043920 f   NpScene.obj
 0001:000429c0       ?startWrite@NpScene@physx@@QEAA?AW4Enum@StartWriteResult@12@_N@Z 00000001800439c0 f   NpScene.obj
 0001:000429d0       ?stopWrite@NpScene@physx@@QEAAX_N@Z 00000001800439d0 f   NpScene.obj
 0001:000429e0       ?startRead@NpScene@physx@@QEBA_NXZ 00000001800439e0 f   NpScene.obj
 0001:000429f0       ?stopRead@NpScene@physx@@QEBAXXZ 00000001800439f0 f   NpScene.obj
 0001:00042a00       ?updatePhysXIndicator@NpScene@physx@@QEAAXXZ 0000000180043a00 f   NpScene.obj
 0001:00042a20       ?checkResultsInternal@NpScene@physx@@AEAA_N_N@Z 0000000180043a20 f   NpScene.obj
 0001:00042a40       ?checkCollisionInternal@NpScene@physx@@AEAA_N_N@Z 0000000180043a40 f   NpScene.obj
 0001:00042a60       ?checkSceneQueriesInternal@NpScene@physx@@AEAA_N_N@Z 0000000180043a60 f   NpScene.obj
 0001:00042a80       ?simulateOrCollide@NpScene@physx@@AEAAXMPEAVPxBaseTask@2@PEAXI_NPEBDW4Enum@SimulationStage@Sc@2@@Z 0000000180043a80 f   NpScene.obj
 0001:00042d00       ?addRigidStatic@NpScene@physx@@AEAAXAEAVNpRigidStatic@2@PEBVBVHStructure@Gu@2@_N@Z 0000000180043d00 f   NpScene.obj
 0001:00042e30       ?removeRigidStatic@NpScene@physx@@AEAAXAEAVNpRigidStatic@2@_N1@Z 0000000180043e30 f   NpScene.obj
 0001:00042f70       ?addRigidDynamic@NpScene@physx@@AEAAXAEAVNpRigidDynamic@2@PEBVBVHStructure@Gu@2@_N@Z 0000000180043f70 f   NpScene.obj
 0001:000430a0       ?removeRigidDynamic@NpScene@physx@@AEAAXAEAVNpRigidDynamic@2@_N1@Z 00000001800440a0 f   NpScene.obj
 0001:000431e0       ?visualize@NpScene@physx@@AEAAXXZ 00000001800441e0 f   NpScene.obj
 0001:00043530       ?updateDirtyShaders@NpScene@physx@@AEAAXXZ 0000000180044530 f   NpScene.obj
 0001:00043580       ?fireOutOfBoundsCallbacks@NpScene@physx@@AEAAXXZ 0000000180044580 f   NpScene.obj
 0001:00043660       ?fetchResultsPreContactCallbacks@NpScene@physx@@AEAAXXZ 0000000180044660 f   NpScene.obj
 0001:00043770       ?fetchResultsPostContactCallbacks@NpScene@physx@@AEAAXXZ 0000000180044770 f   NpScene.obj
 0001:00043890       ?updateScbStateAndSetupSq@NpScene@physx@@AEAAXAEBVPxRigidActor@2@AEAVActor@Scb@2@AEAVNpShapeManager@2@_NPEBVPxBounds3@2@3@Z 0000000180044890 f   NpScene.obj
 0001:000439c0       ??$allocArrayBuffer@PEAVShape@Scb@physx@@@Scene@Scb@physx@@AEAAPEAPEAVShape@12@AEAV?$Array@PEAVShape@Scb@physx@@V?$ReflectionAllocator@PEAVShape@Scb@physx@@@shdfnd@3@@shdfnd@2@IAEAI@Z 00000001800449c0 f i NpScene.obj
 0001:00043a10       ??$sort@PEAXU?$Less@PEAX@shdfnd@physx@@V?$ReflectionAllocator@U?$Block@E$0BAA@@Scene@Sc@physx@@@23@@shdfnd@physx@@YAXPEAPEAXIAEBU?$Less@PEAX@01@AEBV?$ReflectionAllocator@U?$Block@E$0BAA@@Scene@Sc@physx@@@01@I@Z 0000000180044a10 f i NpScene.obj
 0001:00043e70       ??$sort@PEAXU?$Less@PEAX@shdfnd@physx@@V?$ReflectionAllocator@U?$Block@E$0BIA@@Scene@Sc@physx@@@23@@shdfnd@physx@@YAXPEAPEAXIAEBU?$Less@PEAX@01@AEBV?$ReflectionAllocator@U?$Block@E$0BIA@@Scene@Sc@physx@@@01@I@Z 0000000180044e70 f i NpScene.obj
 0001:000442d0       ??$sort@PEAXU?$Less@PEAX@shdfnd@physx@@V?$ReflectionAllocator@U?$Block@E$0IA@@Scene@Sc@physx@@@23@@shdfnd@physx@@YAXPEAPEAXIAEBU?$Less@PEAX@01@AEBV?$ReflectionAllocator@U?$Block@E$0IA@@Scene@Sc@physx@@@01@I@Z 00000001800452d0 f i NpScene.obj
 0001:00044730       ??$sort@PEAXU?$Less@PEAX@shdfnd@physx@@V?$ReflectionAllocator@U?$Block@PEAX$07@Scene@Sc@physx@@@23@@shdfnd@physx@@YAXPEAPEAXIAEBU?$Less@PEAX@01@AEBV?$ReflectionAllocator@U?$Block@PEAX$07@Scene@Sc@physx@@@01@I@Z 0000000180045730 f i NpScene.obj
 0001:00044b90       ??$sort@PEAXU?$Less@PEAX@shdfnd@physx@@V?$ReflectionAllocator@U?$Block@PEAX$0BA@@Scene@Sc@physx@@@23@@shdfnd@physx@@YAXPEAPEAXIAEBU?$Less@PEAX@01@AEBV?$ReflectionAllocator@U?$Block@PEAX$0BA@@Scene@Sc@physx@@@01@I@Z 0000000180045b90 f i NpScene.obj
 0001:00044ff0       ??$sort@PEAXU?$Less@PEAX@shdfnd@physx@@V?$ReflectionAllocator@U?$Block@PEAX$0CA@@Scene@Sc@physx@@@23@@shdfnd@physx@@YAXPEAPEAXIAEBU?$Less@PEAX@01@AEBV?$ReflectionAllocator@U?$Block@PEAX$0CA@@Scene@Sc@physx@@@01@I@Z 0000000180045ff0 f i NpScene.obj
 0001:00045450       ??0PxBounds3@physx@@QEAA@XZ 0000000180046450 f i NpScene.obj
 0001:00045460       ??1?$Array@IV?$ReflectionAllocator@I@shdfnd@physx@@@shdfnd@physx@@QEAA@XZ 0000000180046460 f i NpScene.obj
 0001:000454b0       ??1?$Array@PEAVInteraction@Sc@physx@@V?$ReflectionAllocator@PEAVInteraction@Sc@physx@@@shdfnd@3@@shdfnd@physx@@QEAA@XZ 00000001800464b0 f i NpScene.obj
 0001:00045500       ??1FanoutTask@Cm@physx@@UEAA@XZ 0000000180046500 f i NpScene.obj
 0001:000455c0       ??1FlushPool@Cm@physx@@QEAA@XZ 00000001800465c0 f i NpScene.obj
 0001:00045670       ??1NpSceneAccessor@physx@@UEAA@XZ 0000000180046670 f i NpScene.obj
 0001:00045680       ??1PxBaseTask@physx@@UEAA@XZ 0000000180046680 f i NpScene.obj
 0001:00045690       ??1PxLightCpuTask@physx@@UEAA@XZ 0000000180046690 f i NpScene.obj
 0001:000456b0       ??1PxRenderBuffer@physx@@UEAA@XZ 00000001800466b0 f i NpScene.obj
 0001:000456c0       ??1PxScene@physx@@MEAA@XZ  00000001800466c0 f i NpScene.obj
 0001:000456d0       ??1RenderBuffer@Cm@physx@@UEAA@XZ 00000001800466d0 f i NpScene.obj
 0001:000457c0       ??1Scene@Sc@physx@@QEAA@XZ 00000001800467c0 f i NpScene.obj
 0001:00046ab0       ??1Scene@Scb@physx@@QEAA@XZ 0000000180047ab0 f i NpScene.obj
 0001:00046ca0       ??1SqRefFinder@Sc@physx@@UEAA@XZ 0000000180047ca0 f i NpScene.obj
 0001:00046cb0       ??_G?$DelegateTask@VNpScene@physx@@$H?executeAdvance@12@QEAAXPEAVPxBaseTask@2@@ZA@@Cm@physx@@UEAAPEAXI@Z 0000000180047cb0 f i NpScene.obj
 0001:00046cb0       ??_E?$DelegateTask@VNpScene@physx@@$H?executeAdvance@12@QEAAXPEAVPxBaseTask@2@@ZA@@Cm@physx@@UEAAPEAXI@Z 0000000180047cb0 f i NpScene.obj
 0001:00046d10       ??_E?$DelegateTask@VNpScene@physx@@$H?executeCollide@12@QEAAXPEAVPxBaseTask@2@@ZA@@Cm@physx@@UEAAPEAXI@Z 0000000180047d10 f i NpScene.obj
 0001:00046d10       ??_G?$DelegateTask@VNpScene@physx@@$H?executeCollide@12@QEAAXPEAVPxBaseTask@2@@ZA@@Cm@physx@@UEAAPEAXI@Z 0000000180047d10 f i NpScene.obj
 0001:00046d70       ??_G?$DelegateTask@VNpScene@physx@@$H?executeScene@12@QEAAXPEAVPxBaseTask@2@@ZA@@Cm@physx@@UEAAPEAXI@Z 0000000180047d70 f i NpScene.obj
 0001:00046d70       ??_E?$DelegateTask@VNpScene@physx@@$H?executeScene@12@QEAAXPEAVPxBaseTask@2@@ZA@@Cm@physx@@UEAAPEAXI@Z 0000000180047d70 f i NpScene.obj
 0001:00046dd0       ??_E?$DelegateTask@VNpSceneQueries@physx@@$1?sceneQueriesDynamicPrunerUpdate@12@QEAAXPEAVPxBaseTask@2@@Z@Cm@physx@@UEAAPEAXI@Z 0000000180047dd0 f i NpScene.obj
 0001:00046dd0       ??_G?$DelegateTask@VNpSceneQueries@physx@@$1?sceneQueriesDynamicPrunerUpdate@12@QEAAXPEAVPxBaseTask@2@@Z@Cm@physx@@UEAAPEAXI@Z 0000000180047dd0 f i NpScene.obj
 0001:00046e30       ??_G?$DelegateTask@VNpSceneQueries@physx@@$1?sceneQueriesStaticPrunerUpdate@12@QEAAXPEAVPxBaseTask@2@@Z@Cm@physx@@UEAAPEAXI@Z 0000000180047e30 f i NpScene.obj
 0001:00046e30       ??_E?$DelegateTask@VNpSceneQueries@physx@@$1?sceneQueriesStaticPrunerUpdate@12@QEAAXPEAVPxBaseTask@2@@Z@Cm@physx@@UEAAPEAXI@Z 0000000180047e30 f i NpScene.obj
 0001:00046e90       ??_GNpContactCallbackTask@physx@@UEAAPEAXI@Z 0000000180047e90 f i NpScene.obj
 0001:00046e90       ??_ENpContactCallbackTask@physx@@UEAAPEAXI@Z 0000000180047e90 f i NpScene.obj
 0001:00046ed0       ??_GNpScene@physx@@UEAAPEAXI@Z 0000000180047ed0 f i NpScene.obj
 0001:00046ed0       ??_ENpScene@physx@@UEAAPEAXI@Z 0000000180047ed0 f i NpScene.obj
 0001:00046f30       ??_GNpSceneAccessor@physx@@UEAAPEAXI@Z 0000000180047f30 f i NpScene.obj
 0001:00046f30       ??_ENpSceneAccessor@physx@@UEAAPEAXI@Z 0000000180047f30 f i NpScene.obj
 0001:00046f60       ??_GNpSceneQueries@physx@@UEAAPEAXI@Z 0000000180047f60 f i NpScene.obj
 0001:00046f60       ??_ENpSceneQueries@physx@@UEAAPEAXI@Z 0000000180047f60 f i NpScene.obj
 0001:00046fe0       ??_EPxBaseTask@physx@@UEAAPEAXI@Z 0000000180047fe0 f i NpScene.obj
 0001:00046fe0       ??_GPxBaseTask@physx@@UEAAPEAXI@Z 0000000180047fe0 f i NpScene.obj
 0001:00047010       ??_GPxLightCpuTask@physx@@UEAAPEAXI@Z 0000000180048010 f i NpScene.obj
 0001:00047010       ??_EPxLightCpuTask@physx@@UEAAPEAXI@Z 0000000180048010 f i NpScene.obj
 0001:00047050       ??_GPxRenderBuffer@physx@@UEAAPEAXI@Z 0000000180048050 f i NpScene.obj
 0001:00047050       ??_EPxRenderBuffer@physx@@UEAAPEAXI@Z 0000000180048050 f i NpScene.obj
 0001:00047080       ??_EPxScene@physx@@MEAAPEAXI@Z 0000000180048080 f i NpScene.obj
 0001:00047080       ??_GPxScene@physx@@MEAAPEAXI@Z 0000000180048080 f i NpScene.obj
 0001:000470b0       ??_GRenderBuffer@Cm@physx@@UEAAPEAXI@Z 00000001800480b0 f i NpScene.obj
 0001:000470b0       ??_ERenderBuffer@Cm@physx@@UEAAPEAXI@Z 00000001800480b0 f i NpScene.obj
 0001:00047110       ??_ESceneCompletion@NpScene@physx@@UEAAPEAXI@Z 0000000180048110 f i NpScene.obj
 0001:00047110       ??_GSceneCompletion@NpScene@physx@@UEAAPEAXI@Z 0000000180048110 f i NpScene.obj
 0001:00047150       ??_ESqRefFinder@@UEAAPEAXI@Z 0000000180048150 f i NpScene.obj
 0001:00047150       ??_GSqRefFinder@@UEAAPEAXI@Z 0000000180048150 f i NpScene.obj
 0001:00047180       ??_GSqRefFinder@Sc@physx@@UEAAPEAXI@Z 0000000180048180 f i NpScene.obj
 0001:00047180       ??_ESqRefFinder@Sc@physx@@UEAAPEAXI@Z 0000000180048180 f i NpScene.obj
 0001:000471b0       ??_ETask@Cm@physx@@UEAAPEAXI@Z 00000001800481b0 f i NpScene.obj
 0001:000471b0       ??_GTask@Cm@physx@@UEAAPEAXI@Z 00000001800481b0 f i NpScene.obj
 0001:000471f0       ?addReference@PxLightCpuTask@physx@@UEAAXXZ 00000001800481f0 f i NpScene.obj
 0001:00047210       ?allocate@?$Array@PEAVPxRigidActor@physx@@V?$ReflectionAllocator@PEAVPxRigidActor@physx@@@shdfnd@2@@shdfnd@physx@@IEAAPEAPEAVPxRigidActor@3@I@Z 0000000180048210 f i NpScene.obj
 0001:000472b0       ?allocate@?$Array@UPxDebugPoint@physx@@V?$ReflectionAllocator@UPxDebugPoint@physx@@@shdfnd@2@@shdfnd@physx@@IEAAPEAUPxDebugPoint@3@I@Z 00000001800482b0 f i NpScene.obj
 0001:00047350       ?allocate@?$Array@UPxDebugText@physx@@V?$ReflectionAllocator@UPxDebugText@physx@@@shdfnd@2@@shdfnd@physx@@IEAAPEAUPxDebugText@3@I@Z 0000000180048350 f i NpScene.obj
 0001:000473f0       ?allocate@?$Array@UPxDebugTriangle@physx@@V?$ReflectionAllocator@UPxDebugTriangle@physx@@@shdfnd@2@@shdfnd@physx@@IEAAPEAUPxDebugTriangle@3@I@Z 00000001800483f0 f i NpScene.obj
 0001:00047490       ?allocate@?$Array@VPxBounds3@physx@@V?$InlineAllocator@$0MA@V?$ReflectionAllocator@VPxBounds3@physx@@@shdfnd@physx@@@shdfnd@2@@shdfnd@physx@@IEAAPEAVPxBounds3@3@I@Z 0000000180048490 f i NpScene.obj
 0001:00047550       ?allocate@?$ReflectionAllocator@PEAVShape@Scb@physx@@@shdfnd@physx@@QEAAPEAX_KPEBDH@Z 0000000180048550 f i NpScene.obj
 0001:000475f0       ?allocate@?$ReflectionAllocator@U?$Block@E$0BAA@@Scene@Sc@physx@@@shdfnd@physx@@QEAAPEAX_KPEBDH@Z 00000001800485f0 f i NpScene.obj
 0001:00047690       ?allocate@?$ReflectionAllocator@U?$Block@E$0BIA@@Scene@Sc@physx@@@shdfnd@physx@@QEAAPEAX_KPEBDH@Z 0000000180048690 f i NpScene.obj
 0001:00047730       ?allocate@?$ReflectionAllocator@U?$Block@E$0IA@@Scene@Sc@physx@@@shdfnd@physx@@QEAAPEAX_KPEBDH@Z 0000000180048730 f i NpScene.obj
 0001:000477d0       ?allocate@?$ReflectionAllocator@U?$Block@PEAX$07@Scene@Sc@physx@@@shdfnd@physx@@QEAAPEAX_KPEBDH@Z 00000001800487d0 f i NpScene.obj
 0001:00047870       ?allocate@?$ReflectionAllocator@U?$Block@PEAX$0BA@@Scene@Sc@physx@@@shdfnd@physx@@QEAAPEAX_KPEBDH@Z 0000000180048870 f i NpScene.obj
 0001:00047910       ?allocate@?$ReflectionAllocator@U?$Block@PEAX$0CA@@Scene@Sc@physx@@@shdfnd@physx@@QEAAPEAX_KPEBDH@Z 0000000180048910 f i NpScene.obj
 0001:000479b0       ?append@RenderBuffer@Cm@physx@@UEAAXAEBVPxRenderBuffer@3@@Z 00000001800489b0 f i NpScene.obj
 0001:00047c90       ?clear@RenderBuffer@Cm@physx@@UEAAXXZ 0000000180048c90 f i NpScene.obj
 0001:00047cb0       ?copy@?$Array@UPxDebugPoint@physx@@V?$ReflectionAllocator@UPxDebugPoint@physx@@@shdfnd@2@@shdfnd@physx@@KAXPEAUPxDebugPoint@3@0PEBU43@@Z 0000000180048cb0 f i NpScene.obj
 0001:00047db0       ?copy@?$Array@UPxDebugText@physx@@V?$ReflectionAllocator@UPxDebugText@physx@@@shdfnd@2@@shdfnd@physx@@KAXPEAUPxDebugText@3@0PEBU43@@Z 0000000180048db0 f i NpScene.obj
 0001:00047f20       ?copy@?$Array@UPxDebugTriangle@physx@@V?$ReflectionAllocator@UPxDebugTriangle@physx@@@shdfnd@2@@shdfnd@physx@@KAXPEAUPxDebugTriangle@3@0PEBU43@@Z 0000000180048f20 f i NpScene.obj
 0001:00048120       ?create@?$HashBase@PEAVPxAggregate@physx@@PEAV12@U?$Hash@PEAVPxAggregate@physx@@@shdfnd@2@UGetKey@?$HashSetBase@PEAVPxAggregate@physx@@U?$Hash@PEAVPxAggregate@physx@@@shdfnd@2@VNonTrackingAllocator@42@$00@internal@42@VNonTrackingAllocator@42@$00@internal@shdfnd@physx@@QEAAPEAPEAVPxAggregate@4@AEBQEAV54@AEA_N@Z 0000000180049120 f i NpScene.obj
 0001:000482c0       ?create@?$HashBase@PEAVPxArticulationBase@physx@@PEAV12@U?$Hash@PEAVPxArticulationBase@physx@@@shdfnd@2@UGetKey@?$HashSetBase@PEAVPxArticulationBase@physx@@U?$Hash@PEAVPxArticulationBase@physx@@@shdfnd@2@VNonTrackingAllocator@42@$00@internal@42@VNonTrackingAllocator@42@$00@internal@shdfnd@physx@@QEAAPEAPEAVPxArticulationBase@4@AEBQEAV54@AEA_N@Z 00000001800492c0 f i NpScene.obj
 0001:00048460       ?find@SqRefFinder@@UEAAIPEBVPxRigidBody@physx@@PEBVPxShape@3@@Z 0000000180049460 f i NpScene.obj
 0001:00048490       ?flush@NpScene@physx@@UEAAX_N@Z 0000000180049490 f i NpScene.obj
 0001:000484a0       ?getLines@RenderBuffer@Cm@physx@@UEBAPEBUPxDebugLine@3@XZ 00000001800494a0 f i NpScene.obj
 0001:000484b0       ?getName@?$DelegateTask@VNpScene@physx@@$H?executeAdvance@12@QEAAXPEAVPxBaseTask@2@@ZA@@Cm@physx@@UEBAPEBDXZ 00000001800494b0 f i NpScene.obj
 0001:000484c0       ?getName@?$DelegateTask@VNpScene@physx@@$H?executeCollide@12@QEAAXPEAVPxBaseTask@2@@ZA@@Cm@physx@@UEBAPEBDXZ 00000001800494c0 f i NpScene.obj
 0001:000484d0       ?getName@?$DelegateTask@VNpScene@physx@@$H?executeScene@12@QEAAXPEAVPxBaseTask@2@@ZA@@Cm@physx@@UEBAPEBDXZ 00000001800494d0 f i NpScene.obj
 0001:000484e0       ?getName@?$DelegateTask@VNpSceneQueries@physx@@$1?sceneQueriesDynamicPrunerUpdate@12@QEAAXPEAVPxBaseTask@2@@Z@Cm@physx@@UEBAPEBDXZ 00000001800494e0 f i NpScene.obj
 0001:000484f0       ?getName@?$DelegateTask@VNpSceneQueries@physx@@$1?sceneQueriesStaticPrunerUpdate@12@QEAAXPEAVPxBaseTask@2@@Z@Cm@physx@@UEBAPEBDXZ 00000001800494f0 f i NpScene.obj
 0001:00048500       ?getName@NpContactCallbackTask@physx@@UEBAPEBDXZ 0000000180049500 f i NpScene.obj
 0001:00048510       ?getName@SceneCompletion@NpScene@physx@@UEBAPEBDXZ 0000000180049510 f i NpScene.obj
 0001:00048520       ?getNbLines@RenderBuffer@Cm@physx@@UEBAIXZ 0000000180049520 f i NpScene.obj
 0001:00048530       ?getNbPoints@RenderBuffer@Cm@physx@@UEBAIXZ 0000000180049530 f i NpScene.obj
 0001:00048540       ?getNbTexts@RenderBuffer@Cm@physx@@UEBAIXZ 0000000180049540 f i NpScene.obj
 0001:00048550       ?getNbTriangles@RenderBuffer@Cm@physx@@UEBAIXZ 0000000180049550 f i NpScene.obj
 0001:00048560       ?getPoints@RenderBuffer@Cm@physx@@UEBAPEBUPxDebugPoint@3@XZ 0000000180049560 f i NpScene.obj
 0001:00048570       ?getReference@PxLightCpuTask@physx@@UEBAHXZ 0000000180049570 f i NpScene.obj
 0001:00048580       ?getTaskManager@NpScene@physx@@UEAAPEAVPxTaskManager@2@XZ 0000000180049580 f i NpScene.obj
 0001:00048590       ?getTaskManager@NpScene@physx@@UEBAPEAVPxTaskManager@2@XZ 0000000180049590 f i NpScene.obj
 0001:000485a0       ?getTexts@RenderBuffer@Cm@physx@@UEBAPEBUPxDebugText@3@XZ 00000001800495a0 f i NpScene.obj
 0001:000485b0       ?getTriangles@RenderBuffer@Cm@physx@@UEBAPEBUPxDebugTriangle@3@XZ 00000001800495b0 f i NpScene.obj
 0001:000485c0       ?growAndPushBack@?$Array@PEAEV?$ReflectionAllocator@PEAE@shdfnd@physx@@@shdfnd@physx@@IEAAAEAPEAEAEBQEAE@Z 00000001800495c0 f i NpScene.obj
 0001:000486e0       ?growAndPushBack@?$Array@PEAVNpBatchQuery@physx@@V?$ReflectionAllocator@PEAVNpBatchQuery@physx@@@shdfnd@2@@shdfnd@physx@@IEAAAEAPEAVNpBatchQuery@3@AEBQEAV43@@Z 00000001800496e0 f i NpScene.obj
 0001:00048800       ?growAndPushBack@?$Array@PEAVPxRigidActor@physx@@V?$ReflectionAllocator@PEAVPxRigidActor@physx@@@shdfnd@2@@shdfnd@physx@@IEAAAEAPEAVPxRigidActor@3@AEBQEAV43@@Z 0000000180049800 f i NpScene.obj
 0001:000488c0       ?growAndPushBack@?$Array@PEAXV?$ReflectionAllocator@U?$Block@E$0BAA@@Scene@Sc@physx@@@shdfnd@physx@@@shdfnd@physx@@IEAAAEAPEAXAEBQEAX@Z 00000001800498c0 f i NpScene.obj
 0001:000489a0       ?growAndPushBack@?$Array@PEAXV?$ReflectionAllocator@U?$Block@E$0BIA@@Scene@Sc@physx@@@shdfnd@physx@@@shdfnd@physx@@IEAAAEAPEAXAEBQEAX@Z 00000001800499a0 f i NpScene.obj
 0001:00048a80       ?growAndPushBack@?$Array@PEAXV?$ReflectionAllocator@U?$Block@E$0IA@@Scene@Sc@physx@@@shdfnd@physx@@@shdfnd@physx@@IEAAAEAPEAXAEBQEAX@Z 0000000180049a80 f i NpScene.obj
 0001:00048b60       ?growAndPushBack@?$Array@PEAXV?$ReflectionAllocator@U?$Block@PEAX$07@Scene@Sc@physx@@@shdfnd@physx@@@shdfnd@physx@@IEAAAEAPEAXAEBQEAX@Z 0000000180049b60 f i NpScene.obj
 0001:00048c40       ?growAndPushBack@?$Array@PEAXV?$ReflectionAllocator@U?$Block@PEAX$0BA@@Scene@Sc@physx@@@shdfnd@physx@@@shdfnd@physx@@IEAAAEAPEAXAEBQEAX@Z 0000000180049c40 f i NpScene.obj
 0001:00048d20       ?growAndPushBack@?$Array@PEAXV?$ReflectionAllocator@U?$Block@PEAX$0CA@@Scene@Sc@physx@@@shdfnd@physx@@@shdfnd@physx@@IEAAAEAPEAXAEBQEAX@Z 0000000180049d20 f i NpScene.obj
 0001:00048e00       ?growAndPushBack@?$Array@UPxDebugLine@physx@@V?$ReflectionAllocator@UPxDebugLine@physx@@@shdfnd@2@@shdfnd@physx@@IEAAAEAUPxDebugLine@3@AEBU43@@Z 0000000180049e00 f i NpScene.obj
 0001:00048ed0       ?growAndPushBack@?$Array@UPxDebugPoint@physx@@V?$ReflectionAllocator@UPxDebugPoint@physx@@@shdfnd@2@@shdfnd@physx@@IEAAAEAUPxDebugPoint@3@AEBU43@@Z 0000000180049ed0 f i NpScene.obj
 0001:00048f90       ?growAndPushBack@?$Array@UPxDebugText@physx@@V?$ReflectionAllocator@UPxDebugText@physx@@@shdfnd@2@@shdfnd@physx@@IEAAAEAUPxDebugText@3@AEBU43@@Z 0000000180049f90 f i NpScene.obj
 0001:00049060       ?growAndPushBack@?$Array@UPxDebugTriangle@physx@@V?$ReflectionAllocator@UPxDebugTriangle@physx@@@shdfnd@2@@shdfnd@physx@@IEAAAEAUPxDebugTriangle@3@AEBU43@@Z 000000018004a060 f i NpScene.obj
 0001:00049160       ?isAddedShape@RigidObject@Scb@physx@@QEAA_NAEAVShape@23@@Z 000000018004a160 f i NpScene.obj
 0001:000491f0       ?recreate@?$Array@GV?$ReflectionAllocator@G@shdfnd@physx@@@shdfnd@physx@@IEAAXI@Z 000000018004a1f0 f i NpScene.obj
 0001:000492b0       ?recreate@?$Array@PEAVActor@Scb@physx@@V?$ReflectionAllocator@PEAVActor@Scb@physx@@@shdfnd@3@@shdfnd@physx@@IEAAXI@Z 000000018004a2b0 f i NpScene.obj
 0001:000493c0       ?recreate@?$Array@PEAVPxRigidActor@physx@@V?$ReflectionAllocator@PEAVPxRigidActor@physx@@@shdfnd@2@@shdfnd@physx@@IEAAXI@Z 000000018004a3c0 f i NpScene.obj
 0001:00049460       ?recreate@?$Array@PEAVShape@Scb@physx@@V?$ReflectionAllocator@PEAVShape@Scb@physx@@@shdfnd@3@@shdfnd@physx@@IEAAXI@Z 000000018004a460 f i NpScene.obj
 0001:00049520       ?recreate@?$Array@UPxDebugPoint@physx@@V?$ReflectionAllocator@UPxDebugPoint@physx@@@shdfnd@2@@shdfnd@physx@@IEAAXI@Z 000000018004a520 f i NpScene.obj
 0001:000495b0       ?recreate@?$Array@UPxDebugText@physx@@V?$ReflectionAllocator@UPxDebugText@physx@@@shdfnd@2@@shdfnd@physx@@IEAAXI@Z 000000018004a5b0 f i NpScene.obj
 0001:00049640       ?recreate@?$Array@UPxDebugTriangle@physx@@V?$ReflectionAllocator@UPxDebugTriangle@physx@@@shdfnd@2@@shdfnd@physx@@IEAAXI@Z 000000018004a640 f i NpScene.obj
 0001:000496d0       ?recreate@?$Array@VPxBounds3@physx@@V?$InlineAllocator@$0MA@V?$ReflectionAllocator@VPxBounds3@physx@@@shdfnd@physx@@@shdfnd@2@@shdfnd@physx@@IEAAXI@Z 000000018004a6d0 f i NpScene.obj
 0001:00049890       ?release@PxLightCpuTask@physx@@UEAAXXZ 000000018004a890 f i NpScene.obj
 0001:000498b0       ?release@SceneCompletion@NpScene@physx@@UEAAXXZ 000000018004a8b0 f i NpScene.obj
 0001:000498e0       ?removeReference@PxLightCpuTask@physx@@UEAAXXZ 000000018004a8e0 f i NpScene.obj
 0001:00049900       ?reserveInternal@?$HashBase@PEAVPxAggregate@physx@@PEAV12@U?$Hash@PEAVPxAggregate@physx@@@shdfnd@2@UGetKey@?$HashSetBase@PEAVPxAggregate@physx@@U?$Hash@PEAVPxAggregate@physx@@@shdfnd@2@VNonTrackingAllocator@42@$00@internal@42@VNonTrackingAllocator@42@$00@internal@shdfnd@physx@@AEAAXI@Z 000000018004a900 f i NpScene.obj
 0001:00049ad0       ?reserveInternal@?$HashBase@PEAVPxArticulationBase@physx@@PEAV12@U?$Hash@PEAVPxArticulationBase@physx@@@shdfnd@2@UGetKey@?$HashSetBase@PEAVPxArticulationBase@physx@@U?$Hash@PEAVPxArticulationBase@physx@@@shdfnd@2@VNonTrackingAllocator@42@$00@internal@42@VNonTrackingAllocator@42@$00@internal@shdfnd@physx@@AEAAXI@Z 000000018004aad0 f i NpScene.obj
 0001:00049ca0       ?resetFiltering@?$NpRigidActorTemplate@VPxArticulationLink@physx@@@physx@@QEAA_NAEAVRigidObject@Scb@2@PEBQEAVPxShape@2@I@Z 000000018004aca0 f i NpScene.obj
 0001:00049e20       ?resetFiltering@?$NpRigidActorTemplate@VPxRigidDynamic@physx@@@physx@@QEAA_NAEAVRigidObject@Scb@2@PEBQEAVPxShape@2@I@Z 000000018004ae20 f i NpScene.obj
 0001:00049fa0       ?resetFiltering@?$NpRigidActorTemplate@VPxRigidStatic@physx@@@physx@@QEAA_NAEAVRigidObject@Scb@2@PEBQEAVPxShape@2@I@Z 000000018004afa0 f i NpScene.obj
 0001:0004a120       ?resetFiltering@RigidObject@Scb@physx@@QEAAXPEBQEAVShape@23@I@Z 000000018004b120 f i NpScene.obj
 0001:0004a3c0       ?resize@?$Array@GV?$ReflectionAllocator@G@shdfnd@physx@@@shdfnd@physx@@QEAAXIAEBG@Z 000000018004b3c0 f i NpScene.obj
 0001:0004a480       ?resize@?$Array@PEAVActor@Scb@physx@@V?$ReflectionAllocator@PEAVActor@Scb@physx@@@shdfnd@3@@shdfnd@physx@@QEAAXIAEBQEAVActor@Scb@3@@Z 000000018004b480 f i NpScene.obj
 0001:0004a540       ?resize@?$Array@PEAVShape@Scb@physx@@V?$ReflectionAllocator@PEAVShape@Scb@physx@@@shdfnd@3@@shdfnd@physx@@QEAAXIAEBQEAVShape@Scb@3@@Z 000000018004b540 f i NpScene.obj
 0001:0004a600       ?resizeUninitialized@?$Array@VPxBounds3@physx@@V?$InlineAllocator@$0MA@V?$ReflectionAllocator@VPxBounds3@physx@@@shdfnd@physx@@@shdfnd@2@@shdfnd@physx@@QEAAXI@Z 000000018004b600 f i NpScene.obj
 0001:0004a650       ?run@Task@Cm@physx@@UEAAXXZ 000000018004b650 f i NpScene.obj
 0001:0004a690       ?runInternal@?$DelegateTask@VNpScene@physx@@$H?executeAdvance@12@QEAAXPEAVPxBaseTask@2@@ZA@@Cm@physx@@UEAAXXZ 000000018004b690 f i NpScene.obj
 0001:0004a6b0       ?runInternal@?$DelegateTask@VNpScene@physx@@$H?executeCollide@12@QEAAXPEAVPxBaseTask@2@@ZA@@Cm@physx@@UEAAXXZ 000000018004b6b0 f i NpScene.obj
 0001:0004a6d0       ?runInternal@?$DelegateTask@VNpScene@physx@@$H?executeScene@12@QEAAXPEAVPxBaseTask@2@@ZA@@Cm@physx@@UEAAXXZ 000000018004b6d0 f i NpScene.obj
 0001:0004a6f0       ?runInternal@?$DelegateTask@VNpSceneQueries@physx@@$1?sceneQueriesDynamicPrunerUpdate@12@QEAAXPEAVPxBaseTask@2@@Z@Cm@physx@@UEAAXXZ 000000018004b6f0 f i NpScene.obj
 0001:0004a700       ?runInternal@?$DelegateTask@VNpSceneQueries@physx@@$1?sceneQueriesStaticPrunerUpdate@12@QEAAXPEAVPxBaseTask@2@@Z@Cm@physx@@UEAAXXZ 000000018004b700 f i NpScene.obj
 0001:0004a710       ?runInternal@SceneCompletion@NpScene@physx@@UEAAXXZ 000000018004b710 f i NpScene.obj
 0001:0004a720       ?shift@RenderBuffer@Cm@physx@@QEAAXAEBVPxVec3@3@@Z 000000018004b720 f i NpScene.obj
 0001:0004a910       ?raycast@NpSceneQueries@physx@@UEBA_NAEBVPxVec3@2@0MAEAU?$PxHitCallback@UPxRaycastHit@physx@@@2@V?$PxFlags@W4Enum@PxHitFlag@physx@@G@2@AEBUPxQueryFilterData@2@PEAVPxQueryFilterCallback@2@PEBUPxQueryCache@2@@Z 000000018004b910 f   NpSceneQueries.obj
 0001:0004a9e0       ?sweep@NpSceneQueries@physx@@UEBA_NAEBVPxGeometry@2@AEBVPxTransform@2@AEBVPxVec3@2@MAEAU?$PxHitCallback@UPxSweepHit@physx@@@2@V?$PxFlags@W4Enum@PxHitFlag@physx@@G@2@AEBUPxQueryFilterData@2@PEAVPxQueryFilterCallback@2@PEBUPxQueryCache@2@M@Z 000000018004b9e0 f   NpSceneQueries.obj
 0001:0004abf0       ?overlap@NpSceneQueries@physx@@UEBA_NAEBVPxGeometry@2@AEBVPxTransform@2@AEAU?$PxHitCallback@UPxOverlapHit@physx@@@2@AEBUPxQueryFilterData@2@PEAVPxQueryFilterCallback@2@@Z 000000018004bbf0 f   NpSceneQueries.obj
 0001:0004aca0       ?sceneQueriesStaticPrunerUpdate@NpSceneQueries@physx@@QEAAXPEAVPxBaseTask@2@@Z 000000018004bca0 f   NpSceneQueries.obj
 0001:0004acc0       ?sceneQueriesDynamicPrunerUpdate@NpSceneQueries@physx@@QEAAXPEAVPxBaseTask@2@@Z 000000018004bcc0 f   NpSceneQueries.obj
 0001:0004ad90       ??$multiQuery@UPxOverlapHit@physx@@@NpSceneQueries@physx@@QEBA_NAEBUMultiQueryInput@1@AEAU?$PxHitCallback@UPxOverlapHit@physx@@@1@V?$PxFlags@W4Enum@PxHitFlag@physx@@G@1@PEBUPxQueryCache@1@AEBUPxQueryFilterData@1@PEAVPxQueryFilterCallback@1@PEAUBatchQueryFilterData@1@@Z 000000018004bd90 f i NpSceneQueries.obj
 0001:0004b040       ??$multiQuery@UPxRaycastHit@physx@@@NpSceneQueries@physx@@QEBA_NAEBUMultiQueryInput@1@AEAU?$PxHitCallback@UPxRaycastHit@physx@@@1@V?$PxFlags@W4Enum@PxHitFlag@physx@@G@1@PEBUPxQueryCache@1@AEBUPxQueryFilterData@1@PEAVPxQueryFilterCallback@1@PEAUBatchQueryFilterData@1@@Z 000000018004c040 f i NpSceneQueries.obj
 0001:0004b3b0       ??$multiQuery@UPxSweepHit@physx@@@NpSceneQueries@physx@@QEBA_NAEBUMultiQueryInput@1@AEAU?$PxHitCallback@UPxSweepHit@physx@@@1@V?$PxFlags@W4Enum@PxHitFlag@physx@@G@1@PEBUPxQueryCache@1@AEBUPxQueryFilterData@1@PEAVPxQueryFilterCallback@1@PEAUBatchQueryFilterData@1@@Z 000000018004c3b0 f i NpSceneQueries.obj
 0001:0004b7e0       ??0PxOverlapHit@physx@@QEAA@XZ 000000018004c7e0 f i NpSceneQueries.obj
 0001:0004b800       ??0PxRaycastHit@physx@@QEAA@XZ 000000018004c800 f i NpSceneQueries.obj
 0001:0004b830       ??0PxSweepHit@physx@@QEAA@XZ 000000018004c830 f i NpSceneQueries.obj
 0001:0004b860       ??1PrunerCallback@Sq@physx@@UEAA@XZ 000000018004c860 f i NpSceneQueries.obj
 0001:0004b870       ??_G?$MultiQueryCallback@UPxOverlapHit@physx@@@@UEAAPEAXI@Z 000000018004c870 f i NpSceneQueries.obj
 0001:0004b870       ??_E?$MultiQueryCallback@UPxOverlapHit@physx@@@@UEAAPEAXI@Z 000000018004c870 f i NpSceneQueries.obj
 0001:0004b8a0       ??_E?$MultiQueryCallback@UPxRaycastHit@physx@@@@UEAAPEAXI@Z 000000018004c8a0 f i NpSceneQueries.obj
 0001:0004b8a0       ??_G?$MultiQueryCallback@UPxRaycastHit@physx@@@@UEAAPEAXI@Z 000000018004c8a0 f i NpSceneQueries.obj
 0001:0004b8d0       ??_E?$MultiQueryCallback@UPxSweepHit@physx@@@@UEAAPEAXI@Z 000000018004c8d0 f i NpSceneQueries.obj
 0001:0004b8d0       ??_G?$MultiQueryCallback@UPxSweepHit@physx@@@@UEAAPEAXI@Z 000000018004c8d0 f i NpSceneQueries.obj
 0001:0004b900       ??_GPrunerCallback@Sq@physx@@UEAAPEAXI@Z 000000018004c900 f i NpSceneQueries.obj
 0001:0004b900       ??_EPrunerCallback@Sq@physx@@UEAAPEAXI@Z 000000018004c900 f i NpSceneQueries.obj
 0001:0004b930       ?invoke@?$MultiQueryCallback@UPxOverlapHit@physx@@@@UEAA_NAEAMAEBUPrunerPayload@Sq@physx@@@Z 000000018004c930 f i NpSceneQueries.obj
 0001:0004bd60       ?invoke@?$MultiQueryCallback@UPxRaycastHit@physx@@@@UEAA_NAEAMAEBUPrunerPayload@Sq@physx@@@Z 000000018004cd60 f i NpSceneQueries.obj
 0001:0004c4a0       ?invoke@?$MultiQueryCallback@UPxSweepHit@physx@@@@UEAA_NAEAMAEBUPrunerPayload@Sq@physx@@@Z 000000018004d4a0 f i NpSceneQueries.obj
 0001:0004d240       PxRegisterPhysicsSerializers 000000018004e240 f   NpSerializerAdapter.obj
 0001:0004d740       PxUnregisterPhysicsSerializers 000000018004e740 f   NpSerializerAdapter.obj
 0001:0004dab0       ??1PxProcessPxBaseCallback@physx@@UEAA@XZ 000000018004eab0 f i NpSerializerAdapter.obj
 0001:0004dac0       ??1PxSerializer@physx@@UEAA@XZ 000000018004eac0 f i NpSerializerAdapter.obj
 0001:0004dad0       ??_G?$PxSerializerDefaultAdapter@VBV4TriangleMesh@Gu@physx@@@physx@@UEAAPEAXI@Z 000000018004ead0 f i NpSerializerAdapter.obj
 0001:0004dad0       ??_E?$PxSerializerDefaultAdapter@VBV4TriangleMesh@Gu@physx@@@physx@@UEAAPEAXI@Z 000000018004ead0 f i NpSerializerAdapter.obj
 0001:0004db00       ??_G?$PxSerializerDefaultAdapter@VConvexMesh@Gu@physx@@@physx@@UEAAPEAXI@Z 000000018004eb00 f i NpSerializerAdapter.obj
 0001:0004db00       ??_E?$PxSerializerDefaultAdapter@VConvexMesh@Gu@physx@@@physx@@UEAAPEAXI@Z 000000018004eb00 f i NpSerializerAdapter.obj
 0001:0004db30       ??_G?$PxSerializerDefaultAdapter@VHeightField@Gu@physx@@@physx@@UEAAPEAXI@Z 000000018004eb30 f i NpSerializerAdapter.obj
 0001:0004db30       ??_E?$PxSerializerDefaultAdapter@VHeightField@Gu@physx@@@physx@@UEAAPEAXI@Z 000000018004eb30 f i NpSerializerAdapter.obj
 0001:0004db60       ??_E?$PxSerializerDefaultAdapter@VNpAggregate@physx@@@physx@@UEAAPEAXI@Z 000000018004eb60 f i NpSerializerAdapter.obj
 0001:0004db60       ??_G?$PxSerializerDefaultAdapter@VNpAggregate@physx@@@physx@@UEAAPEAXI@Z 000000018004eb60 f i NpSerializerAdapter.obj
 0001:0004db90       ??_E?$PxSerializerDefaultAdapter@VNpArticulation@physx@@@physx@@UEAAPEAXI@Z 000000018004eb90 f i NpSerializerAdapter.obj
 0001:0004db90       ??_G?$PxSerializerDefaultAdapter@VNpArticulation@physx@@@physx@@UEAAPEAXI@Z 000000018004eb90 f i NpSerializerAdapter.obj
 0001:0004dbc0       ??_E?$PxSerializerDefaultAdapter@VNpArticulationJoint@physx@@@physx@@UEAAPEAXI@Z 000000018004ebc0 f i NpSerializerAdapter.obj
 0001:0004dbc0       ??_G?$PxSerializerDefaultAdapter@VNpArticulationJoint@physx@@@physx@@UEAAPEAXI@Z 000000018004ebc0 f i NpSerializerAdapter.obj
 0001:0004dbf0       ??_E?$PxSerializerDefaultAdapter@VNpArticulationLink@physx@@@physx@@UEAAPEAXI@Z 000000018004ebf0 f i NpSerializerAdapter.obj
 0001:0004dbf0       ??_G?$PxSerializerDefaultAdapter@VNpArticulationLink@physx@@@physx@@UEAAPEAXI@Z 000000018004ebf0 f i NpSerializerAdapter.obj
 0001:0004dc20       ??_G?$PxSerializerDefaultAdapter@VNpConstraint@physx@@@physx@@UEAAPEAXI@Z 000000018004ec20 f i NpSerializerAdapter.obj
 0001:0004dc20       ??_E?$PxSerializerDefaultAdapter@VNpConstraint@physx@@@physx@@UEAAPEAXI@Z 000000018004ec20 f i NpSerializerAdapter.obj
 0001:0004dc50       ??_G?$PxSerializerDefaultAdapter@VNpMaterial@physx@@@physx@@UEAAPEAXI@Z 000000018004ec50 f i NpSerializerAdapter.obj
 0001:0004dc50       ??_E?$PxSerializerDefaultAdapter@VNpMaterial@physx@@@physx@@UEAAPEAXI@Z 000000018004ec50 f i NpSerializerAdapter.obj
 0001:0004dc80       ??_G?$PxSerializerDefaultAdapter@VNpRigidDynamic@physx@@@physx@@UEAAPEAXI@Z 000000018004ec80 f i NpSerializerAdapter.obj
 0001:0004dc80       ??_E?$PxSerializerDefaultAdapter@VNpRigidDynamic@physx@@@physx@@UEAAPEAXI@Z 000000018004ec80 f i NpSerializerAdapter.obj
 0001:0004dcb0       ??_E?$PxSerializerDefaultAdapter@VNpRigidStatic@physx@@@physx@@UEAAPEAXI@Z 000000018004ecb0 f i NpSerializerAdapter.obj
 0001:0004dcb0       ??_G?$PxSerializerDefaultAdapter@VNpRigidStatic@physx@@@physx@@UEAAPEAXI@Z 000000018004ecb0 f i NpSerializerAdapter.obj
 0001:0004dce0       ??_G?$PxSerializerDefaultAdapter@VNpShape@physx@@@physx@@UEAAPEAXI@Z 000000018004ece0 f i NpSerializerAdapter.obj
 0001:0004dce0       ??_E?$PxSerializerDefaultAdapter@VNpShape@physx@@@physx@@UEAAPEAXI@Z 000000018004ece0 f i NpSerializerAdapter.obj
 0001:0004dd10       ??_G?$PxSerializerDefaultAdapter@VPruningStructure@Sq@physx@@@physx@@UEAAPEAXI@Z 000000018004ed10 f i NpSerializerAdapter.obj
 0001:0004dd10       ??_E?$PxSerializerDefaultAdapter@VPruningStructure@Sq@physx@@@physx@@UEAAPEAXI@Z 000000018004ed10 f i NpSerializerAdapter.obj
 0001:0004dd40       ??_E?$PxSerializerDefaultAdapter@VRTreeTriangleMesh@Gu@physx@@@physx@@UEAAPEAXI@Z 000000018004ed40 f i NpSerializerAdapter.obj
 0001:0004dd40       ??_G?$PxSerializerDefaultAdapter@VRTreeTriangleMesh@Gu@physx@@@physx@@UEAAPEAXI@Z 000000018004ed40 f i NpSerializerAdapter.obj
 0001:0004dd70       ??_GPxProcessPxBaseCallback@physx@@UEAAPEAXI@Z 000000018004ed70 f i NpSerializerAdapter.obj
 0001:0004dd70       ??_EPxProcessPxBaseCallback@physx@@UEAAPEAXI@Z 000000018004ed70 f i NpSerializerAdapter.obj
 0001:0004dda0       ??_EPxSerializer@physx@@UEAAPEAXI@Z 000000018004eda0 f i NpSerializerAdapter.obj
 0001:0004dda0       ??_GPxSerializer@physx@@UEAAPEAXI@Z 000000018004eda0 f i NpSerializerAdapter.obj
 0001:0004ddd0       ??_ERequiresCallback@?1??registerReferences@?$PxSerializerDefaultAdapter@VBV4TriangleMesh@Gu@physx@@@physx@@UEBAXAEAVPxBase@3@AEAVPxSerializationContext@3@@Z@UEAAPEAXI@Z 000000018004edd0 f i NpSerializerAdapter.obj
 0001:0004ddd0       ??_GRequiresCallback@?1??registerReferences@?$PxSerializerDefaultAdapter@VBV4TriangleMesh@Gu@physx@@@physx@@UEBAXAEAVPxBase@3@AEAVPxSerializationContext@3@@Z@UEAAPEAXI@Z 000000018004edd0 f i NpSerializerAdapter.obj
 0001:0004de00       ??_ERequiresCallback@?1??registerReferences@?$PxSerializerDefaultAdapter@VConvexMesh@Gu@physx@@@physx@@UEBAXAEAVPxBase@3@AEAVPxSerializationContext@3@@Z@UEAAPEAXI@Z 000000018004ee00 f i NpSerializerAdapter.obj
 0001:0004de00       ??_GRequiresCallback@?1??registerReferences@?$PxSerializerDefaultAdapter@VConvexMesh@Gu@physx@@@physx@@UEBAXAEAVPxBase@3@AEAVPxSerializationContext@3@@Z@UEAAPEAXI@Z 000000018004ee00 f i NpSerializerAdapter.obj
 0001:0004de30       ??_ERequiresCallback@?1??registerReferences@?$PxSerializerDefaultAdapter@VHeightField@Gu@physx@@@physx@@UEBAXAEAVPxBase@3@AEAVPxSerializationContext@3@@Z@UEAAPEAXI@Z 000000018004ee30 f i NpSerializerAdapter.obj
 0001:0004de30       ??_GRequiresCallback@?1??registerReferences@?$PxSerializerDefaultAdapter@VHeightField@Gu@physx@@@physx@@UEBAXAEAVPxBase@3@AEAVPxSerializationContext@3@@Z@UEAAPEAXI@Z 000000018004ee30 f i NpSerializerAdapter.obj
 0001:0004de60       ??_GRequiresCallback@?1??registerReferences@?$PxSerializerDefaultAdapter@VNpAggregate@physx@@@physx@@UEBAXAEAVPxBase@3@AEAVPxSerializationContext@3@@Z@UEAAPEAXI@Z 000000018004ee60 f i NpSerializerAdapter.obj
 0001:0004de60       ??_ERequiresCallback@?1??registerReferences@?$PxSerializerDefaultAdapter@VNpAggregate@physx@@@physx@@UEBAXAEAVPxBase@3@AEAVPxSerializationContext@3@@Z@UEAAPEAXI@Z 000000018004ee60 f i NpSerializerAdapter.obj
 0001:0004de90       ??_GRequiresCallback@?1??registerReferences@?$PxSerializerDefaultAdapter@VNpArticulation@physx@@@physx@@UEBAXAEAVPxBase@3@AEAVPxSerializationContext@3@@Z@UEAAPEAXI@Z 000000018004ee90 f i NpSerializerAdapter.obj
 0001:0004de90       ??_ERequiresCallback@?1??registerReferences@?$PxSerializerDefaultAdapter@VNpArticulation@physx@@@physx@@UEBAXAEAVPxBase@3@AEAVPxSerializationContext@3@@Z@UEAAPEAXI@Z 000000018004ee90 f i NpSerializerAdapter.obj
 0001:0004dec0       ??_GRequiresCallback@?1??registerReferences@?$PxSerializerDefaultAdapter@VNpArticulationJoint@physx@@@physx@@UEBAXAEAVPxBase@3@AEAVPxSerializationContext@3@@Z@UEAAPEAXI@Z 000000018004eec0 f i NpSerializerAdapter.obj
 0001:0004dec0       ??_ERequiresCallback@?1??registerReferences@?$PxSerializerDefaultAdapter@VNpArticulationJoint@physx@@@physx@@UEBAXAEAVPxBase@3@AEAVPxSerializationContext@3@@Z@UEAAPEAXI@Z 000000018004eec0 f i NpSerializerAdapter.obj
 0001:0004def0       ??_GRequiresCallback@?1??registerReferences@?$PxSerializerDefaultAdapter@VNpArticulationLink@physx@@@physx@@UEBAXAEAVPxBase@3@AEAVPxSerializationContext@3@@Z@UEAAPEAXI@Z 000000018004eef0 f i NpSerializerAdapter.obj
 0001:0004def0       ??_ERequiresCallback@?1??registerReferences@?$PxSerializerDefaultAdapter@VNpArticulationLink@physx@@@physx@@UEBAXAEAVPxBase@3@AEAVPxSerializationContext@3@@Z@UEAAPEAXI@Z 000000018004eef0 f i NpSerializerAdapter.obj
 0001:0004df20       ??_GRequiresCallback@?1??registerReferences@?$PxSerializerDefaultAdapter@VNpConstraint@physx@@@physx@@UEBAXAEAVPxBase@3@AEAVPxSerializationContext@3@@Z@UEAAPEAXI@Z 000000018004ef20 f i NpSerializerAdapter.obj
 0001:0004df20       ??_ERequiresCallback@?1??registerReferences@?$PxSerializerDefaultAdapter@VNpConstraint@physx@@@physx@@UEBAXAEAVPxBase@3@AEAVPxSerializationContext@3@@Z@UEAAPEAXI@Z 000000018004ef20 f i NpSerializerAdapter.obj
 0001:0004df50       ??_GRequiresCallback@?1??registerReferences@?$PxSerializerDefaultAdapter@VNpMaterial@physx@@@physx@@UEBAXAEAVPxBase@3@AEAVPxSerializationContext@3@@Z@UEAAPEAXI@Z 000000018004ef50 f i NpSerializerAdapter.obj
 0001:0004df50       ??_ERequiresCallback@?1??registerReferences@?$PxSerializerDefaultAdapter@VNpMaterial@physx@@@physx@@UEBAXAEAVPxBase@3@AEAVPxSerializationContext@3@@Z@UEAAPEAXI@Z 000000018004ef50 f i NpSerializerAdapter.obj
 0001:0004df80       ??_GRequiresCallback@?1??registerReferences@?$PxSerializerDefaultAdapter@VNpRigidDynamic@physx@@@physx@@UEBAXAEAVPxBase@3@AEAVPxSerializationContext@3@@Z@UEAAPEAXI@Z 000000018004ef80 f i NpSerializerAdapter.obj
 0001:0004df80       ??_ERequiresCallback@?1??registerReferences@?$PxSerializerDefaultAdapter@VNpRigidDynamic@physx@@@physx@@UEBAXAEAVPxBase@3@AEAVPxSerializationContext@3@@Z@UEAAPEAXI@Z 000000018004ef80 f i NpSerializerAdapter.obj
 0001:0004dfb0       ??_GRequiresCallback@?1??registerReferences@?$PxSerializerDefaultAdapter@VNpRigidStatic@physx@@@physx@@UEBAXAEAVPxBase@3@AEAVPxSerializationContext@3@@Z@UEAAPEAXI@Z 000000018004efb0 f i NpSerializerAdapter.obj
 0001:0004dfb0       ??_ERequiresCallback@?1??registerReferences@?$PxSerializerDefaultAdapter@VNpRigidStatic@physx@@@physx@@UEBAXAEAVPxBase@3@AEAVPxSerializationContext@3@@Z@UEAAPEAXI@Z 000000018004efb0 f i NpSerializerAdapter.obj
 0001:0004dfe0       ??_GRequiresCallback@?1??registerReferences@?$PxSerializerDefaultAdapter@VNpShape@physx@@@physx@@UEBAXAEAVPxBase@3@AEAVPxSerializationContext@3@@Z@UEAAPEAXI@Z 000000018004efe0 f i NpSerializerAdapter.obj
 0001:0004dfe0       ??_ERequiresCallback@?1??registerReferences@?$PxSerializerDefaultAdapter@VNpShape@physx@@@physx@@UEBAXAEAVPxBase@3@AEAVPxSerializationContext@3@@Z@UEAAPEAXI@Z 000000018004efe0 f i NpSerializerAdapter.obj
 0001:0004e010       ??_GRequiresCallback@?1??registerReferences@?$PxSerializerDefaultAdapter@VPruningStructure@Sq@physx@@@physx@@UEBAXAEAVPxBase@3@AEAVPxSerializationContext@3@@Z@UEAAPEAXI@Z 000000018004f010 f i NpSerializerAdapter.obj
 0001:0004e010       ??_ERequiresCallback@?1??registerReferences@?$PxSerializerDefaultAdapter@VPruningStructure@Sq@physx@@@physx@@UEBAXAEAVPxBase@3@AEAVPxSerializationContext@3@@Z@UEAAPEAXI@Z 000000018004f010 f i NpSerializerAdapter.obj
 0001:0004e040       ??_GRequiresCallback@?1??registerReferences@?$PxSerializerDefaultAdapter@VRTreeTriangleMesh@Gu@physx@@@physx@@UEBAXAEAVPxBase@3@AEAVPxSerializationContext@3@@Z@UEAAPEAXI@Z 000000018004f040 f i NpSerializerAdapter.obj
 0001:0004e040       ??_ERequiresCallback@?1??registerReferences@?$PxSerializerDefaultAdapter@VRTreeTriangleMesh@Gu@physx@@@physx@@UEBAXAEAVPxBase@3@AEAVPxSerializationContext@3@@Z@UEAAPEAXI@Z 000000018004f040 f i NpSerializerAdapter.obj
 0001:0004e070       ?createObject@?$PxSerializerDefaultAdapter@VBV4TriangleMesh@Gu@physx@@@physx@@UEBAPEAVPxBase@2@AEAPEAEAEAVPxDeserializationContext@2@@Z 000000018004f070 f i NpSerializerAdapter.obj
 0001:0004e080       ?createObject@?$PxSerializerDefaultAdapter@VConvexMesh@Gu@physx@@@physx@@UEBAPEAVPxBase@2@AEAPEAEAEAVPxDeserializationContext@2@@Z 000000018004f080 f i NpSerializerAdapter.obj
 0001:0004e090       ?createObject@?$PxSerializerDefaultAdapter@VHeightField@Gu@physx@@@physx@@UEBAPEAVPxBase@2@AEAPEAEAEAVPxDeserializationContext@2@@Z 000000018004f090 f i NpSerializerAdapter.obj
 0001:0004e0a0       ?createObject@?$PxSerializerDefaultAdapter@VNpAggregate@physx@@@physx@@UEBAPEAVPxBase@2@AEAPEAEAEAVPxDeserializationContext@2@@Z 000000018004f0a0 f i NpSerializerAdapter.obj
 0001:0004e0b0       ?createObject@?$PxSerializerDefaultAdapter@VNpArticulation@physx@@@physx@@UEBAPEAVPxBase@2@AEAPEAEAEAVPxDeserializationContext@2@@Z 000000018004f0b0 f i NpSerializerAdapter.obj
 0001:0004e0c0       ?createObject@?$PxSerializerDefaultAdapter@VNpArticulationJoint@physx@@@physx@@UEBAPEAVPxBase@2@AEAPEAEAEAVPxDeserializationContext@2@@Z 000000018004f0c0 f i NpSerializerAdapter.obj
 0001:0004e0d0       ?createObject@?$PxSerializerDefaultAdapter@VNpArticulationLink@physx@@@physx@@UEBAPEAVPxBase@2@AEAPEAEAEAVPxDeserializationContext@2@@Z 000000018004f0d0 f i NpSerializerAdapter.obj
 0001:0004e0e0       ?createObject@?$PxSerializerDefaultAdapter@VNpConstraint@physx@@@physx@@UEBAPEAVPxBase@2@AEAPEAEAEAVPxDeserializationContext@2@@Z 000000018004f0e0 f i NpSerializerAdapter.obj
 0001:0004e0f0       ?createObject@?$PxSerializerDefaultAdapter@VNpMaterial@physx@@@physx@@UEBAPEAVPxBase@2@AEAPEAEAEAVPxDeserializationContext@2@@Z 000000018004f0f0 f i NpSerializerAdapter.obj
 0001:0004e100       ?createObject@?$PxSerializerDefaultAdapter@VNpRigidDynamic@physx@@@physx@@UEBAPEAVPxBase@2@AEAPEAEAEAVPxDeserializationContext@2@@Z 000000018004f100 f i NpSerializerAdapter.obj
 0001:0004e110       ?createObject@?$PxSerializerDefaultAdapter@VNpRigidStatic@physx@@@physx@@UEBAPEAVPxBase@2@AEAPEAEAEAVPxDeserializationContext@2@@Z 000000018004f110 f i NpSerializerAdapter.obj
 0001:0004e120       ?createObject@?$PxSerializerDefaultAdapter@VNpShape@physx@@@physx@@UEBAPEAVPxBase@2@AEAPEAEAEAVPxDeserializationContext@2@@Z 000000018004f120 f i NpSerializerAdapter.obj
 0001:0004e130       ?createObject@?$PxSerializerDefaultAdapter@VPruningStructure@Sq@physx@@@physx@@UEBAPEAVPxBase@2@AEAPEAEAEAVPxDeserializationContext@2@@Z 000000018004f130 f i NpSerializerAdapter.obj
 0001:0004e140       ?createObject@?$PxSerializerDefaultAdapter@VRTreeTriangleMesh@Gu@physx@@@physx@@UEBAPEAVPxBase@2@AEAPEAEAEAVPxDeserializationContext@2@@Z 000000018004f140 f i NpSerializerAdapter.obj
 0001:0004e150       ?exportData@?$PxSerializerDefaultAdapter@VBV4TriangleMesh@Gu@physx@@@physx@@UEBAXAEAVPxBase@2@AEAVPxSerializationContext@2@@Z 000000018004f150 f i NpSerializerAdapter.obj
 0001:0004e160       ?exportData@?$PxSerializerDefaultAdapter@VConvexMesh@Gu@physx@@@physx@@UEBAXAEAVPxBase@2@AEAVPxSerializationContext@2@@Z 000000018004f160 f i NpSerializerAdapter.obj
 0001:0004e170       ?exportData@?$PxSerializerDefaultAdapter@VHeightField@Gu@physx@@@physx@@UEBAXAEAVPxBase@2@AEAVPxSerializationContext@2@@Z 000000018004f170 f i NpSerializerAdapter.obj
 0001:0004e180       ?exportData@?$PxSerializerDefaultAdapter@VNpAggregate@physx@@@physx@@UEBAXAEAVPxBase@2@AEAVPxSerializationContext@2@@Z 000000018004f180 f i NpSerializerAdapter.obj
 0001:0004e190       ?exportData@?$PxSerializerDefaultAdapter@VNpArticulation@physx@@@physx@@UEBAXAEAVPxBase@2@AEAVPxSerializationContext@2@@Z 000000018004f190 f i NpSerializerAdapter.obj
 0001:0004e1a0       ?exportData@?$PxSerializerDefaultAdapter@VNpArticulationJoint@physx@@@physx@@UEBAXAEAVPxBase@2@AEAVPxSerializationContext@2@@Z 000000018004f1a0 f i NpSerializerAdapter.obj
 0001:0004e1b0       ?exportData@?$PxSerializerDefaultAdapter@VNpArticulationLink@physx@@@physx@@UEBAXAEAVPxBase@2@AEAVPxSerializationContext@2@@Z 000000018004f1b0 f i NpSerializerAdapter.obj
 0001:0004e1c0       ?exportData@?$PxSerializerDefaultAdapter@VNpConstraint@physx@@@physx@@UEBAXAEAVPxBase@2@AEAVPxSerializationContext@2@@Z 000000018004f1c0 f i NpSerializerAdapter.obj
 0001:0004e1d0       ?exportData@?$PxSerializerDefaultAdapter@VNpMaterial@physx@@@physx@@UEBAXAEAVPxBase@2@AEAVPxSerializationContext@2@@Z 000000018004f1d0 f i NpSerializerAdapter.obj
 0001:0004e1e0       ?exportData@?$PxSerializerDefaultAdapter@VNpRigidDynamic@physx@@@physx@@UEBAXAEAVPxBase@2@AEAVPxSerializationContext@2@@Z 000000018004f1e0 f i NpSerializerAdapter.obj
 0001:0004e280       ?exportData@?$PxSerializerDefaultAdapter@VNpRigidStatic@physx@@@physx@@UEBAXAEAVPxBase@2@AEAVPxSerializationContext@2@@Z 000000018004f280 f i NpSerializerAdapter.obj
 0001:0004e290       ?exportData@?$PxSerializerDefaultAdapter@VNpShape@physx@@@physx@@UEBAXAEAVPxBase@2@AEAVPxSerializationContext@2@@Z 000000018004f290 f i NpSerializerAdapter.obj
 0001:0004e2a0       ?exportData@?$PxSerializerDefaultAdapter@VPruningStructure@Sq@physx@@@physx@@UEBAXAEAVPxBase@2@AEAVPxSerializationContext@2@@Z 000000018004f2a0 f i NpSerializerAdapter.obj
 0001:0004e2b0       ?exportData@?$PxSerializerDefaultAdapter@VRTreeTriangleMesh@Gu@physx@@@physx@@UEBAXAEAVPxBase@2@AEAVPxSerializationContext@2@@Z 000000018004f2b0 f i NpSerializerAdapter.obj
 0001:0004e2c0       ?exportExtraData@?$PxSerializerDefaultAdapter@VBV4TriangleMesh@Gu@physx@@@physx@@UEBAXAEAVPxBase@2@AEAVPxSerializationContext@2@@Z 000000018004f2c0 f i NpSerializerAdapter.obj
 0001:0004e2d0       ?exportExtraData@?$PxSerializerDefaultAdapter@VConvexMesh@Gu@physx@@@physx@@UEBAXAEAVPxBase@2@AEAVPxSerializationContext@2@@Z 000000018004f2d0 f i NpSerializerAdapter.obj
 0001:0004e2e0       ?exportExtraData@?$PxSerializerDefaultAdapter@VHeightField@Gu@physx@@@physx@@UEBAXAEAVPxBase@2@AEAVPxSerializationContext@2@@Z 000000018004f2e0 f i NpSerializerAdapter.obj
 0001:0004e2f0       ?exportExtraData@?$PxSerializerDefaultAdapter@VNpAggregate@physx@@@physx@@UEBAXAEAVPxBase@2@AEAVPxSerializationContext@2@@Z 000000018004f2f0 f i NpSerializerAdapter.obj
 0001:0004e300       ?exportExtraData@?$PxSerializerDefaultAdapter@VNpArticulation@physx@@@physx@@UEBAXAEAVPxBase@2@AEAVPxSerializationContext@2@@Z 000000018004f300 f i NpSerializerAdapter.obj
 0001:0004e310       ?exportExtraData@?$PxSerializerDefaultAdapter@VNpArticulationJoint@physx@@@physx@@UEBAXAEAVPxBase@2@AEAVPxSerializationContext@2@@Z 000000018004f310 f i NpSerializerAdapter.obj
 0001:0004e320       ?exportExtraData@?$PxSerializerDefaultAdapter@VNpArticulationLink@physx@@@physx@@UEBAXAEAVPxBase@2@AEAVPxSerializationContext@2@@Z 000000018004f320 f i NpSerializerAdapter.obj
 0001:0004e330       ?exportExtraData@?$PxSerializerDefaultAdapter@VNpConstraint@physx@@@physx@@UEBAXAEAVPxBase@2@AEAVPxSerializationContext@2@@Z 000000018004f330 f i NpSerializerAdapter.obj
 0001:0004e340       ?exportExtraData@?$PxSerializerDefaultAdapter@VNpMaterial@physx@@@physx@@UEBAXAEAVPxBase@2@AEAVPxSerializationContext@2@@Z 000000018004f340 f i NpSerializerAdapter.obj
 0001:0004e350       ?exportExtraData@?$PxSerializerDefaultAdapter@VNpRigidDynamic@physx@@@physx@@UEBAXAEAVPxBase@2@AEAVPxSerializationContext@2@@Z 000000018004f350 f i NpSerializerAdapter.obj
 0001:0004e360       ?exportExtraData@?$PxSerializerDefaultAdapter@VNpRigidStatic@physx@@@physx@@UEBAXAEAVPxBase@2@AEAVPxSerializationContext@2@@Z 000000018004f360 f i NpSerializerAdapter.obj
 0001:0004e370       ?exportExtraData@?$PxSerializerDefaultAdapter@VNpShape@physx@@@physx@@UEBAXAEAVPxBase@2@AEAVPxSerializationContext@2@@Z 000000018004f370 f i NpSerializerAdapter.obj
 0001:0004e380       ?exportExtraData@?$PxSerializerDefaultAdapter@VPruningStructure@Sq@physx@@@physx@@UEBAXAEAVPxBase@2@AEAVPxSerializationContext@2@@Z 000000018004f380 f i NpSerializerAdapter.obj
 0001:0004e390       ?exportExtraData@?$PxSerializerDefaultAdapter@VRTreeTriangleMesh@Gu@physx@@@physx@@UEBAXAEAVPxBase@2@AEAVPxSerializationContext@2@@Z 000000018004f390 f i NpSerializerAdapter.obj
 0001:0004e3a0       ?getClassSize@?$PxSerializerDefaultAdapter@VBV4TriangleMesh@Gu@physx@@@physx@@UEBA_KXZ 000000018004f3a0 f i NpSerializerAdapter.obj
 0001:0004e3b0       ?getClassSize@?$PxSerializerDefaultAdapter@VConvexMesh@Gu@physx@@@physx@@UEBA_KXZ 000000018004f3b0 f i NpSerializerAdapter.obj
 0001:0004e3c0       ?getClassSize@?$PxSerializerDefaultAdapter@VHeightField@Gu@physx@@@physx@@UEBA_KXZ 000000018004f3c0 f i NpSerializerAdapter.obj
 0001:0004e3d0       ?getClassSize@?$PxSerializerDefaultAdapter@VNpAggregate@physx@@@physx@@UEBA_KXZ 000000018004f3d0 f i NpSerializerAdapter.obj
 0001:0004e3e0       ?getClassSize@?$PxSerializerDefaultAdapter@VNpArticulation@physx@@@physx@@UEBA_KXZ 000000018004f3e0 f i NpSerializerAdapter.obj
 0001:0004e3f0       ?getClassSize@?$PxSerializerDefaultAdapter@VNpArticulationJoint@physx@@@physx@@UEBA_KXZ 000000018004f3f0 f i NpSerializerAdapter.obj
 0001:0004e400       ?getClassSize@?$PxSerializerDefaultAdapter@VNpArticulationLink@physx@@@physx@@UEBA_KXZ 000000018004f400 f i NpSerializerAdapter.obj
 0001:0004e410       ?getClassSize@?$PxSerializerDefaultAdapter@VNpConstraint@physx@@@physx@@UEBA_KXZ 000000018004f410 f i NpSerializerAdapter.obj
 0001:0004e420       ?getClassSize@?$PxSerializerDefaultAdapter@VNpMaterial@physx@@@physx@@UEBA_KXZ 000000018004f420 f i NpSerializerAdapter.obj
 0001:0004e430       ?getClassSize@?$PxSerializerDefaultAdapter@VNpRigidDynamic@physx@@@physx@@UEBA_KXZ 000000018004f430 f i NpSerializerAdapter.obj
 0001:0004e440       ?getClassSize@?$PxSerializerDefaultAdapter@VNpRigidStatic@physx@@@physx@@UEBA_KXZ 000000018004f440 f i NpSerializerAdapter.obj
 0001:0004e450       ?getClassSize@?$PxSerializerDefaultAdapter@VNpShape@physx@@@physx@@UEBA_KXZ 000000018004f450 f i NpSerializerAdapter.obj
 0001:0004e460       ?getClassSize@?$PxSerializerDefaultAdapter@VPruningStructure@Sq@physx@@@physx@@UEBA_KXZ 000000018004f460 f i NpSerializerAdapter.obj
 0001:0004e470       ?getClassSize@?$PxSerializerDefaultAdapter@VRTreeTriangleMesh@Gu@physx@@@physx@@UEBA_KXZ 000000018004f470 f i NpSerializerAdapter.obj
 0001:0004e480       ?getConcreteTypeName@?$PxSerializerDefaultAdapter@VBV4TriangleMesh@Gu@physx@@@physx@@UEBAPEBDXZ 000000018004f480 f i NpSerializerAdapter.obj
 0001:0004e490       ?getConcreteTypeName@?$PxSerializerDefaultAdapter@VConvexMesh@Gu@physx@@@physx@@UEBAPEBDXZ 000000018004f490 f i NpSerializerAdapter.obj
 0001:0004e4a0       ?getConcreteTypeName@?$PxSerializerDefaultAdapter@VHeightField@Gu@physx@@@physx@@UEBAPEBDXZ 000000018004f4a0 f i NpSerializerAdapter.obj
 0001:0004e4b0       ?getConcreteTypeName@?$PxSerializerDefaultAdapter@VNpAggregate@physx@@@physx@@UEBAPEBDXZ 000000018004f4b0 f i NpSerializerAdapter.obj
 0001:0004e4c0       ?getConcreteTypeName@?$PxSerializerDefaultAdapter@VNpArticulation@physx@@@physx@@UEBAPEBDXZ 000000018004f4c0 f i NpSerializerAdapter.obj
 0001:0004e4d0       ?getConcreteTypeName@?$PxSerializerDefaultAdapter@VNpArticulationJoint@physx@@@physx@@UEBAPEBDXZ 000000018004f4d0 f i NpSerializerAdapter.obj
 0001:0004e4e0       ?getConcreteTypeName@?$PxSerializerDefaultAdapter@VNpArticulationLink@physx@@@physx@@UEBAPEBDXZ 000000018004f4e0 f i NpSerializerAdapter.obj
 0001:0004e4f0       ?getConcreteTypeName@?$PxSerializerDefaultAdapter@VNpConstraint@physx@@@physx@@UEBAPEBDXZ 000000018004f4f0 f i NpSerializerAdapter.obj
 0001:0004e500       ?getConcreteTypeName@?$PxSerializerDefaultAdapter@VNpMaterial@physx@@@physx@@UEBAPEBDXZ 000000018004f500 f i NpSerializerAdapter.obj
 0001:0004e510       ?getConcreteTypeName@?$PxSerializerDefaultAdapter@VNpRigidDynamic@physx@@@physx@@UEBAPEBDXZ 000000018004f510 f i NpSerializerAdapter.obj
 0001:0004e520       ?getConcreteTypeName@?$PxSerializerDefaultAdapter@VNpRigidStatic@physx@@@physx@@UEBAPEBDXZ 000000018004f520 f i NpSerializerAdapter.obj
 0001:0004e530       ?getConcreteTypeName@?$PxSerializerDefaultAdapter@VNpShape@physx@@@physx@@UEBAPEBDXZ 000000018004f530 f i NpSerializerAdapter.obj
 0001:0004e540       ?getConcreteTypeName@?$PxSerializerDefaultAdapter@VPruningStructure@Sq@physx@@@physx@@UEBAPEBDXZ 000000018004f540 f i NpSerializerAdapter.obj
 0001:0004e550       ?getConcreteTypeName@?$PxSerializerDefaultAdapter@VRTreeTriangleMesh@Gu@physx@@@physx@@UEBAPEBDXZ 000000018004f550 f i NpSerializerAdapter.obj
 0001:0004e560       ?isSubordinate@?$PxSerializerDefaultAdapter@VBV4TriangleMesh@Gu@physx@@@physx@@UEBA_NXZ 000000018004f560 f i NpSerializerAdapter.obj
 0001:0004e570       ?isSubordinate@?$PxSerializerDefaultAdapter@VConvexMesh@Gu@physx@@@physx@@UEBA_NXZ 000000018004f570 f i NpSerializerAdapter.obj
 0001:0004e580       ?isSubordinate@?$PxSerializerDefaultAdapter@VHeightField@Gu@physx@@@physx@@UEBA_NXZ 000000018004f580 f i NpSerializerAdapter.obj
 0001:0004e590       ?isSubordinate@?$PxSerializerDefaultAdapter@VNpAggregate@physx@@@physx@@UEBA_NXZ 000000018004f590 f i NpSerializerAdapter.obj
 0001:0004e5a0       ?isSubordinate@?$PxSerializerDefaultAdapter@VNpArticulation@physx@@@physx@@UEBA_NXZ 000000018004f5a0 f i NpSerializerAdapter.obj
 0001:0004e5b0       ?isSubordinate@?$PxSerializerDefaultAdapter@VNpArticulationJoint@physx@@@physx@@UEBA_NXZ 000000018004f5b0 f i NpSerializerAdapter.obj
 0001:0004e5c0       ?isSubordinate@?$PxSerializerDefaultAdapter@VNpArticulationLink@physx@@@physx@@UEBA_NXZ 000000018004f5c0 f i NpSerializerAdapter.obj
 0001:0004e5d0       ?isSubordinate@?$PxSerializerDefaultAdapter@VNpConstraint@physx@@@physx@@UEBA_NXZ 000000018004f5d0 f i NpSerializerAdapter.obj
 0001:0004e5e0       ?isSubordinate@?$PxSerializerDefaultAdapter@VNpMaterial@physx@@@physx@@UEBA_NXZ 000000018004f5e0 f i NpSerializerAdapter.obj
 0001:0004e5f0       ?isSubordinate@?$PxSerializerDefaultAdapter@VNpRigidDynamic@physx@@@physx@@UEBA_NXZ 000000018004f5f0 f i NpSerializerAdapter.obj
 0001:0004e600       ?isSubordinate@?$PxSerializerDefaultAdapter@VNpRigidStatic@physx@@@physx@@UEBA_NXZ 000000018004f600 f i NpSerializerAdapter.obj
 0001:0004e610       ?isSubordinate@?$PxSerializerDefaultAdapter@VNpShape@physx@@@physx@@UEBA_NXZ 000000018004f610 f i NpSerializerAdapter.obj
 0001:0004e620       ?isSubordinate@?$PxSerializerDefaultAdapter@VPruningStructure@Sq@physx@@@physx@@UEBA_NXZ 000000018004f620 f i NpSerializerAdapter.obj
 0001:0004e630       ?isSubordinate@?$PxSerializerDefaultAdapter@VRTreeTriangleMesh@Gu@physx@@@physx@@UEBA_NXZ 000000018004f630 f i NpSerializerAdapter.obj
 0001:0004e640       ?process@RequiresCallback@?1??registerReferences@?$PxSerializerDefaultAdapter@VBV4TriangleMesh@Gu@physx@@@physx@@UEBAXAEAVPxBase@4@AEAVPxSerializationContext@4@@Z@UEAAX0@Z 000000018004f640 f i NpSerializerAdapter.obj
 0001:0004e660       ?process@RequiresCallback@?1??registerReferences@?$PxSerializerDefaultAdapter@VConvexMesh@Gu@physx@@@physx@@UEBAXAEAVPxBase@4@AEAVPxSerializationContext@4@@Z@UEAAX0@Z 000000018004f660 f i NpSerializerAdapter.obj
 0001:0004e680       ?process@RequiresCallback@?1??registerReferences@?$PxSerializerDefaultAdapter@VHeightField@Gu@physx@@@physx@@UEBAXAEAVPxBase@4@AEAVPxSerializationContext@4@@Z@UEAAX0@Z 000000018004f680 f i NpSerializerAdapter.obj
 0001:0004e6a0       ?process@RequiresCallback@?1??registerReferences@?$PxSerializerDefaultAdapter@VNpAggregate@physx@@@physx@@UEBAXAEAVPxBase@4@AEAVPxSerializationContext@4@@Z@UEAAX0@Z 000000018004f6a0 f i NpSerializerAdapter.obj
 0001:0004e6c0       ?process@RequiresCallback@?1??registerReferences@?$PxSerializerDefaultAdapter@VNpArticulation@physx@@@physx@@UEBAXAEAVPxBase@4@AEAVPxSerializationContext@4@@Z@UEAAX0@Z 000000018004f6c0 f i NpSerializerAdapter.obj
 0001:0004e6e0       ?process@RequiresCallback@?1??registerReferences@?$PxSerializerDefaultAdapter@VNpArticulationJoint@physx@@@physx@@UEBAXAEAVPxBase@4@AEAVPxSerializationContext@4@@Z@UEAAX0@Z 000000018004f6e0 f i NpSerializerAdapter.obj
 0001:0004e700       ?process@RequiresCallback@?1??registerReferences@?$PxSerializerDefaultAdapter@VNpArticulationLink@physx@@@physx@@UEBAXAEAVPxBase@4@AEAVPxSerializationContext@4@@Z@UEAAX0@Z 000000018004f700 f i NpSerializerAdapter.obj
 0001:0004e720       ?process@RequiresCallback@?1??registerReferences@?$PxSerializerDefaultAdapter@VNpConstraint@physx@@@physx@@UEBAXAEAVPxBase@4@AEAVPxSerializationContext@4@@Z@UEAAX0@Z 000000018004f720 f i NpSerializerAdapter.obj
 0001:0004e740       ?process@RequiresCallback@?1??registerReferences@?$PxSerializerDefaultAdapter@VNpMaterial@physx@@@physx@@UEBAXAEAVPxBase@4@AEAVPxSerializationContext@4@@Z@UEAAX0@Z 000000018004f740 f i NpSerializerAdapter.obj
 0001:0004e760       ?process@RequiresCallback@?1??registerReferences@?$PxSerializerDefaultAdapter@VNpRigidDynamic@physx@@@physx@@UEBAXAEAVPxBase@4@AEAVPxSerializationContext@4@@Z@UEAAX0@Z 000000018004f760 f i NpSerializerAdapter.obj
 0001:0004e780       ?process@RequiresCallback@?1??registerReferences@?$PxSerializerDefaultAdapter@VNpRigidStatic@physx@@@physx@@UEBAXAEAVPxBase@4@AEAVPxSerializationContext@4@@Z@UEAAX0@Z 000000018004f780 f i NpSerializerAdapter.obj
 0001:0004e7a0       ?process@RequiresCallback@?1??registerReferences@?$PxSerializerDefaultAdapter@VNpShape@physx@@@physx@@UEBAXAEAVPxBase@4@AEAVPxSerializationContext@4@@Z@UEAAX0@Z 000000018004f7a0 f i NpSerializerAdapter.obj
 0001:0004e7d0       ?process@RequiresCallback@?1??registerReferences@?$PxSerializerDefaultAdapter@VPruningStructure@Sq@physx@@@physx@@UEBAXAEAVPxBase@4@AEAVPxSerializationContext@4@@Z@UEAAX0@Z 000000018004f7d0 f i NpSerializerAdapter.obj
 0001:0004e7f0       ?process@RequiresCallback@?1??registerReferences@?$PxSerializerDefaultAdapter@VRTreeTriangleMesh@Gu@physx@@@physx@@UEBAXAEAVPxBase@4@AEAVPxSerializationContext@4@@Z@UEAAX0@Z 000000018004f7f0 f i NpSerializerAdapter.obj
 0001:0004e810       ?registerReferences@?$PxSerializerDefaultAdapter@VBV4TriangleMesh@Gu@physx@@@physx@@UEBAXAEAVPxBase@2@AEAVPxSerializationContext@2@@Z 000000018004f810 f i NpSerializerAdapter.obj
 0001:0004e860       ?registerReferences@?$PxSerializerDefaultAdapter@VConvexMesh@Gu@physx@@@physx@@UEBAXAEAVPxBase@2@AEAVPxSerializationContext@2@@Z 000000018004f860 f i NpSerializerAdapter.obj
 0001:0004e8b0       ?registerReferences@?$PxSerializerDefaultAdapter@VHeightField@Gu@physx@@@physx@@UEBAXAEAVPxBase@2@AEAVPxSerializationContext@2@@Z 000000018004f8b0 f i NpSerializerAdapter.obj
 0001:0004e900       ?registerReferences@?$PxSerializerDefaultAdapter@VNpAggregate@physx@@@physx@@UEBAXAEAVPxBase@2@AEAVPxSerializationContext@2@@Z 000000018004f900 f i NpSerializerAdapter.obj
 0001:0004e950       ?registerReferences@?$PxSerializerDefaultAdapter@VNpArticulation@physx@@@physx@@UEBAXAEAVPxBase@2@AEAVPxSerializationContext@2@@Z 000000018004f950 f i NpSerializerAdapter.obj
 0001:0004e9a0       ?registerReferences@?$PxSerializerDefaultAdapter@VNpArticulationJoint@physx@@@physx@@UEBAXAEAVPxBase@2@AEAVPxSerializationContext@2@@Z 000000018004f9a0 f i NpSerializerAdapter.obj
 0001:0004e9f0       ?registerReferences@?$PxSerializerDefaultAdapter@VNpArticulationLink@physx@@@physx@@UEBAXAEAVPxBase@2@AEAVPxSerializationContext@2@@Z 000000018004f9f0 f i NpSerializerAdapter.obj
 0001:0004ea40       ?registerReferences@?$PxSerializerDefaultAdapter@VNpConstraint@physx@@@physx@@UEBAXAEAVPxBase@2@AEAVPxSerializationContext@2@@Z 000000018004fa40 f i NpSerializerAdapter.obj
 0001:0004ea90       ?registerReferences@?$PxSerializerDefaultAdapter@VNpMaterial@physx@@@physx@@UEBAXAEAVPxBase@2@AEAVPxSerializationContext@2@@Z 000000018004fa90 f i NpSerializerAdapter.obj
 0001:0004eae0       ?registerReferences@?$PxSerializerDefaultAdapter@VNpRigidDynamic@physx@@@physx@@UEBAXAEAVPxBase@2@AEAVPxSerializationContext@2@@Z 000000018004fae0 f i NpSerializerAdapter.obj
 0001:0004eb30       ?registerReferences@?$PxSerializerDefaultAdapter@VNpRigidStatic@physx@@@physx@@UEBAXAEAVPxBase@2@AEAVPxSerializationContext@2@@Z 000000018004fb30 f i NpSerializerAdapter.obj
 0001:0004eb80       ?registerReferences@?$PxSerializerDefaultAdapter@VNpShape@physx@@@physx@@UEBAXAEAVPxBase@2@AEAVPxSerializationContext@2@@Z 000000018004fb80 f i NpSerializerAdapter.obj
 0001:0004ebd0       ?registerReferences@?$PxSerializerDefaultAdapter@VPruningStructure@Sq@physx@@@physx@@UEBAXAEAVPxBase@2@AEAVPxSerializationContext@2@@Z 000000018004fbd0 f i NpSerializerAdapter.obj
 0001:0004ec20       ?registerReferences@?$PxSerializerDefaultAdapter@VRTreeTriangleMesh@Gu@physx@@@physx@@UEBAXAEAVPxBase@2@AEAVPxSerializationContext@2@@Z 000000018004fc20 f i NpSerializerAdapter.obj
 0001:0004ec70       ?requiresObjects@?$PxSerializerDefaultAdapter@VBV4TriangleMesh@Gu@physx@@@physx@@UEBAXAEAVPxBase@2@AEAVPxProcessPxBaseCallback@2@@Z 000000018004fc70 f i NpSerializerAdapter.obj
 0001:0004ec80       ?requiresObjects@?$PxSerializerDefaultAdapter@VConvexMesh@Gu@physx@@@physx@@UEBAXAEAVPxBase@2@AEAVPxProcessPxBaseCallback@2@@Z 000000018004fc80 f i NpSerializerAdapter.obj
 0001:0004ec90       ?requiresObjects@?$PxSerializerDefaultAdapter@VHeightField@Gu@physx@@@physx@@UEBAXAEAVPxBase@2@AEAVPxProcessPxBaseCallback@2@@Z 000000018004fc90 f i NpSerializerAdapter.obj
 0001:0004eca0       ?requiresObjects@?$PxSerializerDefaultAdapter@VNpAggregate@physx@@@physx@@UEBAXAEAVPxBase@2@AEAVPxProcessPxBaseCallback@2@@Z 000000018004fca0 f i NpSerializerAdapter.obj
 0001:0004ecb0       ?requiresObjects@?$PxSerializerDefaultAdapter@VNpArticulation@physx@@@physx@@UEBAXAEAVPxBase@2@AEAVPxProcessPxBaseCallback@2@@Z 000000018004fcb0 f i NpSerializerAdapter.obj
 0001:0004ecc0       ?requiresObjects@?$PxSerializerDefaultAdapter@VNpArticulationJoint@physx@@@physx@@UEBAXAEAVPxBase@2@AEAVPxProcessPxBaseCallback@2@@Z 000000018004fcc0 f i NpSerializerAdapter.obj
 0001:0004ecd0       ?requiresObjects@?$PxSerializerDefaultAdapter@VNpArticulationLink@physx@@@physx@@UEBAXAEAVPxBase@2@AEAVPxProcessPxBaseCallback@2@@Z 000000018004fcd0 f i NpSerializerAdapter.obj
 0001:0004ece0       ?requiresObjects@?$PxSerializerDefaultAdapter@VNpConstraint@physx@@@physx@@UEBAXAEAVPxBase@2@AEAVPxProcessPxBaseCallback@2@@Z 000000018004fce0 f i NpSerializerAdapter.obj
 0001:0004ecf0       ?requiresObjects@?$PxSerializerDefaultAdapter@VNpMaterial@physx@@@physx@@UEBAXAEAVPxBase@2@AEAVPxProcessPxBaseCallback@2@@Z 000000018004fcf0 f i NpSerializerAdapter.obj
 0001:0004ed00       ?requiresObjects@?$PxSerializerDefaultAdapter@VNpRigidDynamic@physx@@@physx@@UEBAXAEAVPxBase@2@AEAVPxProcessPxBaseCallback@2@@Z 000000018004fd00 f i NpSerializerAdapter.obj
 0001:0004ed10       ?requiresObjects@?$PxSerializerDefaultAdapter@VNpRigidStatic@physx@@@physx@@UEBAXAEAVPxBase@2@AEAVPxProcessPxBaseCallback@2@@Z 000000018004fd10 f i NpSerializerAdapter.obj
 0001:0004ed20       ?requiresObjects@?$PxSerializerDefaultAdapter@VNpShape@physx@@@physx@@UEBAXAEAVPxBase@2@AEAVPxProcessPxBaseCallback@2@@Z 000000018004fd20 f i NpSerializerAdapter.obj
 0001:0004ed30       ?requiresObjects@?$PxSerializerDefaultAdapter@VPruningStructure@Sq@physx@@@physx@@UEBAXAEAVPxBase@2@AEAVPxProcessPxBaseCallback@2@@Z 000000018004fd30 f i NpSerializerAdapter.obj
 0001:0004ed40       ?requiresObjects@?$PxSerializerDefaultAdapter@VRTreeTriangleMesh@Gu@physx@@@physx@@UEBAXAEAVPxBase@2@AEAVPxProcessPxBaseCallback@2@@Z 000000018004fd40 f i NpSerializerAdapter.obj
 0001:0004ed50       ?NpShapeGetScPtrOffset@physx@@YA_KXZ 000000018004fd50 f   NpShape.obj
 0001:0004ed60       ?NpShapeIncRefCount@physx@@YAXAEAVShape@Scb@1@@Z 000000018004fd60 f   NpShape.obj
 0001:0004ed70       ?NpShapeDecRefCount@physx@@YAXAEAVShape@Scb@1@@Z 000000018004fd70 f   NpShape.obj
 0001:0004edb0       ?NpShapeGetScRigidObjectFromScbSLOW@physx@@YAPEAVRigidCore@Sc@1@AEBVShape@Scb@1@@Z 000000018004fdb0 f   NpShape.obj
 0001:0004edd0       ??0NpShape@physx@@QEAA@V?$PxFlags@W4Enum@PxBaseFlag@physx@@G@1@@Z 000000018004fdd0 f   NpShape.obj
 0001:0004ee50       ?exportExtraData@NpShape@physx@@UEAAXAEAVPxSerializationContext@2@@Z 000000018004fe50 f   NpShape.obj
 0001:0004ee90       ?importExtraData@NpShape@physx@@QEAAXAEAVPxDeserializationContext@2@@Z 000000018004fe90 f   NpShape.obj
 0001:0004eee0       ?requiresObjects@NpShape@physx@@UEAAXAEAVPxProcessPxBaseCallback@2@@Z 000000018004fee0 f   NpShape.obj
 0001:0004f020       ?resolveReferences@NpShape@physx@@QEAAXAEAVPxDeserializationContext@2@@Z 0000000180050020 f   NpShape.obj
 0001:0004f200       ?createObject@NpShape@physx@@SAPEAV12@AEAPEAEAEAVPxDeserializationContext@2@@Z 0000000180050200 f   NpShape.obj
 0001:0004f300       ??0NpShape@physx@@QEAA@AEBVPxGeometry@1@V?$PxFlags@W4Enum@PxShapeFlag@physx@@E@1@PEBGG_N@Z 0000000180050300 f   NpShape.obj
 0001:0004f440       ??1NpShape@physx@@UEAA@XZ  0000000180050440 f   NpShape.obj
 0001:0004f570       ?release@NpShape@physx@@UEAAXXZ 0000000180050570 f   NpShape.obj
 0001:0004f5b0       ?getReferenceCount@NpShape@physx@@UEBAIXZ 00000001800505b0 f   NpShape.obj
 0001:0004f5c0       ?acquireReference@NpShape@physx@@UEAAXXZ 00000001800505c0 f   NpShape.obj
 0001:0004f5d0       ?getGeometryType@NpShape@physx@@UEBA?AW4Enum@PxGeometryType@2@XZ 00000001800505d0 f   NpShape.obj
 0001:0004f5e0       ?setGeometry@NpShape@physx@@UEAAXAEBVPxGeometry@2@@Z 00000001800505e0 f   NpShape.obj
 0001:0004f7c0       ?getGeometry@NpShape@physx@@UEBA?AVPxGeometryHolder@2@XZ 00000001800507c0 f   NpShape.obj
 0001:0004f800       ?getBoxGeometry@NpShape@physx@@UEBA_NAEAVPxBoxGeometry@2@@Z 0000000180050800 f   NpShape.obj
 0001:0004f850       ?getSphereGeometry@NpShape@physx@@UEBA_NAEAVPxSphereGeometry@2@@Z 0000000180050850 f   NpShape.obj
 0001:0004f880       ?getCapsuleGeometry@NpShape@physx@@UEBA_NAEAVPxCapsuleGeometry@2@@Z 0000000180050880 f   NpShape.obj
 0001:0004f8c0       ?getPlaneGeometry@NpShape@physx@@UEBA_NAEAVPxPlaneGeometry@2@@Z 00000001800508c0 f   NpShape.obj
 0001:0004f8f0       ?getConvexMeshGeometry@NpShape@physx@@UEBA_NAEAVPxConvexMeshGeometry@2@@Z 00000001800508f0 f   NpShape.obj
 0001:0004f970       ?getTriangleMeshGeometry@NpShape@physx@@UEBA_NAEAVPxTriangleMeshGeometry@2@@Z 0000000180050970 f   NpShape.obj
 0001:0004f9f0       ?getHeightFieldGeometry@NpShape@physx@@UEBA_NAEAVPxHeightFieldGeometry@2@@Z 00000001800509f0 f   NpShape.obj
 0001:0004fa60       ?getActor@NpShape@physx@@UEBAPEAVPxRigidActor@2@XZ 0000000180050a60 f   NpShape.obj
 0001:0004fa70       ?setLocalPose@NpShape@physx@@UEAAXAEBVPxTransform@2@@Z 0000000180050a70 f   NpShape.obj
 0001:0004fc70       ?getLocalPose@NpShape@physx@@UEBA?AVPxTransform@2@XZ 0000000180050c70 f   NpShape.obj
 0001:0004fcc0       ?setSimulationFilterData@NpShape@physx@@UEAAXAEBUPxFilterData@2@@Z 0000000180050cc0 f   NpShape.obj
 0001:0004fde0       ?getSimulationFilterData@NpShape@physx@@UEBA?AUPxFilterData@2@XZ 0000000180050de0 f   NpShape.obj
 0001:0004fe20       ?setQueryFilterData@NpShape@physx@@UEAAXAEBUPxFilterData@2@@Z 0000000180050e20 f   NpShape.obj
 0001:0004fe40       ?getQueryFilterData@NpShape@physx@@UEBA?AUPxFilterData@2@XZ 0000000180050e40 f   NpShape.obj
 0001:0004fe70       ?setMaterials@NpShape@physx@@UEAAXPEBQEAVPxMaterial@2@G@Z 0000000180050e70 f   NpShape.obj
 0001:000500b0       ?getNbMaterials@NpShape@physx@@UEBAGXZ 00000001800510b0 f   NpShape.obj
 0001:000500e0       ?getMaterials@NpShape@physx@@UEBAIPEAPEAVPxMaterial@2@II@Z 00000001800510e0 f   NpShape.obj
 0001:000500f0       ?getMaterialFromInternalFaceIndex@NpShape@physx@@UEBAPEAVPxMaterial@2@I@Z 00000001800510f0 f   NpShape.obj
 0001:00050250       ?setContactOffset@NpShape@physx@@UEAAXM@Z 0000000180051250 f   NpShape.obj
 0001:00050340       ?getContactOffset@NpShape@physx@@UEBAMXZ 0000000180051340 f   NpShape.obj
 0001:00050360       ?setRestOffset@NpShape@physx@@UEAAXM@Z 0000000180051360 f   NpShape.obj
 0001:00050450       ?getRestOffset@NpShape@physx@@UEBAMXZ 0000000180051450 f   NpShape.obj
 0001:00050470       ?setTorsionalPatchRadius@NpShape@physx@@UEAAXM@Z 0000000180051470 f   NpShape.obj
 0001:00050560       ?getTorsionalPatchRadius@NpShape@physx@@UEBAMXZ 0000000180051560 f   NpShape.obj
 0001:00050580       ?setMinTorsionalPatchRadius@NpShape@physx@@UEAAXM@Z 0000000180051580 f   NpShape.obj
 0001:00050670       ?getMinTorsionalPatchRadius@NpShape@physx@@UEBAMXZ 0000000180051670 f   NpShape.obj
 0001:000506a0       ?setFlag@NpShape@physx@@UEAAXW4Enum@PxShapeFlag@2@_N@Z 00000001800516a0 f   NpShape.obj
 0001:00050720       ?setFlags@NpShape@physx@@UEAAXV?$PxFlags@W4Enum@PxShapeFlag@physx@@E@2@@Z 0000000180051720 f   NpShape.obj
 0001:00050770       ?getFlags@NpShape@physx@@UEBA?AV?$PxFlags@W4Enum@PxShapeFlag@physx@@E@2@XZ 0000000180051770 f   NpShape.obj
 0001:000507a0       ?isExclusive@NpShape@physx@@UEBA_NXZ 00000001800517a0 f   NpShape.obj
 0001:000507c0       ?setName@NpShape@physx@@UEAAXPEBD@Z 00000001800517c0 f   NpShape.obj
 0001:000507d0       ?getName@NpShape@physx@@UEBAPEBDXZ 00000001800517d0 f   NpShape.obj
 0001:000507e0       ?onRefCountZero@NpShape@physx@@UEAAXXZ 00000001800517e0 f   NpShape.obj
 0001:00050810       ?setFlagsInternal@NpShape@physx@@QEAAXV?$PxFlags@W4Enum@PxShapeFlag@physx@@E@2@@Z 0000000180051810 f   NpShape.obj
 0001:00050ae0       ?checkMaterialSetup@NpShape@physx@@SA_NAEBVPxGeometry@2@PEBDPEBQEAVPxMaterial@2@G@Z 0000000180051ae0 f   NpShape.obj
 0001:00050ce0       ?onActorAttach@NpShape@physx@@QEAAXAEAVPxRigidActor@2@@Z 0000000180051ce0 f   NpShape.obj
 0001:00050d20       ?onActorDetach@NpShape@physx@@QEAAXXZ 0000000180051d20 f   NpShape.obj
 0001:00050d80       ?getScRigidObjectExclusive@NpShape@physx@@QEBAAEAVRigidCore@Sc@2@XZ 0000000180051d80 f   NpShape.obj
 0001:00050d90       ?releaseInternal@NpShape@physx@@QEAAXXZ 0000000180051d90 f   NpShape.obj
 0001:00050dd0       ?getOwnerScene@NpShape@physx@@QEBAPEAVNpScene@2@XZ 0000000180051dd0 f   NpShape.obj
 0001:00050df0       ?getAPIScene@NpShape@physx@@AEBAPEAVNpScene@2@XZ 0000000180051df0 f   NpShape.obj
 0001:00050e00       ?incMeshRefCount@NpShape@physx@@AEAAXXZ 0000000180051e00 f   NpShape.obj
 0001:00050e30       ?decMeshRefCount@NpShape@physx@@AEAAXXZ 0000000180051e30 f   NpShape.obj
 0001:00050e70       ?getMeshRefCountable@NpShape@physx@@AEAAPEAVRefCountable@Cm@2@XZ 0000000180051e70 f   NpShape.obj
 0001:00050f00       ?isWritable@NpShape@physx@@AEAA_NXZ 0000000180051f00 f   NpShape.obj
 0001:00050f30       ?updateSQ@NpShape@physx@@AEAAXPEBD@Z 0000000180051f30 f   NpShape.obj
 0001:00051000       ??$allocArrayBuffer@G@Scene@Scb@physx@@AEAAPEAGAEAV?$Array@GV?$ReflectionAllocator@G@shdfnd@physx@@@shdfnd@2@IAEAI@Z 0000000180052000 f i NpShape.obj
 0001:00051050       ??1PxShape@physx@@MEAA@XZ  0000000180052050 f i NpShape.obj
 0001:0005105c       ??_ENpShape@physx@@WBI@EAAPEAXI@Z 000000018005205c f i NpShape.obj
 0001:00051070       ??_ENpShape@physx@@UEAAPEAXI@Z 0000000180052070 f i NpShape.obj
 0001:00051070       ??_GNpShape@physx@@UEAAPEAXI@Z 0000000180052070 f i NpShape.obj
 0001:000511e0       ??_GPxShape@physx@@MEAAPEAXI@Z 00000001800521e0 f i NpShape.obj
 0001:000511e0       ??_EPxShape@physx@@MEAAPEAXI@Z 00000001800521e0 f i NpShape.obj
 0001:00051210       ?getConcreteTypeName@PxShape@physx@@UEBAPEBDXZ 0000000180052210 f i NpShape.obj
 0001:00051220       ?getMaterial@Shape@Scb@physx@@QEBAPEAVPxMaterial@3@I@Z 0000000180052220 f i NpShape.obj
 0001:000512a0       ?getMaterials@Shape@Scb@physx@@QEBAIPEAPEAVPxMaterial@3@II@Z 00000001800522a0 f i NpShape.obj
 0001:00051370       ?isKindOf@PxShape@physx@@MEBA_NPEBD@Z 0000000180052370 f i NpShape.obj
 0001:000513c0       ??0NpShapeManager@physx@@QEAA@W4PxEMPTY@1@@Z 00000001800523c0 f   NpShapeManager.obj
 0001:00051400       ?exportExtraData@NpShapeManager@physx@@QEAAXAEAVPxSerializationContext@2@@Z 0000000180052400 f   NpShapeManager.obj
 0001:00051440       ?importExtraData@NpShapeManager@physx@@QEAAXAEAVPxDeserializationContext@2@@Z 0000000180052440 f   NpShapeManager.obj
 0001:00051480       ??0NpShapeManager@physx@@QEAA@XZ 0000000180052480 f   NpShapeManager.obj
 0001:000514c0       ??1NpShapeManager@physx@@QEAA@XZ 00000001800524c0 f   NpShapeManager.obj
 0001:00051520       ?getShapes@NpShapeManager@physx@@QEBAIPEAPEAVPxShape@2@II@Z 0000000180052520 f   NpShapeManager.obj
 0001:00051580       ?attachShape@NpShapeManager@physx@@QEAAXAEAVNpShape@2@AEAVPxRigidActor@2@@Z 0000000180052580 f   NpShapeManager.obj
 0001:00051660       ?detachShape@NpShapeManager@physx@@QEAA_NAEAVNpShape@2@AEAVPxRigidActor@2@_N@Z 0000000180052660 f   NpShapeManager.obj
 0001:000517c0       ?detachAll@NpShapeManager@physx@@QEAAXPEAVNpScene@2@AEBVPxRigidActor@2@@Z 00000001800527c0 f   NpShapeManager.obj
 0001:00051960       ?teardownSceneQuery@NpShapeManager@physx@@QEAAXAEAVSceneQueryManager@Sq@2@AEBVNpShape@2@@Z 0000000180052960 f   NpShapeManager.obj
 0001:000519f0       ?setupSceneQuery@NpShapeManager@physx@@QEAAXAEAVSceneQueryManager@Sq@2@AEBVPxRigidActor@2@AEBVNpShape@2@@Z 00000001800529f0 f   NpShapeManager.obj
 0001:00051a40       ?addPrunerShape@NpShapeManager@physx@@QEAAXAEAVSceneQueryManager@Sq@2@IAEBVNpShape@2@AEBVPxRigidActor@2@_NPEBVPxBounds3@2@3@Z 0000000180052a40 f   NpShapeManager.obj
 0001:00051ad0       ?setupAllSceneQuery@NpShapeManager@physx@@QEAAXPEAVNpScene@2@AEBVPxRigidActor@2@_NPEBVPxBounds3@2@PEBVBVHStructure@Gu@2@@Z 0000000180052ad0 f   NpShapeManager.obj
 0001:00051c40       ?teardownAllSceneQuery@NpShapeManager@physx@@QEAAXAEAVSceneQueryManager@Sq@2@AEBVPxRigidActor@2@@Z 0000000180052c40 f   NpShapeManager.obj
 0001:00051d60       ?markAllSceneQueryForUpdate@NpShapeManager@physx@@QEAAXAEAVSceneQueryManager@Sq@2@AEBVPxRigidActor@2@@Z 0000000180052d60 f   NpShapeManager.obj
 0001:00051e30       ?findSceneQueryData@NpShapeManager@physx@@QEBA_KAEBVNpShape@2@AEAI@Z 0000000180052e30 f   NpShapeManager.obj
 0001:00051e80       ?findSceneQueryData@NpShapeManager@physx@@QEBA_KAEBVNpShape@2@@Z 0000000180052e80 f   NpShapeManager.obj
 0001:00051ec0       ?getWorldBounds@NpShapeManager@physx@@QEBA?AVPxBounds3@2@AEBVPxRigidActor@2@@Z 0000000180052ec0 f   NpShapeManager.obj
 0001:00052220       ?addBVHStructureShapes@NpShapeManager@physx@@QEAAXAEAVSceneQueryManager@Sq@2@AEBVPxRigidActor@2@PEBVBVHStructure@Gu@2@@Z 0000000180053220 f   NpShapeManager.obj
 0001:00052490       ?clearShapesOnRelease@NpShapeManager@physx@@QEAAXAEAVScene@Scb@2@AEAVPxRigidActor@2@@Z 0000000180053490 f   NpShapeManager.obj
 0001:00052510       ?releaseExclusiveUserReferences@NpShapeManager@physx@@QEAAXXZ 0000000180053510 f   NpShapeManager.obj
 0001:00052580       ?visualize@NpShapeManager@physx@@QEAAXAEAVRenderOutput@Cm@2@PEAVNpScene@2@AEBVPxRigidActor@2@@Z 0000000180053580 f   NpShapeManager.obj
 0001:00052cf0       ?setupSceneQuery@NpShapeManager@physx@@IEAAXAEAVSceneQueryManager@Sq@2@AEBVPxRigidActor@2@I@Z 0000000180053cf0 f   NpShapeManager.obj
 0001:00052da0       ?teardownSceneQuery@NpShapeManager@physx@@IEAAXAEAVSceneQueryManager@Sq@2@I@Z 0000000180053da0 f   NpShapeManager.obj
 0001:00052e70       ??0PxMat44@physx@@QEAA@AEBVPxTransform@1@@Z 0000000180053e70 f i NpShapeManager.obj
 0001:00052ff0       ??0PxVec4@physx@@QEAA@XZ   0000000180053ff0 f i NpShapeManager.obj
 0001:00053000       ?allocate@?$Array@URemovedShape@Scb@physx@@V?$InlineAllocator@$0EA@V?$ReflectionAllocator@URemovedShape@Scb@physx@@@shdfnd@physx@@@shdfnd@3@@shdfnd@physx@@IEAAPEAURemovedShape@Scb@3@I@Z 0000000180054000 f i NpShapeManager.obj
 0001:00053330       ?growAndPushBack@?$Array@PEAVShape@Scb@physx@@V?$InlineAllocator@$0CA@V?$ReflectionAllocator@PEAVShape@Scb@physx@@@shdfnd@physx@@@shdfnd@3@@shdfnd@physx@@IEAAAEAPEAVShape@Scb@3@AEBQEAV453@@Z 0000000180054330 f i NpShapeManager.obj
 0001:00053430       ?growAndPushBack@?$Array@URemovedShape@Scb@physx@@V?$InlineAllocator@$0EA@V?$ReflectionAllocator@URemovedShape@Scb@physx@@@shdfnd@physx@@@shdfnd@3@@shdfnd@physx@@IEAAAEAURemovedShape@Scb@3@AEBU453@@Z 0000000180054430 f i NpShapeManager.obj
 0001:00053500       ?onShapeAttach@RigidObject@Scb@physx@@QEAAXAEAVShape@23@@Z 0000000180054500 f i NpShapeManager.obj
 0001:000536e0       ?onShapeDetach@RigidObject@Scb@physx@@QEAAXAEAVShape@23@_N1@Z 00000001800546e0 f i NpShapeManager.obj
 0001:00056480       ??0NpWriteCheck@physx@@QEAA@PEAVNpScene@1@PEBD_N@Z 0000000180057480 f   NpWriteCheck.obj
 0001:00056580       ??1NpWriteCheck@physx@@QEAA@XZ 0000000180057580 f   NpWriteCheck.obj
 0001:00056620       ??0Offsets@Actor@Scb@physx@@QEAA@XZ 0000000180057620 f   ScbActor.obj
 0001:00056660       ?addActor@Aggregate@Scb@physx@@QEAAXAEAVActor@23@@Z 0000000180057660 f   ScbAggregate.obj
 0001:000567d0       ?removeActor@Aggregate@Scb@physx@@QEAAXAEAVActor@23@_N@Z 00000001800577d0 f   ScbAggregate.obj
 0001:00056950       ??$allocArrayBuffer@PEAVActor@Scb@physx@@@Scene@Scb@physx@@AEAAPEAPEAVActor@12@AEAV?$Array@PEAVActor@Scb@physx@@V?$ReflectionAllocator@PEAVActor@Scb@physx@@@shdfnd@3@@shdfnd@2@IAEAI@Z 0000000180057950 f i ScbAggregate.obj
 0001:000569a0       ?destroy@Base@Scb@physx@@QEAAXXZ 00000001800579a0 f   ScbBase.obj
 0001:000569d0       ?getBinaryMetaData@Base@Scb@physx@@SAXAEAVPxOutputStream@3@@Z 00000001800579d0 f   ScbMetaData.obj
 0001:00056b30       ?getBinaryMetaData@Shape@Scb@physx@@SAXAEAVPxOutputStream@3@@Z 0000000180057b30 f   ScbMetaData.obj
 0001:00056c10       ?getBinaryMetaData@Actor@Scb@physx@@SAXAEAVPxOutputStream@3@@Z 0000000180057c10 f   ScbMetaData.obj
 0001:00056cb0       ?getBinaryMetaData@RigidObject@Scb@physx@@SAXAEAVPxOutputStream@3@@Z 0000000180057cb0 f   ScbMetaData.obj
 0001:00056d50       ?getBinaryMetaData@Body@Scb@physx@@SAXAEAVPxOutputStream@3@@Z 0000000180057d50 f   ScbMetaData.obj
 0001:00056fa0       ?getBinaryMetaData@RigidStatic@Scb@physx@@SAXAEAVPxOutputStream@3@@Z 0000000180057fa0 f   ScbMetaData.obj
 0001:00057080       ?getBinaryMetaData@Constraint@Scb@physx@@SAXAEAVPxOutputStream@3@@Z 0000000180058080 f   ScbMetaData.obj
 0001:00057220       ?getBinaryMetaData@Articulation@Scb@physx@@SAXAEAVPxOutputStream@3@@Z 0000000180058220 f   ScbMetaData.obj
 0001:000573c0       ?getBinaryMetaData@ArticulationJoint@Scb@physx@@SAXAEAVPxOutputStream@3@@Z 00000001800583c0 f   ScbMetaData.obj
 0001:000574a0       ?getBinaryMetaData@Aggregate@Scb@physx@@SAXAEAVPxOutputStream@3@@Z 00000001800584a0 f   ScbMetaData.obj
 0001:00057640       ?scheduleForInsert@ObjectTracker@Scb@physx@@QEAAXAEAVBase@23@@Z 0000000180058640 f   ScbScene.obj
 0001:000576c0       ?scheduleForRemove@ObjectTracker@Scb@physx@@QEAAXAEAVBase@23@@Z 00000001800586c0 f   ScbScene.obj
 0001:00057740       ?scheduleForUpdate@ObjectTracker@Scb@physx@@QEAAXAEAVBase@23@@Z 0000000180058740 f   ScbScene.obj
 0001:000577a0       ?clear@ObjectTracker@Scb@physx@@QEAAXXZ 00000001800587a0 f   ScbScene.obj
 0001:000578c0       ?insert@ObjectTracker@Scb@physx@@QEAAXAEAVBase@23@@Z 00000001800588c0 f   ScbScene.obj
 0001:00057900       ?remove@ObjectTracker@Scb@physx@@QEAAXAEAVBase@23@@Z 0000000180058900 f   ScbScene.obj
 0001:00057920       ??0Scene@Scb@physx@@QEAA@AEBVPxSceneDesc@2@_K@Z 0000000180058920 f   ScbScene.obj
 0001:00057d00       ?release@Scene@Scb@physx@@QEAAXXZ 0000000180058d00 f   ScbScene.obj
 0001:00057d60       ?getPxScene@Scene@Scb@physx@@QEAAPEAVPxScene@3@XZ 0000000180058d60 f   ScbScene.obj
 0001:00057d70       ?addActor@Scene@Scb@physx@@QEAAXAEAVRigidStatic@23@_NPEAVPxBounds3@3@PEBVBVHStructure@Gu@3@@Z 0000000180058d70 f   ScbScene.obj
 0001:00057ed0       ?removeActor@Scene@Scb@physx@@QEAAXAEAVRigidStatic@23@_N1@Z 0000000180058ed0 f   ScbScene.obj
 0001:00058020       ?addActor@Scene@Scb@physx@@QEAAXAEAVBody@23@_NPEAVPxBounds3@3@PEBVBVHStructure@Gu@3@@Z 0000000180059020 f   ScbScene.obj
 0001:00058220       ?removeActor@Scene@Scb@physx@@QEAAXAEAVBody@23@_N1@Z 0000000180059220 f   ScbScene.obj
 0001:00058490       ?addConstraint@Scene@Scb@physx@@QEAAXAEAVConstraint@23@@Z 0000000180059490 f   ScbScene.obj
 0001:00058540       ?removeConstraint@Scene@Scb@physx@@QEAAXAEAVConstraint@23@@Z 0000000180059540 f   ScbScene.obj
 0001:00058590       ?addArticulation@Scene@Scb@physx@@QEAAXAEAVArticulation@23@@Z 0000000180059590 f   ScbScene.obj
 0001:00058610       ?removeArticulation@Scene@Scb@physx@@QEAAXAEAVArticulation@23@@Z 0000000180059610 f   ScbScene.obj
 0001:00058670       ?addArticulationJoint@Scene@Scb@physx@@QEAAXAEAVArticulationJoint@23@@Z 0000000180059670 f   ScbScene.obj
 0001:00058700       ?removeArticulationJoint@Scene@Scb@physx@@QEAAXAEAVArticulationJoint@23@@Z 0000000180059700 f   ScbScene.obj
 0001:00058750       ?addAggregate@Scene@Scb@physx@@QEAAXAEAVAggregate@23@@Z 0000000180059750 f   ScbScene.obj
 0001:000587b0       ?removeAggregate@Scene@Scb@physx@@QEAAXAEAVAggregate@23@@Z 00000001800597b0 f   ScbScene.obj
 0001:00058800       ?addMaterial@Scene@Scb@physx@@QEAAXAEBVMaterialCore@Sc@3@@Z 0000000180059800 f   ScbScene.obj
 0001:00058880       ?updateMaterial@Scene@Scb@physx@@QEAAXAEBVMaterialCore@Sc@3@@Z 0000000180059880 f   ScbScene.obj
 0001:00058900       ?removeMaterial@Scene@Scb@physx@@QEAAXAEBVMaterialCore@Sc@3@@Z 0000000180059900 f   ScbScene.obj
 0001:00058990       ?updateLowLevelMaterial@Scene@Scb@physx@@QEAAXPEAPEAVNpMaterial@3@@Z 0000000180059990 f   ScbScene.obj
 0001:00058b40       ?getBroadPhaseType@Scene@Scb@physx@@QEBA?AW4Enum@PxBroadPhaseType@3@XZ 0000000180059b40 f   ScbScene.obj
 0001:00058b50       ?getBroadPhaseCaps@Scene@Scb@physx@@QEBA_NAEAUPxBroadPhaseCaps@3@@Z 0000000180059b50 f   ScbScene.obj
 0001:00058b60       ?getNbBroadPhaseRegions@Scene@Scb@physx@@QEBAIXZ 0000000180059b60 f   ScbScene.obj
 0001:00058b70       ?getBroadPhaseRegions@Scene@Scb@physx@@QEBAIPEAUPxBroadPhaseRegionInfo@3@II@Z 0000000180059b70 f   ScbScene.obj
 0001:00058b80       ?addBroadPhaseRegion@Scene@Scb@physx@@QEAAIAEBUPxBroadPhaseRegion@3@_N@Z 0000000180059b80 f   ScbScene.obj
 0001:00058be0       ?removeBroadPhaseRegion@Scene@Scb@physx@@QEAA_NI@Z 0000000180059be0 f   ScbScene.obj
 0001:00058c30       ?shiftOrigin@Scene@Scb@physx@@QEAAXAEBVPxVec3@3@@Z 0000000180059c30 f   ScbScene.obj
 0001:00058c40       ?syncWriteThroughProperties@Scene@Scb@physx@@QEAAXXZ 0000000180059c40 f   ScbScene.obj
 0001:00058f30       ?syncEntireScene@Scene@Scb@physx@@QEAAXXZ 0000000180059f30 f   ScbScene.obj
 0001:000594d0       ?processPendingRemove@Scene@Scb@physx@@QEAAXXZ 000000018005a4d0 f   ScbScene.obj
 0001:00059930       ?scheduleForUpdate@Scene@Scb@physx@@QEAAXAEAVBase@23@@Z 000000018005a930 f   ScbScene.obj
 0001:000599e0       ?getStream@Scene@Scb@physx@@QEAAPEAEW4Enum@ScbType@3@@Z 000000018005a9e0 f   ScbScene.obj
 0001:00059bc0       ?syncState@Scene@Scb@physx@@AEAAXXZ 000000018005abc0 f   ScbScene.obj
 0001:00059e20       ?switchRigidToNoSim@Scene@Scb@physx@@QEAAXAEAVRigidObject@23@_N@Z 000000018005ae20 f   ScbScene.obj
 0001:00059f30       ?switchRigidFromNoSim@Scene@Scb@physx@@QEAAXAEAVRigidObject@23@_N@Z 000000018005af30 f   ScbScene.obj
 0001:0005a030       ??$add@VArticulation@Scb@physx@@@Scene@Scb@physx@@AEAAXAEAVArticulation@12@AEAVObjectTracker@12@PEAVPxBounds3@2@PEBVBVHStructure@Gu@2@@Z 000000018005b030 f i ScbScene.obj
 0001:0005a090       ??$add@VArticulationJoint@Scb@physx@@@Scene@Scb@physx@@AEAAXAEAVArticulationJoint@12@AEAVObjectTracker@12@PEAVPxBounds3@2@PEBVBVHStructure@Gu@2@@Z 000000018005b090 f i ScbScene.obj
 0001:0005a110       ??$add@VBody@Scb@physx@@@Scene@Scb@physx@@AEAAXAEAVBody@12@AEAVObjectTracker@12@PEAVPxBounds3@2@PEBVBVHStructure@Gu@2@@Z 000000018005b110 f i ScbScene.obj
 0001:0005a370       ??$add@VConstraint@Scb@physx@@@Scene@Scb@physx@@AEAAXAEAVConstraint@12@AEAVObjectTracker@12@PEAVPxBounds3@2@PEBVBVHStructure@Gu@2@@Z 000000018005b370 f i ScbScene.obj
 0001:0005a420       ??$add@VRigidStatic@Scb@physx@@@Scene@Scb@physx@@AEAAXAEAVRigidStatic@12@AEAVObjectTracker@12@PEAVPxBounds3@2@PEBVBVHStructure@Gu@2@@Z 000000018005b420 f i ScbScene.obj
 0001:0005a670       ??$addRigidNoSim@$00VBody@Scb@physx@@@Scene@Scb@physx@@AEAAXAEAVBody@12@AEAVObjectTracker@12@PEBVBVHStructure@Gu@2@@Z 000000018005b670 f i ScbScene.obj
 0001:0005a830       ??$addRigidNoSim@$0A@VRigidStatic@Scb@physx@@@Scene@Scb@physx@@AEAAXAEAVRigidStatic@12@AEAVObjectTracker@12@PEBVBVHStructure@Gu@2@@Z 000000018005b830 f i ScbScene.obj
 0001:0005a9e0       ??$pointerOffset@PEAVShape@Scb@physx@@@shdfnd@physx@@YAPEAVShape@Scb@1@PEAX_J@Z 000000018005b9e0 f i ScbScene.obj
 0001:0005a9f0       ??$processRemoves@VArticulation@Scb@physx@@$00$0A@@Scene@Scb@physx@@AEAAXAEAVObjectTracker@12@@Z 000000018005b9f0 f i ScbScene.obj
 0001:0005aa70       ??$processRemoves@VArticulationJoint@Scb@physx@@$0A@$0A@@Scene@Scb@physx@@AEAAXAEAVObjectTracker@12@@Z 000000018005ba70 f i ScbScene.obj
 0001:0005aad0       ??$processRemoves@VBody@Scb@physx@@$00$00@Scene@Scb@physx@@AEAAXAEAVObjectTracker@12@@Z 000000018005bad0 f i ScbScene.obj
 0001:0005adb0       ??$processRemoves@VConstraint@Scb@physx@@$00$0A@@Scene@Scb@physx@@AEAAXAEAVObjectTracker@12@@Z 000000018005bdb0 f i ScbScene.obj
 0001:0005ae30       ??$processRemoves@VRigidStatic@Scb@physx@@$0A@$00@Scene@Scb@physx@@AEAAXAEAVObjectTracker@12@@Z 000000018005be30 f i ScbScene.obj
 0001:0005b0d0       ??$processShapeRemoves@VBody@Scb@physx@@@Scene@Scb@physx@@AEAAXAEAVObjectTracker@12@@Z 000000018005c0d0 f i ScbScene.obj
 0001:0005b290       ??$processShapeRemoves@VRigidStatic@Scb@physx@@@Scene@Scb@physx@@AEAAXAEAVObjectTracker@12@@Z 000000018005c290 f i ScbScene.obj
 0001:0005b450       ??$processSimUpdates@VArticulation@Scb@physx@@VArticulationCore@Sc@3@@Scene@Scb@physx@@AEAAXPEBQEAVArticulationCore@Sc@2@I@Z 000000018005c450 f i ScbScene.obj
 0001:0005b600       ??$processSimUpdates@VBody@Scb@physx@@VBodyCore@Sc@3@@Scene@Scb@physx@@AEAAXPEBQEAVBodyCore@Sc@2@I@Z 000000018005c600 f i ScbScene.obj
 0001:0005b660       ??$processSimUpdates@VConstraint@Scb@physx@@VConstraintCore@Sc@3@@Scene@Scb@physx@@AEAAXPEBQEAVConstraintCore@Sc@2@I@Z 000000018005c660 f i ScbScene.obj
 0001:0005b7a0       ??$processUserUpdates@VArticulation@Scb@physx@@@Scene@Scb@physx@@AEAAXAEAVObjectTracker@12@@Z 000000018005c7a0 f i ScbScene.obj
 0001:0005b9a0       ??$processUserUpdates@VArticulationJoint@Scb@physx@@@Scene@Scb@physx@@AEAAXAEAVObjectTracker@12@@Z 000000018005c9a0 f i ScbScene.obj
 0001:0005ba40       ??$processUserUpdates@VBody@Scb@physx@@@Scene@Scb@physx@@AEAAXAEAVObjectTracker@12@@Z 000000018005ca40 f i ScbScene.obj
 0001:0005bd00       ??$processUserUpdates@VConstraint@Scb@physx@@@Scene@Scb@physx@@AEAAXAEAVObjectTracker@12@@Z 000000018005cd00 f i ScbScene.obj
 0001:0005bed0       ??$processUserUpdates@VRigidStatic@Scb@physx@@@Scene@Scb@physx@@AEAAXAEAVObjectTracker@12@@Z 000000018005ced0 f i ScbScene.obj
 0001:0005c240       ??$remove@VArticulation@Scb@physx@@@Scene@Scb@physx@@AEAAXAEAVArticulation@12@AEAVObjectTracker@12@_N@Z 000000018005d240 f i ScbScene.obj
 0001:0005c290       ??$remove@VArticulationJoint@Scb@physx@@@Scene@Scb@physx@@AEAAXAEAVArticulationJoint@12@AEAVObjectTracker@12@_N@Z 000000018005d290 f i ScbScene.obj
 0001:0005c2d0       ??$remove@VBody@Scb@physx@@@Scene@Scb@physx@@AEAAXAEAVBody@12@AEAVObjectTracker@12@_N@Z 000000018005d2d0 f i ScbScene.obj
 0001:0005c540       ??$remove@VRigidStatic@Scb@physx@@@Scene@Scb@physx@@AEAAXAEAVRigidStatic@12@AEAVObjectTracker@12@_N@Z 000000018005d540 f i ScbScene.obj
 0001:0005c7b0       ??$removeRigidNoSim@$00VBody@Scb@physx@@@Scene@Scb@physx@@AEAAXAEAVBody@12@AEAVObjectTracker@12@@Z 000000018005d7b0 f i ScbScene.obj
 0001:0005ca10       ??$removeRigidNoSim@$0A@VRigidStatic@Scb@physx@@@Scene@Scb@physx@@AEAAXAEAVRigidStatic@12@AEAVObjectTracker@12@@Z 000000018005da10 f i ScbScene.obj
 0001:0005cc70       ??0BodyBuffer@Scb@physx@@QEAA@XZ 000000018005dc70 f i ScbScene.obj
 0001:0005ccf0       ?allocate@?$Array@VMaterialEvent@Scb@physx@@V?$ReflectionAllocator@VMaterialEvent@Scb@physx@@@shdfnd@3@@shdfnd@physx@@IEAAPEAVMaterialEvent@Scb@3@I@Z 000000018005dcf0 f i ScbScene.obj
 0001:0005cd90       ?allocateNotThreadSafe@FlushPool@Cm@physx@@QEAAPEAXII@Z 000000018005dd90 f i ScbScene.obj
 0001:0005ceb0       ?clearNotThreadSafe@FlushPool@Cm@physx@@QEAAXI@Z 000000018005deb0 f i ScbScene.obj
 0001:0005cf30       ?create@?$HashBase@PEAVBase@Scb@physx@@PEAV123@U?$Hash@PEAVBase@Scb@physx@@@shdfnd@3@UGetKey@?$HashSetBase@PEAVBase@Scb@physx@@U?$Hash@PEAVBase@Scb@physx@@@shdfnd@3@VNonTrackingAllocator@53@$00@internal@53@VNonTrackingAllocator@53@$00@internal@shdfnd@physx@@QEAAPEAPEAVBase@Scb@4@AEBQEAV564@AEA_N@Z 000000018005df30 f i ScbScene.obj
 0001:0005d0d0       ?erase@?$HashBase@PEAVBase@Scb@physx@@PEAV123@U?$Hash@PEAVBase@Scb@physx@@@shdfnd@3@UGetKey@?$HashSetBase@PEAVBase@Scb@physx@@U?$Hash@PEAVBase@Scb@physx@@@shdfnd@3@VNonTrackingAllocator@53@$00@internal@53@VNonTrackingAllocator@53@$00@internal@shdfnd@physx@@QEAA_NAEBQEAVBase@Scb@4@@Z 000000018005e0d0 f i ScbScene.obj
 0001:0005d240       ?growAndPushBack@?$Array@VMaterialEvent@Scb@physx@@V?$ReflectionAllocator@VMaterialEvent@Scb@physx@@@shdfnd@3@@shdfnd@physx@@IEAAAEAVMaterialEvent@Scb@3@AEBV453@@Z 000000018005e240 f i ScbScene.obj
 0001:0005d300       ?recreate@?$Array@PEAVShape@Scb@physx@@V?$InlineAllocator@$0CA@V?$ReflectionAllocator@PEAVShape@Scb@physx@@@shdfnd@physx@@@shdfnd@3@@shdfnd@physx@@IEAAXI@Z 000000018005e300 f i ScbScene.obj
 0001:0005d3d0       ?recreate@?$Array@URemovedShape@Scb@physx@@V?$InlineAllocator@$0EA@V?$ReflectionAllocator@URemovedShape@Scb@physx@@@shdfnd@physx@@@shdfnd@3@@shdfnd@physx@@IEAAXI@Z 000000018005e3d0 f i ScbScene.obj
 0001:0005d480       ?recreate@?$Array@VMaterialEvent@Scb@physx@@V?$ReflectionAllocator@VMaterialEvent@Scb@physx@@@shdfnd@3@@shdfnd@physx@@IEAAXI@Z 000000018005e480 f i ScbScene.obj
 0001:0005d520       ?reserveInternal@?$HashBase@PEAVBase@Scb@physx@@PEAV123@U?$Hash@PEAVBase@Scb@physx@@@shdfnd@3@UGetKey@?$HashSetBase@PEAVBase@Scb@physx@@U?$Hash@PEAVBase@Scb@physx@@@shdfnd@3@VNonTrackingAllocator@53@$00@internal@53@VNonTrackingAllocator@53@$00@internal@shdfnd@physx@@AEAAXI@Z 000000018005e520 f i ScbScene.obj
 0001:0005d6f0       ?resize@?$Array@PEAVShape@Scb@physx@@V?$InlineAllocator@$0CA@V?$ReflectionAllocator@PEAVShape@Scb@physx@@@shdfnd@physx@@@shdfnd@3@@shdfnd@physx@@QEAAXIAEBQEAVShape@Scb@3@@Z 000000018005e6f0 f i ScbScene.obj
 0001:0005d7b0       ?resize@?$Array@URemovedShape@Scb@physx@@V?$InlineAllocator@$0EA@V?$ReflectionAllocator@URemovedShape@Scb@physx@@@shdfnd@physx@@@shdfnd@3@@shdfnd@physx@@QEAAXIAEBURemovedShape@Scb@3@@Z 000000018005e7b0 f i ScbScene.obj
 0001:0005d830       ?resize@?$Array@VMaterialEvent@Scb@physx@@V?$ReflectionAllocator@VMaterialEvent@Scb@physx@@@shdfnd@3@@shdfnd@physx@@QEAAXIAEBVMaterialEvent@Scb@3@@Z 000000018005e830 f i ScbScene.obj
 0001:0005d8f0       ?resize@PxsMaterialManager@physx@@QEAAXI@Z 000000018005e8f0 f i ScbScene.obj
 0001:0005dbc0       ?syncCollisionWriteThroughState@Body@Scb@physx@@QEAAXXZ 000000018005ebc0 f i ScbScene.obj
 0001:0005de70       ?syncState@Articulation@Scb@physx@@QEAAXXZ 000000018005ee70 f i ScbScene.obj
 0001:0005e000       ?syncState@ArticulationJoint@Scb@physx@@QEAAXXZ 000000018005f000 f i ScbScene.obj
 0001:0005e4b0       ?syncState@Body@Scb@physx@@QEAAXXZ 000000018005f4b0 f i ScbScene.obj
 0001:0005ec00       ?syncState@Constraint@Scb@physx@@QEAAXXZ 000000018005fc00 f i ScbScene.obj
 0001:0005ed20       ?syncState@RigidObject@Scb@physx@@QEAAXXZ 000000018005fd20 f i ScbScene.obj
 0001:0005ef80       ?syncState@Shape@Scb@physx@@QEAAXXZ 000000018005ff80 f   ScbShape.obj
 0001:0005f180       ?setMaterialsHelper@Shape@Scb@physx@@AEAA_NPEBQEAVPxMaterial@3@G@Z 0000000180060180 f   ScbShape.obj
 0001:0005f2f0       PxConstructSolverBodies    00000001800602f0 f   NpImmediateMode.obj
 0001:0005f5c0       PxConstructStaticSolverBody 00000001800605c0 f   NpImmediateMode.obj
 0001:0005f630       PxBatchConstraints         0000000180060630 f   NpImmediateMode.obj
 0001:0005f800       PxCreateContactConstraints 0000000180060800 f   NpImmediateMode.obj
 0001:0005fa70       PxCreateJointConstraints   0000000180060a70 f   NpImmediateMode.obj
 0001:0005fbf0       PxCreateJointConstraintsWithShaders 0000000180060bf0 f   NpImmediateMode.obj
 0001:0005fe70       PxSolveConstraints         0000000180060e70 f   NpImmediateMode.obj
 0001:000601d0       PxIntegrateSolverBodies    00000001800611d0 f   NpImmediateMode.obj
 0001:000607a0       PxGenerateContacts         00000001800617a0 f   NpImmediateMode.obj
 0001:00060e10       ?createCache@physx@@YAXAEAUCache@Gu@1@W4Enum@PxGeometryType@1@1AEAVPxCacheAllocator@1@@Z 0000000180061e10 f   NpImmediateMode.obj
 0001:000612c0       ??0ContactPatchData@CorrelationBuffer@Dy@physx@@QEAA@XZ 00000001800622c0 f i NpImmediateMode.obj
 0001:000612d0       ??0ContactPoint@Gu@physx@@QEAA@XZ 00000001800622d0 f i NpImmediateMode.obj
 0001:000612e0       ??0FrictionPatch@Dy@physx@@QEAA@XZ 00000001800622e0 f i NpImmediateMode.obj
 0001:000612f0       ??0PersistentContact@Gu@physx@@QEAA@XZ 00000001800622f0 f i NpImmediateMode.obj
 0001:00061300       ??0Px1DConstraint@physx@@QEAA@XZ 0000000180062300 f i NpImmediateMode.obj
 0001:00061310       ??0PhysXIndicator@physx@@QEAA@_N@Z 0000000180062310 f   PhysXIndicatorWindows.obj
 0001:000614b0       ??1PhysXIndicator@physx@@QEAA@XZ 00000001800624b0 f   PhysXIndicatorWindows.obj
 0001:00061510       ?setIsGpu@PhysXIndicator@physx@@QEAAX_N@Z 0000000180062510 f   PhysXIndicatorWindows.obj
 0001:00061550       __local_stdio_printf_options 0000000180062550 f i PhysXIndicatorWindows.obj
 0001:00061560       sprintf                    0000000180062560 f i PhysXIndicatorWindows.obj
 0001:000615c0       PxGetSuggestedCudaDeviceOrdinal 00000001800625c0 f   PxGpu.obj
 0001:00061610       PxCreateCudaContextManager 0000000180062610 f   PxGpu.obj
 0001:00061670       PxCreateCudaClientContextManager 0000000180062670 f   PxGpu.obj
 0001:000616c0       PxSetPhysXGpuLoadHook      00000001800626c0 f   PxPhysXGpuModuleLoader.obj
 0001:000616e0       ?PxLoadPhysxGPUModule@physx@@YAXPEBD@Z 00000001800626e0 f   PxPhysXGpuModuleLoader.obj
 0001:00061880       PxSetPhysXDelayLoadHook    0000000180062880 f   NpWindowsDelayLoadHook.obj
 0001:00061890       ?PxGetPhysXDelayLoadHook@physx@@YAPEBVPxDelayLoadHook@1@XZ 0000000180062890 f   NpWindowsDelayLoadHook.obj
 0001:000618a0       ?delayHook@@YAP6A_JXZIPEAUDelayLoadInfo@@@Z 00000001800628a0 f   NpWindowsDelayLoadHook.obj
 0001:00061980       ?PxvInit@physx@@YAXAEBUPxvOffsetTable@1@@Z 0000000180062980 f   LowLevel_static_64:px_globals.obj
 0001:000619b0       ?PxvTerm@physx@@YAXXZ      00000001800629b0 f   LowLevel_static_64:px_globals.obj
 0001:000619e0       ?PxvRegisterHeightFields@physx@@YAXXZ 00000001800629e0 f   LowLevel_static_64:px_globals.obj
 0001:00061a60       ?PxvGetPhysXGpu@physx@@YAPEAVPxPhysXGpu@1@_N@Z 0000000180062a60 f   LowLevel_static_64:px_globals.obj
 0001:00061ac0       ??0PxsContext@physx@@QEAA@AEBVPxSceneDesc@1@PEAVPxTaskManager@1@AEAVFlushPool@Cm@1@_K@Z 0000000180062ac0 f   LowLevel_static_64:PxsContext.obj
 0001:00062020       ??1PxsContext@physx@@QEAA@XZ 0000000180063020 f   LowLevel_static_64:PxsContext.obj
 0001:00062250       ?createTransformCache@PxsContext@physx@@QEAAXAEAVVirtualAllocatorCallback@shdfnd@2@@Z 0000000180063250 f   LowLevel_static_64:PxsContext.obj
 0001:000622d0       ?createContactManager@PxsContext@physx@@QEAAPEAVPxsContactManager@2@PEAV32@_N@Z 00000001800632d0 f   LowLevel_static_64:PxsContext.obj
 0001:000623f0       ?createCache@PxsContext@physx@@QEAAXAEAUCache@Gu@2@PEAVPxsContactManager@2@EE@Z 00000001800633f0 f   LowLevel_static_64:PxsContext.obj
 0001:00062680       ?destroyCache@PxsContext@physx@@QEAAXAEAUCache@Gu@2@@Z 0000000180063680 f   LowLevel_static_64:PxsContext.obj
 0001:000626f0       ?destroyContactManager@PxsContext@physx@@QEAAXPEAVPxsContactManager@2@@Z 00000001800636f0 f   LowLevel_static_64:PxsContext.obj
 0001:00062830       ?setScratchBlock@PxsContext@physx@@QEAAXPEAXI@Z 0000000180063830 f   LowLevel_static_64:PxsContext.obj
 0001:00062890       ?setContactDistance@PxsContext@physx@@QEAAXPEAV?$Array@MVVirtualAllocator@shdfnd@physx@@@shdfnd@2@@Z 0000000180063890 f   LowLevel_static_64:PxsContext.obj
 0001:000628a0       ?updateContactManager@PxsContext@physx@@QEAAXM_N0PEAVPxBaseTask@2@1@Z 00000001800638a0 f   LowLevel_static_64:PxsContext.obj
 0001:000628c0       ?secondPassUpdateContactManager@PxsContext@physx@@QEAAXMPEAVPxBaseTask@2@@Z 00000001800638c0 f   LowLevel_static_64:PxsContext.obj
 0001:000628e0       ?fetchUpdateContactManager@PxsContext@physx@@QEAAXXZ 00000001800638e0 f   LowLevel_static_64:PxsContext.obj
 0001:00062910       ?swapStreams@PxsContext@physx@@QEAAXXZ 0000000180063910 f   LowLevel_static_64:PxsContext.obj
 0001:00062920       ?resetThreadContexts@PxsContext@physx@@QEAAXXZ 0000000180063920 f   LowLevel_static_64:PxsContext.obj
 0001:000629b0       ?getManagerTouchEventCount@PxsContext@physx@@QEBA_NPEAH00@Z 00000001800639b0 f   LowLevel_static_64:PxsContext.obj
 0001:000629f0       ?fillManagerTouchEvents@PxsContext@physx@@QEAA_NPEAUPxvContactManagerTouchEvent@2@AEAH0101@Z 00000001800639f0 f   LowLevel_static_64:PxsContext.obj
 0001:00062b70       ?fillManagerPatchChangedEvents@PxsContext@physx@@QEAA_NPEAPEAVPxsContactManager@2@AEAI01@Z 0000000180063b70 f   LowLevel_static_64:PxsContext.obj
 0001:00062ce0       ?beginUpdate@PxsContext@physx@@QEAAXXZ 0000000180063ce0 f   LowLevel_static_64:PxsContext.obj
 0001:00062d00       ?getVisualizationParameter@PxsContext@physx@@QEBAMW4Enum@PxVisualizationParameter@2@@Z 0000000180063d00 f   LowLevel_static_64:PxsContext.obj
 0001:00062d20       ?setVisualizationParameter@PxsContext@physx@@QEAAXW4Enum@PxVisualizationParameter@2@M@Z 0000000180063d20 f   LowLevel_static_64:PxsContext.obj
 0001:00062d40       ?shiftOrigin@PxsContext@physx@@QEAAXAEBVPxVec3@2@@Z 0000000180063d40 f   LowLevel_static_64:PxsContext.obj
 0001:00062ea0       ?setCreateContactStream@PxsContext@physx@@QEAAX_N@Z 0000000180063ea0 f   LowLevel_static_64:PxsContext.obj
 0001:00062f20       ?mergeCMDiscreteUpdateResults@PxsContext@physx@@AEAAXPEAVPxBaseTask@2@@Z 0000000180063f20 f   LowLevel_static_64:PxsContext.obj
 0001:00063320       ??$sort@PEAXU?$Less@PEAX@shdfnd@physx@@V?$ReflectionAllocator@VLargePersistentContactManifold@Gu@physx@@@23@@shdfnd@physx@@YAXPEAPEAXIAEBU?$Less@PEAX@01@AEBV?$ReflectionAllocator@VLargePersistentContactManifold@Gu@physx@@@01@I@Z 0000000180064320 f i LowLevel_static_64:PxsContext.obj
 0001:000636e0       ??$sort@PEAXU?$Less@PEAX@shdfnd@physx@@V?$ReflectionAllocator@VSpherePersistentContactManifold@Gu@physx@@@23@@shdfnd@physx@@YAXPEAPEAXIAEBU?$Less@PEAX@01@AEBV?$ReflectionAllocator@VSpherePersistentContactManifold@Gu@physx@@@01@I@Z 00000001800646e0 f i LowLevel_static_64:PxsContext.obj
 0001:00063aa0       ??1?$Array@PEAXV?$InlineAllocator@$0CAA@V?$ReflectionAllocator@VLargePersistentContactManifold@Gu@physx@@@shdfnd@physx@@@shdfnd@physx@@@shdfnd@physx@@QEAA@XZ 0000000180064aa0 f i LowLevel_static_64:PxsContext.obj
 0001:00063b10       ??1?$Array@PEAXV?$InlineAllocator@$0CAA@V?$ReflectionAllocator@VSpherePersistentContactManifold@Gu@physx@@@shdfnd@physx@@@shdfnd@physx@@@shdfnd@physx@@QEAA@XZ 0000000180064b10 f i LowLevel_static_64:PxsContext.obj
 0001:00063b80       ??1?$PoolBase@VLargePersistentContactManifold@Gu@physx@@V?$ReflectionAllocator@VLargePersistentContactManifold@Gu@physx@@@shdfnd@3@@shdfnd@physx@@QEAA@XZ 0000000180064b80 f i LowLevel_static_64:PxsContext.obj
 0001:00063ce0       ??1?$PoolBase@VSpherePersistentContactManifold@Gu@physx@@V?$ReflectionAllocator@VSpherePersistentContactManifold@Gu@physx@@@shdfnd@3@@shdfnd@physx@@QEAA@XZ 0000000180064ce0 f i LowLevel_static_64:PxsContext.obj
 0001:00063e40       ??1?$PxcThreadCoherentCache@VPxcNpThreadContext@physx@@UPxcNpContext@2@@physx@@QEAA@XZ 0000000180064e40 f i LowLevel_static_64:PxsContext.obj
 0001:00063ed0       ??1PxcScratchAllocator@physx@@QEAA@XZ 0000000180064ed0 f i LowLevel_static_64:PxsContext.obj
 0001:00063f40       ?allocate@?$Array@PEAEV?$ReflectionAllocator@PEAE@shdfnd@physx@@@shdfnd@physx@@IEAAPEAPEAEI@Z 0000000180064f40 f i LowLevel_static_64:PxsContext.obj
 0001:00063fe0       ?allocate@?$ReflectionAllocator@VLargePersistentContactManifold@Gu@physx@@@shdfnd@physx@@QEAAPEAX_KPEBDH@Z 0000000180064fe0 f i LowLevel_static_64:PxsContext.obj
 0001:00064080       ?allocate@?$ReflectionAllocator@VPxsContactManager@physx@@@shdfnd@physx@@QEAAPEAX_KPEBDH@Z 0000000180065080 f i LowLevel_static_64:PxsContext.obj
 0001:00064120       ?allocate@?$ReflectionAllocator@VSpherePersistentContactManifold@Gu@physx@@@shdfnd@physx@@QEAAPEAX_KPEBDH@Z 0000000180065120 f i LowLevel_static_64:PxsContext.obj
 0001:000641c0       ?destroy@?$PoolList@VPxsContactManager@physx@@VPxsContext@2@@Cm@physx@@QEAAXXZ 00000001800651c0 f i LowLevel_static_64:PxsContext.obj
 0001:000642d0       ?extend@?$BitMapBase@VNonTrackingAllocator@shdfnd@physx@@@Cm@physx@@IEAAXI@Z 00000001800652d0 f i LowLevel_static_64:PxsContext.obj
 0001:000643b0       ?get@?$PoolList@VPxsContactManager@physx@@VPxsContext@2@@Cm@physx@@QEAAPEAVPxsContactManager@3@XZ 00000001800653b0 f i LowLevel_static_64:PxsContext.obj
 0001:00064520       ?growAndPushBack@?$Array@PEAXV?$InlineAllocator@$0CAA@V?$ReflectionAllocator@VLargePersistentContactManifold@Gu@physx@@@shdfnd@physx@@@shdfnd@physx@@@shdfnd@physx@@IEAAAEAPEAXAEBQEAX@Z 0000000180065520 f i LowLevel_static_64:PxsContext.obj
 0001:00064640       ?growAndPushBack@?$Array@PEAXV?$InlineAllocator@$0CAA@V?$ReflectionAllocator@VSpherePersistentContactManifold@Gu@physx@@@shdfnd@physx@@@shdfnd@physx@@@shdfnd@physx@@IEAAAEAPEAXAEBQEAX@Z 0000000180065640 f i LowLevel_static_64:PxsContext.obj
 0001:00064760       ?growAndPushBack@?$Array@PEAXV?$ReflectionAllocator@VLargePersistentContactManifold@Gu@physx@@@shdfnd@physx@@@shdfnd@physx@@IEAAAEAPEAXAEBQEAX@Z 0000000180065760 f i LowLevel_static_64:PxsContext.obj
 0001:00064840       ?growAndPushBack@?$Array@PEAXV?$ReflectionAllocator@VSpherePersistentContactManifold@Gu@physx@@@shdfnd@physx@@@shdfnd@physx@@IEAAAEAPEAXAEBQEAX@Z 0000000180065840 f i LowLevel_static_64:PxsContext.obj
 0001:00064920       ?recreate@?$Array@PEAEV?$ReflectionAllocator@PEAE@shdfnd@physx@@@shdfnd@physx@@IEAAXI@Z 0000000180065920 f i LowLevel_static_64:PxsContext.obj
 0001:000649c0       ?PxcContactSphereSphere@physx@@YA_NAEBVGeometryUnion@Gu@1@0AEBVPxTransform@1@1AEBUNarrowPhaseParams@31@AEAUCache@31@AEAVContactBuffer@31@PEAVRenderOutput@Cm@1@@Z 00000001800659c0 f   LowLevel_static_64:PxcContact.obj
 0001:000649d0       ?PxcContactSphereCapsule@physx@@YA_NAEBVGeometryUnion@Gu@1@0AEBVPxTransform@1@1AEBUNarrowPhaseParams@31@AEAUCache@31@AEAVContactBuffer@31@PEAVRenderOutput@Cm@1@@Z 00000001800659d0 f   LowLevel_static_64:PxcContact.obj
 0001:000649e0       ?PxcContactSphereBox@physx@@YA_NAEBVGeometryUnion@Gu@1@0AEBVPxTransform@1@1AEBUNarrowPhaseParams@31@AEAUCache@31@AEAVContactBuffer@31@PEAVRenderOutput@Cm@1@@Z 00000001800659e0 f   LowLevel_static_64:PxcContact.obj
 0001:000649f0       ?PxcContactSpherePlane@physx@@YA_NAEBVGeometryUnion@Gu@1@0AEBVPxTransform@1@1AEBUNarrowPhaseParams@31@AEAUCache@31@AEAVContactBuffer@31@PEAVRenderOutput@Cm@1@@Z 00000001800659f0 f   LowLevel_static_64:PxcContact.obj
 0001:00064a00       ?PxcContactSphereConvex@physx@@YA_NAEBVGeometryUnion@Gu@1@0AEBVPxTransform@1@1AEBUNarrowPhaseParams@31@AEAUCache@31@AEAVContactBuffer@31@PEAVRenderOutput@Cm@1@@Z 0000000180065a00 f   LowLevel_static_64:PxcContact.obj
 0001:00064a10       ?PxcContactSphereHeightField@physx@@YA_NAEBVGeometryUnion@Gu@1@0AEBVPxTransform@1@1AEBUNarrowPhaseParams@31@AEAUCache@31@AEAVContactBuffer@31@PEAVRenderOutput@Cm@1@@Z 0000000180065a10 f   LowLevel_static_64:PxcContact.obj
 0001:00064a20       ?PxcContactSphereMesh@physx@@YA_NAEBVGeometryUnion@Gu@1@0AEBVPxTransform@1@1AEBUNarrowPhaseParams@31@AEAUCache@31@AEAVContactBuffer@31@PEAVRenderOutput@Cm@1@@Z 0000000180065a20 f   LowLevel_static_64:PxcContact.obj
 0001:00064a30       ?PxcContactPlaneBox@physx@@YA_NAEBVGeometryUnion@Gu@1@0AEBVPxTransform@1@1AEBUNarrowPhaseParams@31@AEAUCache@31@AEAVContactBuffer@31@PEAVRenderOutput@Cm@1@@Z 0000000180065a30 f   LowLevel_static_64:PxcContact.obj
 0001:00064a40       ?PxcContactPlaneCapsule@physx@@YA_NAEBVGeometryUnion@Gu@1@0AEBVPxTransform@1@1AEBUNarrowPhaseParams@31@AEAUCache@31@AEAVContactBuffer@31@PEAVRenderOutput@Cm@1@@Z 0000000180065a40 f   LowLevel_static_64:PxcContact.obj
 0001:00064a50       ?PxcContactPlaneConvex@physx@@YA_NAEBVGeometryUnion@Gu@1@0AEBVPxTransform@1@1AEBUNarrowPhaseParams@31@AEAUCache@31@AEAVContactBuffer@31@PEAVRenderOutput@Cm@1@@Z 0000000180065a50 f   LowLevel_static_64:PxcContact.obj
 0001:00064a60       ?PxcContactCapsuleCapsule@physx@@YA_NAEBVGeometryUnion@Gu@1@0AEBVPxTransform@1@1AEBUNarrowPhaseParams@31@AEAUCache@31@AEAVContactBuffer@31@PEAVRenderOutput@Cm@1@@Z 0000000180065a60 f   LowLevel_static_64:PxcContact.obj
 0001:00064a70       ?PxcContactCapsuleBox@physx@@YA_NAEBVGeometryUnion@Gu@1@0AEBVPxTransform@1@1AEBUNarrowPhaseParams@31@AEAUCache@31@AEAVContactBuffer@31@PEAVRenderOutput@Cm@1@@Z 0000000180065a70 f   LowLevel_static_64:PxcContact.obj
 0001:00064a80       ?PxcContactCapsuleConvex@physx@@YA_NAEBVGeometryUnion@Gu@1@0AEBVPxTransform@1@1AEBUNarrowPhaseParams@31@AEAUCache@31@AEAVContactBuffer@31@PEAVRenderOutput@Cm@1@@Z 0000000180065a80 f   LowLevel_static_64:PxcContact.obj
 0001:00064a90       ?PxcContactCapsuleHeightField@physx@@YA_NAEBVGeometryUnion@Gu@1@0AEBVPxTransform@1@1AEBUNarrowPhaseParams@31@AEAUCache@31@AEAVContactBuffer@31@PEAVRenderOutput@Cm@1@@Z 0000000180065a90 f   LowLevel_static_64:PxcContact.obj
 0001:00064aa0       ?PxcContactCapsuleMesh@physx@@YA_NAEBVGeometryUnion@Gu@1@0AEBVPxTransform@1@1AEBUNarrowPhaseParams@31@AEAUCache@31@AEAVContactBuffer@31@PEAVRenderOutput@Cm@1@@Z 0000000180065aa0 f   LowLevel_static_64:PxcContact.obj
 0001:00064ab0       ?PxcContactBoxBox@physx@@YA_NAEBVGeometryUnion@Gu@1@0AEBVPxTransform@1@1AEBUNarrowPhaseParams@31@AEAUCache@31@AEAVContactBuffer@31@PEAVRenderOutput@Cm@1@@Z 0000000180065ab0 f   LowLevel_static_64:PxcContact.obj
 0001:00064ac0       ?PxcContactBoxConvex@physx@@YA_NAEBVGeometryUnion@Gu@1@0AEBVPxTransform@1@1AEBUNarrowPhaseParams@31@AEAUCache@31@AEAVContactBuffer@31@PEAVRenderOutput@Cm@1@@Z 0000000180065ac0 f   LowLevel_static_64:PxcContact.obj
 0001:00064ad0       ?PxcContactBoxHeightField@physx@@YA_NAEBVGeometryUnion@Gu@1@0AEBVPxTransform@1@1AEBUNarrowPhaseParams@31@AEAUCache@31@AEAVContactBuffer@31@PEAVRenderOutput@Cm@1@@Z 0000000180065ad0 f   LowLevel_static_64:PxcContact.obj
 0001:00064ae0       ?PxcContactBoxMesh@physx@@YA_NAEBVGeometryUnion@Gu@1@0AEBVPxTransform@1@1AEBUNarrowPhaseParams@31@AEAUCache@31@AEAVContactBuffer@31@PEAVRenderOutput@Cm@1@@Z 0000000180065ae0 f   LowLevel_static_64:PxcContact.obj
 0001:00064af0       ?PxcContactConvexConvex@physx@@YA_NAEBVGeometryUnion@Gu@1@0AEBVPxTransform@1@1AEBUNarrowPhaseParams@31@AEAUCache@31@AEAVContactBuffer@31@PEAVRenderOutput@Cm@1@@Z 0000000180065af0 f   LowLevel_static_64:PxcContact.obj
 0001:00064b00       ?PxcContactConvexHeightField@physx@@YA_NAEBVGeometryUnion@Gu@1@0AEBVPxTransform@1@1AEBUNarrowPhaseParams@31@AEAUCache@31@AEAVContactBuffer@31@PEAVRenderOutput@Cm@1@@Z 0000000180065b00 f   LowLevel_static_64:PxcContact.obj
 0001:00064b10       ?PxcContactConvexMesh@physx@@YA_NAEBVGeometryUnion@Gu@1@0AEBVPxTransform@1@1AEBUNarrowPhaseParams@31@AEAUCache@31@AEAVContactBuffer@31@PEAVRenderOutput@Cm@1@@Z 0000000180065b10 f   LowLevel_static_64:PxcContact.obj
 0001:00064b20       ?PxcPCMContactSphereSphere@physx@@YA_NAEBVGeometryUnion@Gu@1@0AEBVPxTransform@1@1AEBUNarrowPhaseParams@31@AEAUCache@31@AEAVContactBuffer@31@PEAVRenderOutput@Cm@1@@Z 0000000180065b20 f   LowLevel_static_64:PxcContact.obj
 0001:00064b30       ?PxcPCMContactSpherePlane@physx@@YA_NAEBVGeometryUnion@Gu@1@0AEBVPxTransform@1@1AEBUNarrowPhaseParams@31@AEAUCache@31@AEAVContactBuffer@31@PEAVRenderOutput@Cm@1@@Z 0000000180065b30 f   LowLevel_static_64:PxcContact.obj
 0001:00064b40       ?PxcPCMContactSphereCapsule@physx@@YA_NAEBVGeometryUnion@Gu@1@0AEBVPxTransform@1@1AEBUNarrowPhaseParams@31@AEAUCache@31@AEAVContactBuffer@31@PEAVRenderOutput@Cm@1@@Z 0000000180065b40 f   LowLevel_static_64:PxcContact.obj
 0001:00064b50       ?PxcPCMContactSphereBox@physx@@YA_NAEBVGeometryUnion@Gu@1@0AEBVPxTransform@1@1AEBUNarrowPhaseParams@31@AEAUCache@31@AEAVContactBuffer@31@PEAVRenderOutput@Cm@1@@Z 0000000180065b50 f   LowLevel_static_64:PxcContact.obj
 0001:00064b60       ?PxcPCMContactSphereConvex@physx@@YA_NAEBVGeometryUnion@Gu@1@0AEBVPxTransform@1@1AEBUNarrowPhaseParams@31@AEAUCache@31@AEAVContactBuffer@31@PEAVRenderOutput@Cm@1@@Z 0000000180065b60 f   LowLevel_static_64:PxcContact.obj
 0001:00064b70       ?PxcPCMContactSphereHeightField@physx@@YA_NAEBVGeometryUnion@Gu@1@0AEBVPxTransform@1@1AEBUNarrowPhaseParams@31@AEAUCache@31@AEAVContactBuffer@31@PEAVRenderOutput@Cm@1@@Z 0000000180065b70 f   LowLevel_static_64:PxcContact.obj
 0001:00064b80       ?PxcPCMContactSphereMesh@physx@@YA_NAEBVGeometryUnion@Gu@1@0AEBVPxTransform@1@1AEBUNarrowPhaseParams@31@AEAUCache@31@AEAVContactBuffer@31@PEAVRenderOutput@Cm@1@@Z 0000000180065b80 f   LowLevel_static_64:PxcContact.obj
 0001:00064b90       ?PxcPCMContactPlaneBox@physx@@YA_NAEBVGeometryUnion@Gu@1@0AEBVPxTransform@1@1AEBUNarrowPhaseParams@31@AEAUCache@31@AEAVContactBuffer@31@PEAVRenderOutput@Cm@1@@Z 0000000180065b90 f   LowLevel_static_64:PxcContact.obj
 0001:00064ba0       ?PxcPCMContactPlaneCapsule@physx@@YA_NAEBVGeometryUnion@Gu@1@0AEBVPxTransform@1@1AEBUNarrowPhaseParams@31@AEAUCache@31@AEAVContactBuffer@31@PEAVRenderOutput@Cm@1@@Z 0000000180065ba0 f   LowLevel_static_64:PxcContact.obj
 0001:00064bb0       ?PxcPCMContactPlaneConvex@physx@@YA_NAEBVGeometryUnion@Gu@1@0AEBVPxTransform@1@1AEBUNarrowPhaseParams@31@AEAUCache@31@AEAVContactBuffer@31@PEAVRenderOutput@Cm@1@@Z 0000000180065bb0 f   LowLevel_static_64:PxcContact.obj
 0001:00064bc0       ?PxcPCMContactCapsuleCapsule@physx@@YA_NAEBVGeometryUnion@Gu@1@0AEBVPxTransform@1@1AEBUNarrowPhaseParams@31@AEAUCache@31@AEAVContactBuffer@31@PEAVRenderOutput@Cm@1@@Z 0000000180065bc0 f   LowLevel_static_64:PxcContact.obj
 0001:00064bd0       ?PxcPCMContactCapsuleBox@physx@@YA_NAEBVGeometryUnion@Gu@1@0AEBVPxTransform@1@1AEBUNarrowPhaseParams@31@AEAUCache@31@AEAVContactBuffer@31@PEAVRenderOutput@Cm@1@@Z 0000000180065bd0 f   LowLevel_static_64:PxcContact.obj
 0001:00064be0       ?PxcPCMContactCapsuleConvex@physx@@YA_NAEBVGeometryUnion@Gu@1@0AEBVPxTransform@1@1AEBUNarrowPhaseParams@31@AEAUCache@31@AEAVContactBuffer@31@PEAVRenderOutput@Cm@1@@Z 0000000180065be0 f   LowLevel_static_64:PxcContact.obj
 0001:00064bf0       ?PxcPCMContactCapsuleHeightField@physx@@YA_NAEBVGeometryUnion@Gu@1@0AEBVPxTransform@1@1AEBUNarrowPhaseParams@31@AEAUCache@31@AEAVContactBuffer@31@PEAVRenderOutput@Cm@1@@Z 0000000180065bf0 f   LowLevel_static_64:PxcContact.obj
 0001:00064c00       ?PxcPCMContactCapsuleMesh@physx@@YA_NAEBVGeometryUnion@Gu@1@0AEBVPxTransform@1@1AEBUNarrowPhaseParams@31@AEAUCache@31@AEAVContactBuffer@31@PEAVRenderOutput@Cm@1@@Z 0000000180065c00 f   LowLevel_static_64:PxcContact.obj
 0001:00064c10       ?PxcPCMContactBoxBox@physx@@YA_NAEBVGeometryUnion@Gu@1@0AEBVPxTransform@1@1AEBUNarrowPhaseParams@31@AEAUCache@31@AEAVContactBuffer@31@PEAVRenderOutput@Cm@1@@Z 0000000180065c10 f   LowLevel_static_64:PxcContact.obj
 0001:00064c20       ?PxcPCMContactBoxConvex@physx@@YA_NAEBVGeometryUnion@Gu@1@0AEBVPxTransform@1@1AEBUNarrowPhaseParams@31@AEAUCache@31@AEAVContactBuffer@31@PEAVRenderOutput@Cm@1@@Z 0000000180065c20 f   LowLevel_static_64:PxcContact.obj
 0001:00064c30       ?PxcPCMContactBoxHeightField@physx@@YA_NAEBVGeometryUnion@Gu@1@0AEBVPxTransform@1@1AEBUNarrowPhaseParams@31@AEAUCache@31@AEAVContactBuffer@31@PEAVRenderOutput@Cm@1@@Z 0000000180065c30 f   LowLevel_static_64:PxcContact.obj
 0001:00064c40       ?PxcPCMContactBoxMesh@physx@@YA_NAEBVGeometryUnion@Gu@1@0AEBVPxTransform@1@1AEBUNarrowPhaseParams@31@AEAUCache@31@AEAVContactBuffer@31@PEAVRenderOutput@Cm@1@@Z 0000000180065c40 f   LowLevel_static_64:PxcContact.obj
 0001:00064c50       ?PxcPCMContactConvexConvex@physx@@YA_NAEBVGeometryUnion@Gu@1@0AEBVPxTransform@1@1AEBUNarrowPhaseParams@31@AEAUCache@31@AEAVContactBuffer@31@PEAVRenderOutput@Cm@1@@Z 0000000180065c50 f   LowLevel_static_64:PxcContact.obj
 0001:00064c60       ?PxcPCMContactConvexHeightField@physx@@YA_NAEBVGeometryUnion@Gu@1@0AEBVPxTransform@1@1AEBUNarrowPhaseParams@31@AEAUCache@31@AEAVContactBuffer@31@PEAVRenderOutput@Cm@1@@Z 0000000180065c60 f   LowLevel_static_64:PxcContact.obj
 0001:00064c70       ?PxcPCMContactConvexMesh@physx@@YA_NAEBVGeometryUnion@Gu@1@0AEBVPxTransform@1@1AEBUNarrowPhaseParams@31@AEAUCache@31@AEAVContactBuffer@31@PEAVRenderOutput@Cm@1@@Z 0000000180065c70 f   LowLevel_static_64:PxcContact.obj
 0001:00064c80       ??0PxcNpMemBlockPool@physx@@QEAA@AEAVPxcScratchAllocator@1@@Z 0000000180065c80 f   LowLevel_static_64:PxcNpMemBlockPool.obj
 0001:00064de0       ??1PxcNpMemBlockPool@physx@@QEAA@XZ 0000000180065de0 f   LowLevel_static_64:PxcNpMemBlockPool.obj
 0001:00065120       ?init@PxcNpMemBlockPool@physx@@QEAAXII@Z 0000000180066120 f   LowLevel_static_64:PxcNpMemBlockPool.obj
 0001:000652a0       ?setBlockCount@PxcNpMemBlockPool@physx@@QEAAXI@Z 00000001800662a0 f   LowLevel_static_64:PxcNpMemBlockPool.obj
 0001:00065360       ?getUsedBlockCount@PxcNpMemBlockPool@physx@@QEBAIXZ 0000000180066360 f   LowLevel_static_64:PxcNpMemBlockPool.obj
 0001:00065370       ?getMaxUsedBlockCount@PxcNpMemBlockPool@physx@@QEBAIXZ 0000000180066370 f   LowLevel_static_64:PxcNpMemBlockPool.obj
 0001:00065380       ?getPeakConstraintBlockCount@PxcNpMemBlockPool@physx@@QEBAIXZ 0000000180066380 f   LowLevel_static_64:PxcNpMemBlockPool.obj
 0001:00065390       ?releaseUnusedBlocks@PxcNpMemBlockPool@physx@@QEAAXXZ 0000000180066390 f   LowLevel_static_64:PxcNpMemBlockPool.obj
 0001:00065410       ?acquireConstraintBlock@PxcNpMemBlockPool@physx@@QEAAPEAUPxcNpMemBlock@2@XZ 0000000180066410 f   LowLevel_static_64:PxcNpMemBlockPool.obj
 0001:00065440       ?acquireConstraintBlock@PxcNpMemBlockPool@physx@@QEAAPEAUPxcNpMemBlock@2@AEAV?$Array@PEAUPxcNpMemBlock@physx@@V?$ReflectionAllocator@PEAUPxcNpMemBlock@physx@@@shdfnd@2@@shdfnd@2@@Z 0000000180066440 f   LowLevel_static_64:PxcNpMemBlockPool.obj
 0001:00065470       ?acquireContactBlock@PxcNpMemBlockPool@physx@@QEAAPEAUPxcNpMemBlock@2@XZ 0000000180066470 f   LowLevel_static_64:PxcNpMemBlockPool.obj
 0001:000654a0       ?acquireFrictionBlock@PxcNpMemBlockPool@physx@@QEAAPEAUPxcNpMemBlock@2@XZ 00000001800664a0 f   LowLevel_static_64:PxcNpMemBlockPool.obj
 0001:000654d0       ?acquireNpCacheBlock@PxcNpMemBlockPool@physx@@QEAAPEAUPxcNpMemBlock@2@XZ 00000001800664d0 f   LowLevel_static_64:PxcNpMemBlockPool.obj
 0001:00065500       ?acquireExceptionalConstraintMemory@PxcNpMemBlockPool@physx@@QEAAPEAEI@Z 0000000180066500 f   LowLevel_static_64:PxcNpMemBlockPool.obj
 0001:000655b0       ?acquireConstraintMemory@PxcNpMemBlockPool@physx@@QEAAXXZ 00000001800665b0 f   LowLevel_static_64:PxcNpMemBlockPool.obj
 0001:000656a0       ?releaseConstraintMemory@PxcNpMemBlockPool@physx@@QEAAXXZ 00000001800666a0 f   LowLevel_static_64:PxcNpMemBlockPool.obj
 0001:000658a0       ?releaseConstraintBlocks@PxcNpMemBlockPool@physx@@QEAAXAEAV?$Array@PEAUPxcNpMemBlock@physx@@V?$ReflectionAllocator@PEAUPxcNpMemBlock@physx@@@shdfnd@2@@shdfnd@2@@Z 00000001800668a0 f   LowLevel_static_64:PxcNpMemBlockPool.obj
 0001:00065990       ?releaseContacts@PxcNpMemBlockPool@physx@@QEAAXXZ 0000000180066990 f   LowLevel_static_64:PxcNpMemBlockPool.obj
 0001:000659e0       ?swapFrictionStreams@PxcNpMemBlockPool@physx@@QEAAXXZ 00000001800669e0 f   LowLevel_static_64:PxcNpMemBlockPool.obj
 0001:00065a30       ?swapNpCacheStreams@PxcNpMemBlockPool@physx@@QEAAXXZ 0000000180066a30 f   LowLevel_static_64:PxcNpMemBlockPool.obj
 0001:00065a80       ?flushUnused@PxcNpMemBlockPool@physx@@QEAAXXZ 0000000180066a80 f   LowLevel_static_64:PxcNpMemBlockPool.obj
 0001:00065af0       ?acquire@PxcNpMemBlockPool@physx@@AEAAPEAUPxcNpMemBlock@2@AEAV?$Array@PEAUPxcNpMemBlock@physx@@V?$ReflectionAllocator@PEAUPxcNpMemBlock@physx@@@shdfnd@2@@shdfnd@2@PEAI1_N@Z 0000000180066af0 f   LowLevel_static_64:PxcNpMemBlockPool.obj
 0001:00065cb0       ?release@PxcNpMemBlockPool@physx@@AEAAXAEAV?$Array@PEAUPxcNpMemBlock@physx@@V?$ReflectionAllocator@PEAUPxcNpMemBlock@physx@@@shdfnd@2@@shdfnd@2@PEAI@Z 0000000180066cb0 f   LowLevel_static_64:PxcNpMemBlockPool.obj
 0001:00065d60       ??1?$Array@PEAUPxcNpMemBlock@physx@@V?$ReflectionAllocator@PEAUPxcNpMemBlock@physx@@@shdfnd@2@@shdfnd@physx@@QEAA@XZ 0000000180066d60 f i LowLevel_static_64:PxcNpMemBlockPool.obj
 0001:00065db0       ??_F?$Array@PEAUPxcNpMemBlock@physx@@V?$ReflectionAllocator@PEAUPxcNpMemBlock@physx@@@shdfnd@2@@shdfnd@physx@@QEAAXXZ 0000000180066db0 f i LowLevel_static_64:PxcNpMemBlockPool.obj
 0001:00065dc0       ?allocate@?$Array@PEAUPxcNpMemBlock@physx@@V?$ReflectionAllocator@PEAUPxcNpMemBlock@physx@@@shdfnd@2@@shdfnd@physx@@IEAAPEAPEAUPxcNpMemBlock@3@I@Z 0000000180066dc0 f i LowLevel_static_64:PxcNpMemBlockPool.obj
 0001:00065e60       ?growAndPushBack@?$Array@PEAUPxcNpMemBlock@physx@@V?$ReflectionAllocator@PEAUPxcNpMemBlock@physx@@@shdfnd@2@@shdfnd@physx@@IEAAAEAPEAUPxcNpMemBlock@3@AEBQEAU43@@Z 0000000180066e60 f i LowLevel_static_64:PxcNpMemBlockPool.obj
 0001:00065f20       ?recreate@?$Array@PEAUPxcNpMemBlock@physx@@V?$ReflectionAllocator@PEAUPxcNpMemBlock@physx@@@shdfnd@2@@shdfnd@physx@@IEAAXI@Z 0000000180066f20 f i LowLevel_static_64:PxcNpMemBlockPool.obj
 0001:00065fc0       ?resize@?$Array@PEAUPxcNpMemBlock@physx@@V?$ReflectionAllocator@PEAUPxcNpMemBlock@physx@@@shdfnd@2@@shdfnd@physx@@QEAAXIAEBQEAUPxcNpMemBlock@3@@Z 0000000180066fc0 f i LowLevel_static_64:PxcNpMemBlockPool.obj
 0001:00066080       ??0PxcNpThreadContext@physx@@QEAA@PEAUPxcNpContext@1@@Z 0000000180067080 f   LowLevel_static_64:PxcNpThreadContext.obj
 0001:000661e0       ??1PxcNpThreadContext@physx@@QEAA@XZ 00000001800671e0 f   LowLevel_static_64:PxcNpThreadContext.obj
 0001:000662a0       ?clearStats@PxcNpThreadContext@physx@@QEAAXXZ 00000001800672a0 f   LowLevel_static_64:PxcNpThreadContext.obj
 0001:000662e0       ?reset@PxcNpThreadContext@physx@@QEAAXI@Z 00000001800672e0 f   LowLevel_static_64:PxcNpThreadContext.obj
 0001:00066390       ?resize@?$BitMapBase@VNonTrackingAllocator@shdfnd@physx@@@Cm@physx@@QEAAXI_N@Z 0000000180067390 f i LowLevel_static_64:PxcNpThreadContext.obj
 0001:00066470       ??0PxsContactManager@physx@@QEAA@PEAVPxsContext@1@I@Z 0000000180067470 f   LowLevel_static_64:PxsContactManager.obj
 0001:000664a0       ??1PxsContactManager@physx@@QEAA@XZ 00000001800674a0 f   LowLevel_static_64:PxsContactManager.obj
 0001:000664b0       ?setCCD@PxsContactManager@physx@@QEAAX_N@Z 00000001800674b0 f   LowLevel_static_64:PxsContactManager.obj
 0001:000664e0       ?resetCachedState@PxsContactManager@physx@@QEAAXXZ 00000001800674e0 f   LowLevel_static_64:PxsContactManager.obj
 0001:00066500       ?resetFrictionCachedState@PxsContactManager@physx@@QEAAXXZ 0000000180067500 f   LowLevel_static_64:PxsContactManager.obj
 0001:00066510       ??0PxcNpCacheStreamPair@physx@@QEAA@AEAVPxcNpMemBlockPool@1@@Z 0000000180067510 f   LowLevel_static_64:PxcNpCacheStreamPair.obj
 0001:00066530       ?reserve@PxcNpCacheStreamPair@physx@@QEAAPEAEI@Z 0000000180067530 f   LowLevel_static_64:PxcNpCacheStreamPair.obj
 0001:000665d0       ?reset@PxcNpCacheStreamPair@physx@@QEAAXXZ 00000001800675d0 f   LowLevel_static_64:PxcNpCacheStreamPair.obj
 0001:000665e0       ?resize@ArticulationV@Dy@physx@@UEAA_NI@Z 00000001800675e0 f   LowLevelDynamics_static_64:DyArticulation.obj
 0001:00066620       ??0Articulation@Dy@physx@@QEAA@PEAVArticulationSim@Sc@2@@Z 0000000180067620 f   LowLevelDynamics_static_64:DyArticulation.obj
 0001:000666d0       ??1Articulation@Dy@physx@@UEAA@XZ 00000001800676d0 f   LowLevelDynamics_static_64:DyArticulation.obj
 0001:00066890       ?resize@Articulation@Dy@physx@@UEAA_NI@Z 0000000180067890 f   LowLevelDynamics_static_64:DyArticulation.obj
 0001:00066ac0       ?getDataSizes@Articulation@Dy@physx@@UEAAXIAEAI00@Z 0000000180067ac0 f   LowLevelDynamics_static_64:DyArticulation.obj
 0001:00066b00       ?getImpulseResponse@Articulation@Dy@physx@@UEBAXIPEAUSpatialVectorF@Cm@3@AEBVSpatialVector@53@AEAV653@@Z 0000000180067b00 f   LowLevelDynamics_static_64:DyArticulation.obj
 0001:00066b20       ?getImpulseSelfResponse@Articulation@Dy@physx@@UEBAXIIPEAUSpatialVectorF@Cm@3@AEBVSpatialVector@53@1AEAV653@2@Z 0000000180067b20 f   LowLevelDynamics_static_64:DyArticulation.obj
 0001:00066b70       ?getLinkVelocity@Articulation@Dy@physx@@UEBA?AUSpatialVectorV@Cm@3@I@Z 0000000180067b70 f   LowLevelDynamics_static_64:DyArticulation.obj
 0001:00066ba0       ?getLinkMotionVector@Articulation@Dy@physx@@UEBA?AUSpatialVectorV@Cm@3@I@Z 0000000180067ba0 f   LowLevelDynamics_static_64:DyArticulation.obj
 0001:00066be0       ?getMotionVelocity@Articulation@Dy@physx@@UEBA?AVSpatialVector@Cm@3@I@Z 0000000180067be0 f   LowLevelDynamics_static_64:DyArticulation.obj
 0001:00066c40       ?getLinkMaxPenBias@Articulation@Dy@physx@@UEBAMI@Z 0000000180067c40 f   LowLevelDynamics_static_64:DyArticulation.obj
 0001:00066c80       ?computeUnconstrainedVelocities@Articulation@Dy@physx@@SAIAEBUArticulationSolverDesc@23@MAEAVPxConstraintAllocator@3@PEAUPxSolverConstraintDesc@3@AEAIAEBVPxVec3@3@_KPEAUSpatialVectorF@Cm@3@6@Z 0000000180067c80 f   LowLevelDynamics_static_64:DyArticulation.obj
 0001:00066d70       ?computeUnconstrainedVelocitiesTGS@Articulation@Dy@physx@@SAXAEBUArticulationSolverDesc@23@MAEBVPxVec3@3@_KPEAUSpatialVectorF@Cm@3@3@Z 0000000180067d70 f   LowLevelDynamics_static_64:DyArticulation.obj
 0001:00066de0       ?saveVelocity@Articulation@Dy@physx@@SAXAEBUArticulationSolverDesc@23@PEAUSpatialVectorF@Cm@3@@Z 0000000180067de0 f   LowLevelDynamics_static_64:DyArticulation.obj
 0001:00066f70       ?saveVelocityTGS@Articulation@Dy@physx@@SAXAEBUArticulationSolverDesc@23@M@Z 0000000180067f70 f   LowLevelDynamics_static_64:DyArticulation.obj
 0001:00067130       ?updateBodies@Articulation@Dy@physx@@SAXAEBUArticulationSolverDesc@23@M@Z 0000000180068130 f   LowLevelDynamics_static_64:DyArticulation.obj
 0001:00068320       ?recordDeltaMotion@Articulation@Dy@physx@@SAXAEBUArticulationSolverDesc@23@MPEAUSpatialVectorF@Cm@3@@Z 0000000180069320 f   LowLevelDynamics_static_64:DyArticulation.obj
 0001:00068610       ?deltaMotionToMotionVelocity@Articulation@Dy@physx@@SAXAEBUArticulationSolverDesc@23@M@Z 0000000180069610 f   LowLevelDynamics_static_64:DyArticulation.obj
 0001:000686a0       ?pxcFsApplyImpulse@Articulation@Dy@physx@@UEAAXIT__m128@@0PEAUSpatialVectorF@Cm@3@1@Z 00000001800696a0 f   LowLevelDynamics_static_64:DyArticulation.obj
 0001:00068820       ?pxcFsApplyImpulses@Articulation@Dy@physx@@UEAAXIAEBT__m128@@0I00PEAUSpatialVectorF@Cm@3@1@Z 0000000180069820 f   LowLevelDynamics_static_64:DyArticulation.obj
 0001:000688d0       ?solveInternalConstraints@Articulation@Dy@physx@@UEAAXMMPEAUSpatialVectorF@Cm@3@0_N@Z 00000001800698d0 f   LowLevelDynamics_static_64:DyArticulation.obj
 0001:000688e0       ?pxcFsGetVelocity@Articulation@Dy@physx@@UEAA?AUSpatialVectorV@Cm@3@I@Z 00000001800698e0 f   LowLevelDynamics_static_64:DyArticulation.obj
 0001:00068e30       ?pxcFsGetVelocities@Articulation@Dy@physx@@UEAAXIIAEAUSpatialVectorV@Cm@3@0@Z 0000000180069e30 f   LowLevelDynamics_static_64:DyArticulation.obj
 0001:00068eb0       ?prepareDataBlock@Articulation@Dy@physx@@SAXAEAUFsData@23@PEBUArticulationLink@23@GPEAVPxTransform@3@PEAVPxQuat@3@PEAUFsInertia@23@PEAUArticulationJointTransforms@23@I@Z 0000000180069eb0 f   LowLevelDynamics_static_64:DyArticulation.obj
 0001:00069600       ?prepareFsData@Articulation@Dy@physx@@SAXAEAUFsData@23@PEBUArticulationLink@23@@Z 000000018006a600 f   LowLevelDynamics_static_64:DyArticulation.obj
 0001:000697b0       ?getResistance@Articulation@Dy@physx@@SAMM@Z 000000018006a7b0 f   LowLevelDynamics_static_64:DyArticulation.obj
 0001:000697d0       ?getFsDataSize@Articulation@Dy@physx@@SAII@Z 000000018006a7d0 f   LowLevelDynamics_static_64:DyArticulation.obj
 0001:000697f0       ?getLtbDataSize@Articulation@Dy@physx@@SAII@Z 000000018006a7f0 f   LowLevelDynamics_static_64:DyArticulation.obj
 0001:00069800       ?setInertia@Articulation@Dy@physx@@SAXAEAUFsInertia@23@AEBUPxsBodyCore@3@AEBVPxTransform@3@@Z 000000018006a800 f   LowLevelDynamics_static_64:DyArticulation.obj
 0001:00069bc0       ?setJointTransforms@Articulation@Dy@physx@@SAXAEAUArticulationJointTransforms@23@AEBVPxTransform@3@1AEBUArticulationJointCore@23@@Z 000000018006abc0 f   LowLevelDynamics_static_64:DyArticulation.obj
 0001:0006a100       ?applyImpulses@Articulation@Dy@physx@@SAXAEBUFsData@23@PEAUSpatialVectorV@Cm@3@1@Z 000000018006b100 f   LowLevelDynamics_static_64:DyArticulation.obj
 0001:0006a610       ?computeUnconstrainedVelocitiesInternal@Articulation@Dy@physx@@AEAAXAEBUArticulationSolverDesc@23@MAEBVPxVec3@3@_KPEIAUFsInertia@23@PEIAUArticulationJointTransforms@23@AEAUPxcFsScratchAllocator@23@@Z 000000018006b610 f   LowLevelDynamics_static_64:DyArticulation.obj
 0001:0006aec0       ?prepareLtbMatrix@Articulation@Dy@physx@@AEAAXAEAUFsData@23@PEBUFsInertia@23@PEBVPxTransform@3@PEBUArticulationJointTransforms@23@M@Z 000000018006bec0 f   LowLevelDynamics_static_64:DyArticulation.obj
 0001:0006b240       ?computeJointDrives@Articulation@Dy@physx@@AEAAXAEAUFsData@23@PEAT__m128@@PEBUArticulationLink@23@PEBVPxTransform@3@PEBUArticulationJointTransforms@23@PEBUMat33V@aos@shdfnd@3@M@Z 000000018006c240 f   LowLevelDynamics_static_64:DyArticulation.obj
 0001:0006b860       ?initialize@PxvArticulationDriveCache@Dy@physx@@SAXAEAUFsData@23@GPEBUArticulationLink@23@MIPEADI@Z 000000018006c860 f   LowLevelDynamics_static_64:DyArticulation.obj
 0001:0006baa0       ?getLinkCount@PxvArticulationDriveCache@Dy@physx@@SAIAEBUFsData@23@@Z 000000018006caa0 f   LowLevelDynamics_static_64:DyArticulation.obj
 0001:0006bab0       ?applyImpulses@PxvArticulationDriveCache@Dy@physx@@SAXAEBUFsData@23@PEAUSpatialVectorV@Cm@3@1@Z 000000018006cab0 f   LowLevelDynamics_static_64:DyArticulation.obj
 0001:0006bac0       ?getImpulseResponse@PxvArticulationDriveCache@Dy@physx@@SAXAEBUFsData@23@IAEBUSpatialVectorV@Cm@3@AEAU563@@Z 000000018006cac0 f   LowLevelDynamics_static_64:DyArticulation.obj
 0001:0006bad0       ?PxvRegisterArticulations@Dy@physx@@YAXXZ 000000018006cad0 f   LowLevelDynamics_static_64:DyArticulation.obj
 0001:0006bb60       ?PxcLtbFactor@Dy@physx@@YAXAEAUFsData@12@@Z 000000018006cb60 f   LowLevelDynamics_static_64:DyArticulation.obj
 0001:0006cc60       ?PxcLtbComputeJv@Dy@physx@@YAXPEAT__m128@@AEBUFsData@12@PEBUSpatialVectorV@Cm@2@@Z 000000018006dc60 f   LowLevelDynamics_static_64:DyArticulation.obj
 0001:0006cd20       ?PxcLtbSolve@Dy@physx@@YAXAEBUFsData@12@PEAT__m128@@PEAUSpatialVectorV@Cm@2@@Z 000000018006dd20 f   LowLevelDynamics_static_64:DyArticulation.obj
 0001:0006d2e0       ?PxcLtbProject@Dy@physx@@YAXAEBUFsData@12@PEAUSpatialVectorV@Cm@2@PEAT__m128@@@Z 000000018006e2e0 f   LowLevelDynamics_static_64:DyArticulation.obj
 0001:0006d360       ?PxcFsComputeJointLoadsSimd@Dy@physx@@YAXAEBUFsData@12@PEIBUFsInertia@12@PEIAUMat33V@aos@shdfnd@2@PEIBMIIUPxcFsScratchAllocator@12@@Z 000000018006e360 f   LowLevelDynamics_static_64:DyArticulation.obj
 0001:0006f3b0       ?PxcFsPropagateDrivenInertiaSimd@Dy@physx@@YAXAEAUFsData@12@PEBUFsInertia@12@PEBMPEBUMat33V@aos@shdfnd@2@UPxcFsScratchAllocator@12@@Z 00000001800703b0 f   LowLevelDynamics_static_64:DyArticulation.obj
 0001:000703d0       ?PxcFsApplyJointDrives@Dy@physx@@YAXAEAUFsData@12@PEBT__m128@@@Z 00000001800713d0 f   LowLevelDynamics_static_64:DyArticulation.obj
 0001:000708c0       ??0SpatialVectorV@Cm@physx@@QEAA@XZ 00000001800718c0 f i LowLevelDynamics_static_64:DyArticulation.obj
 0001:000708d0       ??1ArticulationV@Dy@physx@@UEAA@XZ 00000001800718d0 f i LowLevelDynamics_static_64:DyArticulation.obj
 0001:00070930       ??1SpatialVector@Cm@physx@@QEAA@XZ 0000000180071930 f i LowLevelDynamics_static_64:DyArticulation.obj
 0001:00070940       ??_GArticulation@Dy@physx@@UEAAPEAXI@Z 0000000180071940 f i LowLevelDynamics_static_64:DyArticulation.obj
 0001:00070940       ??_EArticulation@Dy@physx@@UEAAPEAXI@Z 0000000180071940 f i LowLevelDynamics_static_64:DyArticulation.obj
 0001:00070980       ??_GArticulationV@Dy@physx@@UEAAPEAXI@Z 0000000180071980 f i LowLevelDynamics_static_64:DyArticulation.obj
 0001:00070980       ??_EArticulationV@Dy@physx@@UEAAPEAXI@Z 0000000180071980 f i LowLevelDynamics_static_64:DyArticulation.obj
 0001:00070a00       ?addBody@ArticulationV@Dy@physx@@UEAAXXZ 0000000180071a00 f i LowLevelDynamics_static_64:DyArticulation.obj
 0001:00070a70       ?applyCache@ArticulationV@Dy@physx@@UEAAXAEAVPxArticulationCache@3@V?$PxFlags@W4Enum@PxArticulationCache@physx@@E@3@@Z 0000000180071a70 f i LowLevelDynamics_static_64:DyArticulation.obj
 0001:00070a80       ?computeSIS@ArticulationFnsSimdBase@Dy@physx@@SA?AUMat33V@aos@shdfnd@3@AEBUFsInertia@23@QEBUSpatialVectorV@Cm@3@QEAU893@@Z 0000000180071a80 f i LowLevelDynamics_static_64:DyArticulation.obj
 0001:00070fa0       ?copyInternalStateToCache@ArticulationV@Dy@physx@@UEAAXAEAVPxArticulationCache@3@V?$PxFlags@W4Enum@PxArticulationCache@physx@@E@3@@Z 0000000180071fa0 f i LowLevelDynamics_static_64:DyArticulation.obj
 0001:00070fb0       ?getCoefficentMatrix@ArticulationV@Dy@physx@@UEAAXMIPEBVPxContactJoint@3@IAEAVPxArticulationCache@3@@Z 0000000180071fb0 f i LowLevelDynamics_static_64:DyArticulation.obj
 0001:00070fc0       ?getCoefficentMatrixWithLoopJoints@ArticulationV@Dy@physx@@UEAAXPEAUArticulationLoopConstraint@23@IAEAVPxArticulationCache@3@@Z 0000000180071fc0 f i LowLevelDynamics_static_64:DyArticulation.obj
 0001:00070fd0       ?getCoriolisAndCentrifugalForce@ArticulationV@Dy@physx@@UEAAXAEAVPxArticulationCache@3@@Z 0000000180071fd0 f i LowLevelDynamics_static_64:DyArticulation.obj
 0001:00070fe0       ?getCurrentTransform@Articulation@Dy@physx@@UEBAAEBVPxTransform@3@I@Z 0000000180071fe0 f i LowLevelDynamics_static_64:DyArticulation.obj
 0001:00070ff0       ?getDeltaQ@Articulation@Dy@physx@@UEBAAEBVPxQuat@3@I@Z 0000000180071ff0 f i LowLevelDynamics_static_64:DyArticulation.obj
 0001:00071000       ?getDof@ArticulationV@Dy@physx@@UEAAII@Z 0000000180072000 f i LowLevelDynamics_static_64:DyArticulation.obj
 0001:00071010       ?getDofs@ArticulationV@Dy@physx@@UEAAIXZ 0000000180072010 f i LowLevelDynamics_static_64:DyArticulation.obj
 0001:00071020       ?getGeneralizedExternalForce@ArticulationV@Dy@physx@@UEAAXAEAVPxArticulationCache@3@@Z 0000000180072020 f i LowLevelDynamics_static_64:DyArticulation.obj
 0001:00071030       ?getGeneralizedGravityForce@ArticulationV@Dy@physx@@UEAAXAEBVPxVec3@3@AEAVPxArticulationCache@3@@Z 0000000180072030 f i LowLevelDynamics_static_64:DyArticulation.obj
 0001:00071040       ?getGeneralizedMassMatrix@ArticulationV@Dy@physx@@UEAAXAEAVPxArticulationCache@3@@Z 0000000180072040 f i LowLevelDynamics_static_64:DyArticulation.obj
 0001:00071050       ?getGeneralizedMassMatrixCRB@ArticulationV@Dy@physx@@UEAAXAEAVPxArticulationCache@3@@Z 0000000180072050 f i LowLevelDynamics_static_64:DyArticulation.obj
 0001:00071060       ?getJointAcceleration@ArticulationV@Dy@physx@@UEAAXAEBVPxVec3@3@AEAVPxArticulationCache@3@@Z 0000000180072060 f i LowLevelDynamics_static_64:DyArticulation.obj
 0001:00071070       ?getJointForce@ArticulationV@Dy@physx@@UEAAXAEAVPxArticulationCache@3@@Z 0000000180072070 f i LowLevelDynamics_static_64:DyArticulation.obj
 0001:00071080       ?getKinematicJacobian@ArticulationV@Dy@physx@@UEAAXIAEAVPxArticulationCache@3@@Z 0000000180072080 f i LowLevelDynamics_static_64:DyArticulation.obj
 0001:00071090       ?getLambda@ArticulationV@Dy@physx@@UEAA_NPEAUArticulationLoopConstraint@23@IAEAVPxArticulationCache@3@1PEBMAEBVPxVec3@3@I@Z 0000000180072090 f i LowLevelDynamics_static_64:DyArticulation.obj
 0001:000710a0       ?growAndPushBack@?$Array@VSpatialVector@Cm@physx@@V?$ReflectionAllocator@VSpatialVector@Cm@physx@@@shdfnd@3@@shdfnd@physx@@IEAAAEAVSpatialVector@Cm@3@AEBV453@@Z 00000001800720a0 f i LowLevelDynamics_static_64:DyArticulation.obj
 0001:00071370       ?initializeCommonData@ArticulationV@Dy@physx@@UEAAXXZ 0000000180072370 f i LowLevelDynamics_static_64:DyArticulation.obj
 0001:00071380       ?onUpdateSolverDesc@Articulation@Dy@physx@@UEAAXXZ 0000000180072380 f i LowLevelDynamics_static_64:DyArticulation.obj
 0001:000713d0       ?onUpdateSolverDesc@ArticulationV@Dy@physx@@UEAAXXZ 00000001800723d0 f i LowLevelDynamics_static_64:DyArticulation.obj
 0001:000713e0       ?packJointData@ArticulationV@Dy@physx@@UEAAXPEBMPEAM@Z 00000001800723e0 f i LowLevelDynamics_static_64:DyArticulation.obj
 0001:000713f0       ?pxcFsGetVelocityTGS@Articulation@Dy@physx@@UEAA?AUSpatialVectorV@Cm@3@I@Z 00000001800723f0 f i LowLevelDynamics_static_64:DyArticulation.obj
 0001:00071410       ?recreate@?$Array@UMat33V@aos@shdfnd@physx@@V?$ReflectionAllocator@UMat33V@aos@shdfnd@physx@@@34@@shdfnd@physx@@IEAAXI@Z 0000000180072410 f i LowLevelDynamics_static_64:DyArticulation.obj
 0001:00071540       ?recreate@?$Array@USpatialVectorV@Cm@physx@@V?$ReflectionAllocator@USpatialVectorV@Cm@physx@@@shdfnd@3@@shdfnd@physx@@IEAAXI@Z 0000000180072540 f i LowLevelDynamics_static_64:DyArticulation.obj
 0001:00071660       ?recreate@?$Array@VPxQuat@physx@@V?$ReflectionAllocator@VPxQuat@physx@@@shdfnd@2@@shdfnd@physx@@IEAAXI@Z 0000000180072660 f i LowLevelDynamics_static_64:DyArticulation.obj
 0001:00071830       ?recreate@?$Array@VPxTransform@physx@@V?$ReflectionAllocator@VPxTransform@physx@@@shdfnd@2@@shdfnd@physx@@IEAAXI@Z 0000000180072830 f i LowLevelDynamics_static_64:DyArticulation.obj
 0001:00071a70       ?removeBody@ArticulationV@Dy@physx@@UEAAXXZ 0000000180072a70 f i LowLevelDynamics_static_64:DyArticulation.obj
 0001:00071a80       ?resize@?$Array@DV?$ReflectionAllocator@D@shdfnd@physx@@@shdfnd@physx@@QEAAXIAEBD@Z 0000000180072a80 f i LowLevelDynamics_static_64:DyArticulation.obj
 0001:00071b40       ?resize@?$Array@UMat33V@aos@shdfnd@physx@@V?$ReflectionAllocator@UMat33V@aos@shdfnd@physx@@@34@@shdfnd@physx@@QEAAXIAEBUMat33V@aos@23@@Z 0000000180072b40 f i LowLevelDynamics_static_64:DyArticulation.obj
 0001:00071bd0       ?resize@?$Array@USpatialVectorV@Cm@physx@@V?$ReflectionAllocator@USpatialVectorV@Cm@physx@@@shdfnd@3@@shdfnd@physx@@QEAAXIAEBUSpatialVectorV@Cm@3@@Z 0000000180072bd0 f i LowLevelDynamics_static_64:DyArticulation.obj
 0001:00071c40       ?resize@?$Array@VPxQuat@physx@@V?$ReflectionAllocator@VPxQuat@physx@@@shdfnd@2@@shdfnd@physx@@QEAAXIAEBVPxQuat@3@@Z 0000000180072c40 f i LowLevelDynamics_static_64:DyArticulation.obj
 0001:00071d60       ?resize@?$Array@VPxTransform@physx@@V?$ReflectionAllocator@VPxTransform@physx@@@shdfnd@2@@shdfnd@physx@@QEAAXIAEBVPxTransform@3@@Z 0000000180072d60 f i LowLevelDynamics_static_64:DyArticulation.obj
 0001:00071ee0       ?teleportRootLink@ArticulationV@Dy@physx@@UEAAXXZ 0000000180072ee0 f i LowLevelDynamics_static_64:DyArticulation.obj
 0001:00071ef0       ?unpackJointData@ArticulationV@Dy@physx@@UEAAXPEBMPEAM@Z 0000000180072ef0 f i LowLevelDynamics_static_64:DyArticulation.obj
 0001:00071f00       ?setJointPose@ArticulationJointCore@Dy@physx@@QEAAXAEAVArticulationJointCoreData@23@@Z 0000000180072f00 f   LowLevelDynamics_static_64:DyFeatherstoneArticulation.obj
 0001:000726a0       ??1ArticulationData@Dy@physx@@QEAA@XZ 00000001800736a0 f   LowLevelDynamics_static_64:DyFeatherstoneArticulation.obj
 0001:00072a50       ?getLinkData@ArticulationData@Dy@physx@@QEBAAEAVArticulationLinkData@23@I@Z 0000000180073a50 f   LowLevelDynamics_static_64:DyFeatherstoneArticulation.obj
 0001:00072a70       ??0FeatherstoneArticulation@Dy@physx@@QEAA@PEAVArticulationSim@Sc@2@@Z 0000000180073a70 f   LowLevelDynamics_static_64:DyFeatherstoneArticulation.obj
 0001:00072bf0       ??1FeatherstoneArticulation@Dy@physx@@UEAA@XZ 0000000180073bf0 f   LowLevelDynamics_static_64:DyFeatherstoneArticulation.obj
 0001:00072ca0       ?getDataSizes@FeatherstoneArticulation@Dy@physx@@UEAAXIAEAI00@Z 0000000180073ca0 f   LowLevelDynamics_static_64:DyFeatherstoneArticulation.obj
 0001:00072cc0       ?resize@FeatherstoneArticulation@Dy@physx@@UEAA_NI@Z 0000000180073cc0 f   LowLevelDynamics_static_64:DyFeatherstoneArticulation.obj
 0001:00073150       ?onUpdateSolverDesc@FeatherstoneArticulation@Dy@physx@@UEAAXXZ 0000000180074150 f   LowLevelDynamics_static_64:DyFeatherstoneArticulation.obj
 0001:000731a0       ?getDofs@FeatherstoneArticulation@Dy@physx@@UEAAIXZ 00000001800741a0 f   LowLevelDynamics_static_64:DyFeatherstoneArticulation.obj
 0001:000731d0       ?getDof@FeatherstoneArticulation@Dy@physx@@UEAAII@Z 00000001800741d0 f   LowLevelDynamics_static_64:DyFeatherstoneArticulation.obj
 0001:000731f0       ?applyCache@FeatherstoneArticulation@Dy@physx@@UEAAXAEAVPxArticulationCache@3@V?$PxFlags@W4Enum@PxArticulationCache@physx@@E@3@@Z 00000001800741f0 f   LowLevelDynamics_static_64:DyFeatherstoneArticulation.obj
 0001:00073250       ?copyInternalStateToCache@FeatherstoneArticulation@Dy@physx@@UEAAXAEAVPxArticulationCache@3@V?$PxFlags@W4Enum@PxArticulationCache@physx@@E@3@@Z 0000000180074250 f   LowLevelDynamics_static_64:DyFeatherstoneArticulation.obj
 0001:00073600       ?teleportRootLink@FeatherstoneArticulation@Dy@physx@@UEAAXXZ 0000000180074600 f   LowLevelDynamics_static_64:DyFeatherstoneArticulation.obj
 0001:00074330       ?getImpulseResponse@FeatherstoneArticulation@Dy@physx@@UEBAXIPEAUSpatialVectorF@Cm@3@AEBVSpatialVector@53@AEAV653@@Z 0000000180075330 f   LowLevelDynamics_static_64:DyFeatherstoneArticulation.obj
 0001:00074850       ?getImpulseSelfResponse@FeatherstoneArticulation@Dy@physx@@UEBAXIIPEAUSpatialVectorF@Cm@3@AEBVSpatialVector@53@1AEAV653@2@Z 0000000180075850 f   LowLevelDynamics_static_64:DyFeatherstoneArticulation.obj
 0001:000748d0       ?getLinkVelocity@FeatherstoneArticulation@Dy@physx@@UEBA?AUSpatialVectorV@Cm@3@I@Z 00000001800758d0 f   LowLevelDynamics_static_64:DyFeatherstoneArticulation.obj
 0001:00074910       ?getLinkMotionVector@FeatherstoneArticulation@Dy@physx@@UEBA?AUSpatialVectorV@Cm@3@I@Z 0000000180075910 f   LowLevelDynamics_static_64:DyFeatherstoneArticulation.obj
 0001:00074950       ?getMotionVelocity@FeatherstoneArticulation@Dy@physx@@UEBA?AVSpatialVector@Cm@3@I@Z 0000000180075950 f   LowLevelDynamics_static_64:DyFeatherstoneArticulation.obj
 0001:000749a0       ?getLinkMaxPenBias@FeatherstoneArticulation@Dy@physx@@UEBAMI@Z 00000001800759a0 f   LowLevelDynamics_static_64:DyFeatherstoneArticulation.obj
 0001:000749c0       ?setupSolverConstraintsTGS@FeatherstoneArticulation@Dy@physx@@SAIAEBUArticulationSolverDesc@23@AEAVPxcConstraintBlockStream@3@PEAUPxTGSSolverConstraintDesc@23@MMMAEAIAEAVPxsConstraintBlockManager@3@PEAUSpatialVectorF@Cm@3@@Z 00000001800759c0 f   LowLevelDynamics_static_64:DyFeatherstoneArticulation.obj
 0001:00074a60       ?saveVelocity@FeatherstoneArticulation@Dy@physx@@SAXAEBUArticulationSolverDesc@23@PEAUSpatialVectorF@Cm@3@@Z 0000000180075a60 f   LowLevelDynamics_static_64:DyFeatherstoneArticulation.obj
 0001:00074ad0       ?saveVelocityTGS@FeatherstoneArticulation@Dy@physx@@SAXAEBUArticulationSolverDesc@23@M@Z 0000000180075ad0 f   LowLevelDynamics_static_64:DyFeatherstoneArticulation.obj
 0001:00074ae0       ?recordDeltaMotion@FeatherstoneArticulation@Dy@physx@@SAXAEBUArticulationSolverDesc@23@MPEAUSpatialVectorF@Cm@3@@Z 0000000180075ae0 f   LowLevelDynamics_static_64:DyFeatherstoneArticulation.obj
 0001:000752f0       ?deltaMotionToMotionVelocity@FeatherstoneArticulation@Dy@physx@@SAXAEBUArticulationSolverDesc@23@M@Z 00000001800762f0 f   LowLevelDynamics_static_64:DyFeatherstoneArticulation.obj
 0001:00075790       ?pxcFsApplyImpulse@FeatherstoneArticulation@Dy@physx@@UEAAXIT__m128@@0PEAUSpatialVectorF@Cm@3@1@Z 0000000180076790 f   LowLevelDynamics_static_64:DyFeatherstoneArticulation.obj
 0001:00075bd0       ?pxcFsApplyImpulses@FeatherstoneArticulation@Dy@physx@@UEAAXIAEBT__m128@@0I00PEAUSpatialVectorF@Cm@3@1@Z 0000000180076bd0 f   LowLevelDynamics_static_64:DyFeatherstoneArticulation.obj
 0001:00076800       ?pxcFsApplyImpulses@FeatherstoneArticulation@Dy@physx@@UEAAXPEAUSpatialVectorF@Cm@3@@Z 0000000180077800 f   LowLevelDynamics_static_64:DyFeatherstoneArticulation.obj
 0001:00076a00       ?pxcFsGetVelocity@FeatherstoneArticulation@Dy@physx@@UEAA?AUSpatialVectorV@Cm@3@I@Z 0000000180077a00 f   LowLevelDynamics_static_64:DyFeatherstoneArticulation.obj
 0001:00077170       ?pxcFsGetVelocities@FeatherstoneArticulation@Dy@physx@@UEAAXIIAEAUSpatialVectorV@Cm@3@0@Z 0000000180078170 f   LowLevelDynamics_static_64:DyFeatherstoneArticulation.obj
 0001:00077e30       ?pxcFsGetVelocityTGS@FeatherstoneArticulation@Dy@physx@@UEAA?AUSpatialVectorV@Cm@3@I@Z 0000000180078e30 f   LowLevelDynamics_static_64:DyFeatherstoneArticulation.obj
 0001:00077e60       ?getCurrentTransform@FeatherstoneArticulation@Dy@physx@@UEBAAEBVPxTransform@3@I@Z 0000000180078e60 f   LowLevelDynamics_static_64:DyFeatherstoneArticulation.obj
 0001:00077e80       ?getDeltaQ@FeatherstoneArticulation@Dy@physx@@UEBAAEBVPxQuat@3@I@Z 0000000180078e80 f   LowLevelDynamics_static_64:DyFeatherstoneArticulation.obj
 0001:00077ea0       ?applyImpulses@FeatherstoneArticulation@Dy@physx@@QEAAXPEAUSpatialVectorF@Cm@3@0@Z 0000000180078ea0 f   LowLevelDynamics_static_64:DyFeatherstoneArticulation.obj
 0001:00077fd0       ?getDeltaV@FeatherstoneArticulation@Dy@physx@@QEAAXPEAUSpatialVectorF@Cm@3@0@Z 0000000180078fd0 f   LowLevelDynamics_static_64:DyFeatherstoneArticulation.obj
 0001:00078930       ?propagateVelocity@FeatherstoneArticulation@Dy@physx@@SA?AUSpatialVectorF@Cm@3@AEBVArticulationLinkData@23@AEBVArticulationJointCoreData@23@AEBU453@PEAM2@Z 0000000180079930 f   LowLevelDynamics_static_64:DyFeatherstoneArticulation.obj
 0001:000793e0       ?propagateVelocityTestImpulse@FeatherstoneArticulation@Dy@physx@@SA?AUSpatialVectorF@Cm@3@AEBVArticulationLinkData@23@AEBVArticulationJointCoreData@23@AEBU453@2@Z 000000018007a3e0 f   LowLevelDynamics_static_64:DyFeatherstoneArticulation.obj
 0001:00079e50       ?propagateImpulse@FeatherstoneArticulation@Dy@physx@@SA?AUSpatialVectorF@Cm@3@AEBVArticulationLinkData@23@AEBVArticulationJointCoreData@23@AEBU453@@Z 000000018007ae50 f   LowLevelDynamics_static_64:DyFeatherstoneArticulation.obj
 0001:0007a7e0       ?copyJointData@FeatherstoneArticulation@Dy@physx@@AEAAXAEAVArticulationData@23@PEAM1@Z 000000018007b7e0 f   LowLevelDynamics_static_64:DyFeatherstoneArticulation.obj
 0001:0007a870       ?computeDofs@FeatherstoneArticulation@Dy@physx@@AEAAXXZ 000000018007b870 f   LowLevelDynamics_static_64:DyFeatherstoneArticulation.obj
 0001:0007ab80       ?jcalc@FeatherstoneArticulation@Dy@physx@@AEAAXAEAVArticulationData@23@@Z 000000018007bb80 f   LowLevelDynamics_static_64:DyFeatherstoneArticulation.obj
 0001:0007b040       ?computeSpatialInertia@FeatherstoneArticulation@Dy@physx@@AEAAXAEAVArticulationData@23@@Z 000000018007c040 f   LowLevelDynamics_static_64:DyFeatherstoneArticulation.obj
 0001:0007b260       ?computeZ@FeatherstoneArticulation@Dy@physx@@AEAAXAEAVArticulationData@23@AEBVPxVec3@3@AEAUScratchData@23@@Z 000000018007c260 f   LowLevelDynamics_static_64:DyFeatherstoneArticulation.obj
 0001:0007b940       ?computeD@FeatherstoneArticulation@Dy@physx@@AEAAXAEAVArticulationData@23@AEAUScratchData@23@PEAUSpatialVectorF@Cm@3@2@Z 000000018007c940 f   LowLevelDynamics_static_64:DyFeatherstoneArticulation.obj
 0001:0007c090       ?solveInternalConstraints@FeatherstoneArticulation@Dy@physx@@EEAAXMMPEAUSpatialVectorF@Cm@3@0_N@Z 000000018007d090 f   LowLevelDynamics_static_64:DyFeatherstoneArticulation.obj
 0001:0007dfa0       ?computeC@FeatherstoneArticulation@Dy@physx@@AEAAXAEAVArticulationData@23@AEAUScratchData@23@@Z 000000018007efa0 f   LowLevelDynamics_static_64:DyFeatherstoneArticulation.obj
 0001:0007e730       ?computeRelativeTransformC2P@FeatherstoneArticulation@Dy@physx@@AEAAXAEAVArticulationData@23@@Z 000000018007f730 f   LowLevelDynamics_static_64:DyFeatherstoneArticulation.obj
 0001:0007ecd0       ?computeRelativeTransformC2B@FeatherstoneArticulation@Dy@physx@@AEAAXAEAVArticulationData@23@@Z 000000018007fcd0 f   LowLevelDynamics_static_64:DyFeatherstoneArticulation.obj
 0001:0007f1b0       ?computeLinkVelocities@FeatherstoneArticulation@Dy@physx@@AEAAXAEAVArticulationData@23@AEAUScratchData@23@@Z 00000001800801b0 f   LowLevelDynamics_static_64:DyFeatherstoneArticulation.obj
 0001:0007f9c0       ?transformInertia@FeatherstoneArticulation@Dy@physx@@AEAAXAEBUSpatialTransform@23@AEAUSpatialMatrix@23@@Z 00000001800809c0 f   LowLevelDynamics_static_64:DyFeatherstoneArticulation.obj
 0001:00081010       ?getDeltaVWithDeltaJV@FeatherstoneArticulation@Dy@physx@@CA?AUSpatialVectorF@Cm@3@_NIAEBVArticulationData@23@PEAU453@PEAM@Z 0000000180082010 f   LowLevelDynamics_static_64:DyFeatherstoneArticulation.obj
 0001:000815b0       ?getDeltaV@FeatherstoneArticulation@Dy@physx@@CA?AUSpatialVectorF@Cm@3@_NIAEBVArticulationData@23@PEAU453@@Z 00000001800825b0 f   LowLevelDynamics_static_64:DyFeatherstoneArticulation.obj
 0001:00081b20       ?getZ@FeatherstoneArticulation@Dy@physx@@CAXIAEBVArticulationData@23@PEAUSpatialVectorF@Cm@3@AEBU563@@Z 0000000180082b20 f   LowLevelDynamics_static_64:DyFeatherstoneArticulation.obj
 0001:00081c70       ?getImpulseResponse@FeatherstoneArticulation@Dy@physx@@CA?AUSpatialVectorF@Cm@3@I_NAEBVArticulationData@23@PEAU453@AEBU453@@Z 0000000180082c70 f   LowLevelDynamics_static_64:DyFeatherstoneArticulation.obj
 0001:00081cf0       ?getImpulseResponseWithJ@FeatherstoneArticulation@Dy@physx@@CA?AUSpatialVectorF@Cm@3@I_NAEBVArticulationData@23@PEAU453@AEBU453@PEAM@Z 0000000180082cf0 f   LowLevelDynamics_static_64:DyFeatherstoneArticulation.obj
 0001:00081d80       ?getImpulseSelfResponse@FeatherstoneArticulation@Dy@physx@@SAXPEAUArticulationLink@23@_NPEAUSpatialVectorF@Cm@3@AEBVArticulationData@23@IAEBUSpatialVectorV@63@AEAU863@I45@Z 0000000180082d80 f   LowLevelDynamics_static_64:DyFeatherstoneArticulation.obj
 0001:000829a0       ?createHardLimit@FeatherstoneArticulation@Dy@physx@@QEAAXPEAUArticulationLink@23@_NPEAUSpatialVectorF@Cm@3@AEAVArticulationData@23@IAEAUSolverConstraint1DExt@23@AEBVPxVec3@3@MM@Z 00000001800839a0 f   LowLevelDynamics_static_64:DyFeatherstoneArticulation.obj
 0001:00082be0       ?createHardLimits@FeatherstoneArticulation@Dy@physx@@QEAAXAEAUSolverConstraint1DExt@23@0AEBVPxVec3@3@MMMAEBUSpatialVectorV@Cm@3@2M@Z 0000000180083be0 f   LowLevelDynamics_static_64:DyFeatherstoneArticulation.obj
 0001:00082d70       ?createTangentialSpring@FeatherstoneArticulation@Dy@physx@@QEAAXPEAUArticulationLink@23@_NPEAUSpatialVectorF@Cm@3@AEAVArticulationData@23@IAEAUSolverConstraint1DExt@23@AEBVPxVec3@3@MMM@Z 0000000180083d70 f   LowLevelDynamics_static_64:DyFeatherstoneArticulation.obj
 0001:00082fe0       ?setupSolverConstraints@FeatherstoneArticulation@Dy@physx@@QEAAIAEAVPxConstraintAllocator@3@PEAUPxSolverConstraintDesc@3@PEAUArticulationLink@23@I_NAEAVArticulationData@23@PEAUSpatialVectorF@Cm@3@AEAI@Z 0000000180083fe0 f   LowLevelDynamics_static_64:DyFeatherstoneArticulation.obj
 0001:00083070       ?setupInternalConstraints@FeatherstoneArticulation@Dy@physx@@QEAAXPEAUArticulationLink@23@I_NAEAVArticulationData@23@PEAUSpatialVectorF@Cm@3@MMM_N@Z 0000000180084070 f   LowLevelDynamics_static_64:DyFeatherstoneArticulation.obj
 0001:00084790       ?createHardLimitTGS@FeatherstoneArticulation@Dy@physx@@QEAAXAEAUSolverConstraint1DExtStep@23@AEBVPxVec3@3@MMAEBUSpatialVectorV@Cm@3@2M@Z 0000000180085790 f   LowLevelDynamics_static_64:DyFeatherstoneArticulation.obj
 0001:00084870       ?createTangentialSpringTGS@FeatherstoneArticulation@Dy@physx@@QEAAXPEAUArticulationLink@23@_NPEAUSpatialVectorF@Cm@3@AEAVArticulationData@23@IAEAUSolverConstraint1DExtStep@23@AEBVPxVec3@3@MMM@Z 0000000180085870 f   LowLevelDynamics_static_64:DyFeatherstoneArticulation.obj
 0001:00084b00       ?teleportLinks@FeatherstoneArticulation@Dy@physx@@QEAAXAEAVArticulationData@23@@Z 0000000180085b00 f   LowLevelDynamics_static_64:DyFeatherstoneArticulation.obj
 0001:000857f0       ?allocateScratchSpatialData@FeatherstoneArticulation@Dy@physx@@QEAAPEAEPEAVPxcScratchAllocator@3@IAEAUScratchData@23@_N@Z 00000001800867f0 f   LowLevelDynamics_static_64:DyFeatherstoneArticulation.obj
 0001:00085910       ?allocateScratchSpatialData@FeatherstoneArticulation@Dy@physx@@QEAAXAEAUDyScratchAllocator@23@IAEAUScratchData@23@@Z 0000000180086910 f   LowLevelDynamics_static_64:DyFeatherstoneArticulation.obj
 0001:00085980       ?propagateTransform@FeatherstoneArticulation@Dy@physx@@QEAA?AVPxTransform@3@IPEAUArticulationLink@23@AEAVArticulationJointCoreData@23@PEAUSpatialVectorF@Cm@3@MAEBV43@3PEAM44@Z 0000000180086980 f   LowLevelDynamics_static_64:DyFeatherstoneArticulation.obj
 0001:00086a40       ?PxvRegisterArticulationsReducedCoordinate@Dy@physx@@YAXXZ 0000000180087a40 f   LowLevelDynamics_static_64:DyFeatherstoneArticulation.obj
 0001:00086ae0       ?PxcFsFlushVelocity@Dy@physx@@YAXAEAVFeatherstoneArticulation@12@PEAUSpatialVectorF@Cm@2@@Z 0000000180087ae0 f   LowLevelDynamics_static_64:DyFeatherstoneArticulation.obj
 0001:00087490       ?getImpulseResponseSlow@Dy@physx@@YAXPEAUArticulationLink@12@AEBVArticulationData@12@IAEBVSpatialVector@Cm@2@AEAV562@I23@Z 0000000180088490 f   LowLevelDynamics_static_64:DyFeatherstoneArticulation.obj
 0001:00088950       ?createDriveOrLimit@Dy@physx@@YAXAEAUSolverConstraint1DExt@12@MMM_N1AEBUSpatialVectorV@Cm@2@2M@Z 0000000180089950 f   LowLevelDynamics_static_64:DyFeatherstoneArticulation.obj
 0001:00088a10       ?createSpringDrive@Dy@physx@@YAXAEAUSolverConstraint1DExt@12@MMMMMMAEBUSpatialVectorV@Cm@2@1M@Z 0000000180089a10 f   LowLevelDynamics_static_64:DyFeatherstoneArticulation.obj
 0001:00088b60       ?createSpringDrive@Dy@physx@@YAXAEAUSolverConstraint1DExtStep@12@MMMMMMMAEBUSpatialVectorV@Cm@2@1M@Z 0000000180089b60 f   LowLevelDynamics_static_64:DyFeatherstoneArticulation.obj
 0001:00088cd0       ?createDriveOrLimit@Dy@physx@@YAXAEAUSolverConstraint1DExtStep@12@MMM_NMMM1AEBUSpatialVectorV@Cm@2@2M@Z 0000000180089cd0 f   LowLevelDynamics_static_64:DyFeatherstoneArticulation.obj
 0001:00088da0       ??0SpatialVector@Cm@physx@@QEAA@XZ 0000000180089da0 f i LowLevelDynamics_static_64:DyFeatherstoneArticulation.obj
 0001:00088db0       ??0SpatialVectorF@Cm@physx@@QEAA@XZ 0000000180089db0 f i LowLevelDynamics_static_64:DyFeatherstoneArticulation.obj
 0001:00088dc0       ??1SpatialVectorF@Cm@physx@@QEAA@XZ 0000000180089dc0 f i LowLevelDynamics_static_64:DyFeatherstoneArticulation.obj
 0001:00088dd0       ??HPxMat33@physx@@QEBA?BV01@AEBV01@@Z 0000000180089dd0 f i LowLevelDynamics_static_64:DyFeatherstoneArticulation.obj
 0001:00088e90       ??_GFeatherstoneArticulation@Dy@physx@@UEAAPEAXI@Z 0000000180089e90 f i LowLevelDynamics_static_64:DyFeatherstoneArticulation.obj
 0001:00088e90       ??_EFeatherstoneArticulation@Dy@physx@@UEAAPEAXI@Z 0000000180089e90 f i LowLevelDynamics_static_64:DyFeatherstoneArticulation.obj
 0001:00088f50       ?copy@?$Array@UArticulationInternalLockedAxis@Dy@physx@@V?$ReflectionAllocator@UArticulationInternalLockedAxis@Dy@physx@@@shdfnd@3@@shdfnd@physx@@KAXPEAUArticulationInternalLockedAxis@Dy@3@0PEBU453@@Z 0000000180089f50 f i LowLevelDynamics_static_64:DyFeatherstoneArticulation.obj
 0001:000892c0       ?exp@shdfnd@physx@@YA?AVPxQuat@2@AEBVPxVec3@2@@Z 000000018008a2c0 f i LowLevelDynamics_static_64:DyFeatherstoneArticulation.obj
 0001:000893b0       ?recreate@?$Array@MV?$ReflectionAllocator@M@shdfnd@physx@@@shdfnd@physx@@IEAAXI@Z 000000018008a3b0 f i LowLevelDynamics_static_64:DyFeatherstoneArticulation.obj
 0001:000894f0       ?recreate@?$Array@UArticulationInternalConstraint@Dy@physx@@V?$ReflectionAllocator@UArticulationInternalConstraint@Dy@physx@@@shdfnd@3@@shdfnd@physx@@IEAAXI@Z 000000018008a4f0 f i LowLevelDynamics_static_64:DyFeatherstoneArticulation.obj
 0001:00089730       ?recreate@?$Array@UArticulationInternalLockedAxis@Dy@physx@@V?$ReflectionAllocator@UArticulationInternalLockedAxis@Dy@physx@@@shdfnd@3@@shdfnd@physx@@IEAAXI@Z 000000018008a730 f i LowLevelDynamics_static_64:DyFeatherstoneArticulation.obj
 0001:00089830       ?recreate@?$Array@USpatialVectorF@Cm@physx@@V?$ReflectionAllocator@USpatialVectorF@Cm@physx@@@shdfnd@3@@shdfnd@physx@@IEAAXI@Z 000000018008a830 f i LowLevelDynamics_static_64:DyFeatherstoneArticulation.obj
 0001:00089ab0       ?resizeUninitialized@?$Array@UArticulationInternalConstraint@Dy@physx@@V?$ReflectionAllocator@UArticulationInternalConstraint@Dy@physx@@@shdfnd@3@@shdfnd@physx@@QEAAXI@Z 000000018008aab0 f i LowLevelDynamics_static_64:DyFeatherstoneArticulation.obj
 0001:00089af0       ?resizeUninitialized@?$Array@UArticulationInternalLockedAxis@Dy@physx@@V?$ReflectionAllocator@UArticulationInternalLockedAxis@Dy@physx@@@shdfnd@3@@shdfnd@physx@@QEAAXI@Z 000000018008aaf0 f i LowLevelDynamics_static_64:DyFeatherstoneArticulation.obj
 0001:00089b30       ?copyToSolverBodyData@Dy@physx@@YAXAEBVPxVec3@2@0M0AEBVPxTransform@2@MMIMAEAUPxSolverBodyData@2@I@Z 000000018008ab30 f   LowLevelDynamics_static_64:DyRigidBodyToSolverBody.obj
 0001:00089f50       ?createFinalizeSolverContacts@Dy@physx@@YA_NAEAUPxSolverContactDesc@2@AEAUPxsContactManagerOutput@2@AEAVThreadContext@12@MMMMMAEAVPxConstraintAllocator@2@PEAUSpatialVectorF@Cm@2@@Z 000000018008af50 f   LowLevelDynamics_static_64:DyContactPrep.obj
 0001:0008a340       ?createFinalizeSolverContacts@Dy@physx@@YA_NAEAUPxSolverContactDesc@2@AEAUCorrelationBuffer@12@MMMMMAEAVPxConstraintAllocator@2@PEAUSpatialVectorF@Cm@2@@Z 000000018008b340 f   LowLevelDynamics_static_64:DyContactPrep.obj
 0001:0008b220       ?getContactManagerConstraintDesc@Dy@physx@@YAIAEBUPxsContactManagerOutput@2@AEBVPxsContactManager@2@AEAUPxSolverConstraintDesc@2@@Z 000000018008c220 f   LowLevelDynamics_static_64:DyContactPrep.obj
 0001:0008b240       ?setupExtSolverContact@Dy@physx@@YA?AT__m128@@AEBVSolverExtBody@12@0MMMMAEBVPxTransform@2@1AEBT3@222222AEBUContactPoint@Gu@2@AEAUSolverContactPointExt@12@2PEAUSpatialVectorF@Cm@2@@Z 000000018008c240 f   LowLevelDynamics_static_64:DyContactPrep.obj
 0001:0008c7c0       ?createFinalizeSolverContacts4@Dy@physx@@YA?AW4Enum@SolverConstraintPrepState@12@PEAPEAUPxsContactManagerOutput@2@AEAVThreadContext@12@PEAUPxSolverContactDesc@2@MMMMMAEAVPxConstraintAllocator@2@@Z 000000018008d7c0 f   LowLevelDynamics_static_64:DyContactPrep4.obj
 0001:0008cc90       ?createFinalizeSolverContacts4@Dy@physx@@YA?AW4Enum@SolverConstraintPrepState@12@AEAUCorrelationBuffer@12@PEAUPxSolverContactDesc@2@MMMMMAEAVPxConstraintAllocator@2@@Z 000000018008dc90 f   LowLevelDynamics_static_64:DyContactPrep4.obj
 0001:0008d4a0       ?computeBlockStreamByteSizes4@Dy@physx@@YAXPEAUPxSolverContactDesc@2@AEAIPEAIAEBUCorrelationBuffer@12@@Z 000000018008e4a0 f   LowLevelDynamics_static_64:DyContactPrep4.obj
 0001:0008d800       ?getFrictionPatches@Dy@physx@@YA_NAEAUCorrelationBuffer@12@PEBEIAEBVPxTransform@2@2M@Z 000000018008e800 f i LowLevelDynamics_static_64:DyContactPrep4.obj
 0001:00091070       ?setupSolverConstraint4@Dy@physx@@YA?AW4Enum@SolverConstraintPrepState@12@PEIAUSolverConstraintShaderPrepDesc@12@PEIAUPxSolverConstraintPrepDesc@2@MMAEAIAEAVPxConstraintAllocator@2@@Z 0000000180092070 f   LowLevelDynamics_static_64:DyConstraintSetupBlock.obj
 0001:00091260       ?setupSolverConstraint4@Dy@physx@@YA?AW4Enum@SolverConstraintPrepState@12@PEIAUPxSolverConstraintPrepDesc@2@MMAEAIAEAVPxConstraintAllocator@2@I@Z 0000000180092260 f   LowLevelDynamics_static_64:DyConstraintSetupBlock.obj
 0001:00092510       ?SetupSolverConstraint@Dy@physx@@YAIAEAUSolverConstraintShaderPrepDesc@12@AEAUPxSolverConstraintPrepDesc@2@AEAVPxConstraintAllocator@2@MMPEAUSpatialVectorF@Cm@2@@Z 0000000180093510 f   LowLevelDynamics_static_64:DyConstraintSetup.obj
 0001:00092740       ?setupSolverConstraint@ConstraintHelper@Dy@physx@@SAIAEAUPxSolverConstraintPrepDesc@3@AEAVPxConstraintAllocator@3@MMPEAUSpatialVectorF@Cm@3@@Z 0000000180093740 f   LowLevelDynamics_static_64:DyConstraintSetup.obj
 0001:00093210       ?preprocessRows@Dy@physx@@YAXPEAPEAUPx1DConstraint@2@PEAU32@PEAVPxVec4@2@2IAEBVPxMat33@2@3MMAEBUPxConstraintInvMassScale@2@_N55@Z 0000000180094210 f   LowLevelDynamics_static_64:DyConstraintSetup.obj
 0001:00094bb0       ?create@SolverCoreGeneral@Dy@physx@@SAPEAV123@_N@Z 0000000180095bb0 f   LowLevelDynamics_static_64:DySolverControl.obj
 0001:00094c10       ?destroyV@SolverCoreGeneral@Dy@physx@@UEAAXXZ 0000000180095c10 f   LowLevelDynamics_static_64:DySolverControl.obj
 0001:00094c40       ?solveVParallelAndWriteBack@SolverCoreGeneral@Dy@physx@@UEBAHAEAUSolverIslandParams@23@PEAUSpatialVectorF@Cm@3@1@Z 0000000180095c40 f   LowLevelDynamics_static_64:DySolverControl.obj
 0001:00095f60       ?solveV_Blocks@SolverCoreGeneral@Dy@physx@@UEBAXAEAUSolverIslandParams@23@@Z 0000000180096f60 f   LowLevelDynamics_static_64:DySolverControl.obj
 0001:00096ab0       ?writeBackV@SolverCoreGeneral@Dy@physx@@UEBAXPEIBUPxSolverConstraintDesc@3@IPEAUPxConstraintBatchHeader@3@IPEIAUThresholdStreamElement@23@IAEAIPEAUPxSolverBodyData@3@QEAP6AXPEBU43@IAEAUSolverContext@23@@Z@Z 0000000180097ab0 f   LowLevelDynamics_static_64:DySolverControl.obj
 0001:00096b70       ?solveVBlock@Dy@physx@@YAXPEAVSolverCore@12@AEAUSolverIslandParams@12@@Z 0000000180097b70 f   LowLevelDynamics_static_64:DySolverControl.obj
 0001:00096b80       ?getSolveBlockTable@Dy@physx@@YAPEAP6AXPEBUPxSolverConstraintDesc@2@IAEAUSolverContext@12@@ZXZ 0000000180097b80 f   LowLevelDynamics_static_64:DySolverControl.obj
 0001:00096b90       ?getSolverConcludeBlockTable@Dy@physx@@YAPEAP6AXPEBUPxSolverConstraintDesc@2@IAEAUSolverContext@12@@ZXZ 0000000180097b90 f   LowLevelDynamics_static_64:DySolverControl.obj
 0001:00096ba0       ?getSolveWritebackBlockTable@Dy@physx@@YAPEAP6AXPEBUPxSolverConstraintDesc@2@IAEAUSolverContext@12@@ZXZ 0000000180097ba0 f   LowLevelDynamics_static_64:DySolverControl.obj
 0001:00096bb0       ?SolverCoreRegisterArticulationFns@Dy@physx@@YAXXZ 0000000180097bb0 f   LowLevelDynamics_static_64:DySolverControl.obj
 0001:00096c10       ??0ThresholdStreamElement@Dy@physx@@QEAA@XZ 0000000180097c10 f i LowLevelDynamics_static_64:DySolverControl.obj
 0001:00096c30       ??1SolverCore@Dy@physx@@UEAA@XZ 0000000180097c30 f i LowLevelDynamics_static_64:DySolverControl.obj
 0001:00096c40       ??_GSolverCore@Dy@physx@@UEAAPEAXI@Z 0000000180097c40 f i LowLevelDynamics_static_64:DySolverControl.obj
 0001:00096c40       ??_ESolverCore@Dy@physx@@UEAAPEAXI@Z 0000000180097c40 f i LowLevelDynamics_static_64:DySolverControl.obj
 0001:00096c70       ??_ESolverCoreGeneral@Dy@physx@@UEAAPEAXI@Z 0000000180097c70 f i LowLevelDynamics_static_64:DySolverControl.obj
 0001:00096c70       ??_GSolverCoreGeneral@Dy@physx@@UEAAPEAXI@Z 0000000180097c70 f i LowLevelDynamics_static_64:DySolverControl.obj
 0001:00096ca0       ?WaitForProgressCount@Dy@physx@@YAXPECHH@Z 0000000180097ca0 f i LowLevelDynamics_static_64:DySolverControl.obj
 0001:00096d10       ?setupSolverConstraintsTGS@Articulation@Dy@physx@@SAIAEBUArticulationSolverDesc@23@AEAVPxcConstraintBlockStream@3@PEAUPxTGSSolverConstraintDesc@23@MMMAEAIAEAVPxsConstraintBlockManager@3@PEAUSpatialVectorF@Cm@3@@Z 0000000180097d10 f   LowLevelDynamics_static_64:DyTGSContactPrep.obj
 0001:00097650       ?createHardLimitTGS@ArticulationHelper@Dy@physx@@SAXAEBUFsData@23@PEBUArticulationLink@23@IAEAUSolverConstraint1DExtStep@23@AEBVPxVec3@3@MM@Z 0000000180098650 f   LowLevelDynamics_static_64:DyTGSContactPrep.obj
 0001:00097860       ?createTangentialSpringTGS@ArticulationHelper@Dy@physx@@SAXAEBUFsData@23@PEBUArticulationLink@23@IAEAUSolverConstraint1DExtStep@23@AEBVPxVec3@3@MMM@Z 0000000180098860 f   LowLevelDynamics_static_64:DyTGSContactPrep.obj
 0001:00097ab0       ?projectVelocity@SolverExtBodyStep@Dy@physx@@QEBAMAEBVPxVec3@3@0@Z 0000000180098ab0 f   LowLevelDynamics_static_64:DyTGSContactPrep.obj
 0001:00097bb0       ?getLinVel@SolverExtBodyStep@Dy@physx@@QEBA?AVPxVec3@3@XZ 0000000180098bb0 f   LowLevelDynamics_static_64:DyTGSContactPrep.obj
 0001:00097c30       ?createImpulseResponseVector@Dy@physx@@YA?AVSpatialVector@Cm@2@AEBVPxVec3@2@0AEBVSolverExtBodyStep@12@@Z 0000000180098c30 f   LowLevelDynamics_static_64:DyTGSContactPrep.obj
 0001:00097d30       ?getImpulseResponse@Dy@physx@@YAMAEBVSolverExtBodyStep@12@AEBVSpatialVector@Cm@2@AEAV452@MM012MM_N@Z 0000000180098d30 f   LowLevelDynamics_static_64:DyTGSContactPrep.obj
 0001:00098240       ?setupFinalizeExtSolverContactsStep@Dy@physx@@YAXPEBUContactPoint@Gu@2@AEBUCorrelationBuffer@12@AEBVPxTransform@2@2PEAEAEBVSolverExtBodyStep@12@4MMMMMMMM3MMM@Z 0000000180099240 f   LowLevelDynamics_static_64:DyTGSContactPrep.obj
 0001:0009a9c0       ?createFinalizeSolverContactsStep@Dy@physx@@YA_NAEAUPxTGSSolverContactDesc@12@AEAUCorrelationBuffer@12@MMMMMAEAVPxConstraintAllocator@2@@Z 000000018009b9c0 f   LowLevelDynamics_static_64:DyTGSContactPrep.obj
 0001:0009b960       ?createFinalizeSolverContactsStep@Dy@physx@@YA_NAEAUPxTGSSolverContactDesc@12@AEAUPxsContactManagerOutput@2@AEAVThreadContext@12@MMMMMAEAVPxConstraintAllocator@2@@Z 000000018009c960 f   LowLevelDynamics_static_64:DyTGSContactPrep.obj
 0001:0009bda0       ?solveContact@Dy@physx@@YAXAEBUPxTGSSolverConstraintDesc@12@_NMM@Z 000000018009cda0 f   LowLevelDynamics_static_64:DyTGSContactPrep.obj
 0001:0009c4f0       ?writeBackContact@Dy@physx@@YAXAEBUPxTGSSolverConstraintDesc@12@PEAUSolverContext@12@@Z 000000018009d4f0 f   LowLevelDynamics_static_64:DyTGSContactPrep.obj
 0001:0009c610       ?setSolverConstantsStep@Dy@physx@@YAXAEAM000000AEBUPx1DConstraint@2@MMMMMMMMM@Z 000000018009d610 f   LowLevelDynamics_static_64:DyTGSContactPrep.obj
 0001:0009c7d0       ?setupSolverConstraintStep@Dy@physx@@YAIAEBUPxTGSSolverConstraintPrepDesc@12@AEAVPxConstraintAllocator@2@MMMMIM@Z 000000018009d7d0 f   LowLevelDynamics_static_64:DyTGSContactPrep.obj
 0001:0009d940       ?SetupSolverConstraintStep@Dy@physx@@YAIAEAUSolverConstraintShaderPrepDesc@12@AEAUPxTGSSolverConstraintPrepDesc@12@AEAVPxConstraintAllocator@2@MMMMIM@Z 000000018009e940 f   LowLevelDynamics_static_64:DyTGSContactPrep.obj
 0001:0009dbd0       ?solveExt1DStep@Dy@physx@@YAXAEBUPxTGSSolverConstraintDesc@12@MAEAUSolverContext@12@QEBUPxTGSSolverBodyTxInertia@12@@Z 000000018009ebd0 f   LowLevelDynamics_static_64:DyTGSContactPrep.obj
 0001:0009e410       ?solve1DStep@Dy@physx@@YAXAEBUPxTGSSolverConstraintDesc@12@QEBUPxTGSSolverBodyTxInertia@12@M@Z 000000018009f410 f   LowLevelDynamics_static_64:DyTGSContactPrep.obj
 0001:0009ef10       ?conclude1DStep@Dy@physx@@YAXAEBUPxTGSSolverConstraintDesc@12@@Z 000000018009ff10 f   LowLevelDynamics_static_64:DyTGSContactPrep.obj
 0001:0009ef70       ?concludeContact@Dy@physx@@YAXAEBUPxTGSSolverConstraintDesc@12@@Z 000000018009ff70 f   LowLevelDynamics_static_64:DyTGSContactPrep.obj
 0001:0009ef80       ?writeBack1D@Dy@physx@@YAXAEBUPxTGSSolverConstraintDesc@12@@Z 000000018009ff80 f   LowLevelDynamics_static_64:DyTGSContactPrep.obj
 0001:0009f4f0       ?solveExtContactStep@Dy@physx@@YAXAEBUPxTGSSolverConstraintDesc@12@_NMMAEAUSolverContext@12@@Z 00000001800a04f0 f   LowLevelDynamics_static_64:DyTGSContactPrep.obj
 0001:0009fef0       ?solveContactBlock@Dy@physx@@YAXAEBUPxConstraintBatchHeader@2@PEBUPxTGSSolverConstraintDesc@12@_NMM@Z 00000001800a0ef0 f   LowLevelDynamics_static_64:DyTGSContactPrep.obj
 0001:0009ff80       ?solve1DBlock@Dy@physx@@YAXAEBUPxConstraintBatchHeader@2@PEBUPxTGSSolverConstraintDesc@12@QEBUPxTGSSolverBodyTxInertia@12@M@Z 00000001800a0f80 f   LowLevelDynamics_static_64:DyTGSContactPrep.obj
 0001:000a0000       ?solveExtContactBlock@Dy@physx@@YAXAEBUPxConstraintBatchHeader@2@PEBUPxTGSSolverConstraintDesc@12@_NMMAEAUSolverContext@12@@Z 00000001800a1000 f   LowLevelDynamics_static_64:DyTGSContactPrep.obj
 0001:000a00b0       ?solveExt1DBlock@Dy@physx@@YAXAEBUPxConstraintBatchHeader@2@PEBUPxTGSSolverConstraintDesc@12@MAEAUSolverContext@12@QEBUPxTGSSolverBodyTxInertia@12@@Z 00000001800a10b0 f   LowLevelDynamics_static_64:DyTGSContactPrep.obj
 0001:000a0130       ?writeBackContact@Dy@physx@@YAXAEBUPxConstraintBatchHeader@2@PEBUPxTGSSolverConstraintDesc@12@PEAUSolverContext@12@@Z 00000001800a1130 f   LowLevelDynamics_static_64:DyTGSContactPrep.obj
 0001:000a0190       ?writeBack1D@Dy@physx@@YAXAEBUPxConstraintBatchHeader@2@PEBUPxTGSSolverConstraintDesc@12@@Z 00000001800a1190 f   LowLevelDynamics_static_64:DyTGSContactPrep.obj
 0001:000a01f0       ?solveConclude1DBlock@Dy@physx@@YAXAEBUPxConstraintBatchHeader@2@PEBUPxTGSSolverConstraintDesc@12@QEBUPxTGSSolverBodyTxInertia@12@M@Z 00000001800a11f0 f   LowLevelDynamics_static_64:DyTGSContactPrep.obj
 0001:000a02d0       ?solveConclude1DBlockExt@Dy@physx@@YAXAEBUPxConstraintBatchHeader@2@PEBUPxTGSSolverConstraintDesc@12@MAEAUSolverContext@12@QEBUPxTGSSolverBodyTxInertia@12@@Z 00000001800a12d0 f   LowLevelDynamics_static_64:DyTGSContactPrep.obj
 0001:000a03c0       ?solveConcludeContactBlock@Dy@physx@@YAXAEBUPxConstraintBatchHeader@2@PEBUPxTGSSolverConstraintDesc@12@M@Z 00000001800a13c0 f   LowLevelDynamics_static_64:DyTGSContactPrep.obj
 0001:000a0450       ?solveConcludeContactExtBlock@Dy@physx@@YAXAEBUPxConstraintBatchHeader@2@PEBUPxTGSSolverConstraintDesc@12@MAEAUSolverContext@12@@Z 00000001800a1450 f   LowLevelDynamics_static_64:DyTGSContactPrep.obj
 0001:000a04e0       ?ellipseClamp@shdfnd@physx@@YA?AVPxVec3@2@AEBV32@0@Z 00000001800a14e0 f i LowLevelDynamics_static_64:DyTGSContactPrep.obj
 0001:000a0730       ?getLimit@ConeLimitHelper@Cm@physx@@QEBA_NAEBVPxQuat@3@AEAVPxVec3@3@AEAM@Z 00000001800a1730 f i LowLevelDynamics_static_64:DyTGSContactPrep.obj
 0001:000a2aa0       ?getImpulseResponse@ArticulationHelper@Dy@physx@@SAXAEBUFsData@23@IAEBUSpatialVectorV@Cm@3@AEAU563@@Z 00000001800a3aa0 f   LowLevelDynamics_static_64:DyArticulationHelper.obj
 0001:000a2ed0       ?getImpulseSelfResponse@ArticulationHelper@Dy@physx@@SAXAEBUFsData@23@IAEBUSpatialVectorV@Cm@3@AEAU563@I12@Z 00000001800a3ed0 f   LowLevelDynamics_static_64:DyArticulationHelper.obj
 0001:000a3600       ?getLtbDataSize@ArticulationHelper@Dy@physx@@SAII@Z 00000001800a4600 f   LowLevelDynamics_static_64:DyArticulationHelper.obj
 0001:000a3610       ?getFsDataSize@ArticulationHelper@Dy@physx@@SAII@Z 00000001800a4610 f   LowLevelDynamics_static_64:DyArticulationHelper.obj
 0001:000a3630       ?createHardLimit@ArticulationHelper@Dy@physx@@SAXAEBUFsData@23@PEBUArticulationLink@23@IAEAUSolverConstraint1DExt@23@AEBVPxVec3@3@MM@Z 00000001800a4630 f   LowLevelDynamics_static_64:DyArticulationHelper.obj
 0001:000a3840       ?createTangentialSpring@ArticulationHelper@Dy@physx@@SAXAEBUFsData@23@PEBUArticulationLink@23@IAEAUSolverConstraint1DExt@23@AEBVPxVec3@3@MMM@Z 00000001800a4840 f   LowLevelDynamics_static_64:DyArticulationHelper.obj
 0001:000a3a80       ?setupSolverConstraints@ArticulationHelper@Dy@physx@@SAIAEAVArticulation@23@IAEAVPxConstraintAllocator@3@PEAUPxSolverConstraintDesc@3@PEBUArticulationLink@23@PEBUArticulationJointTransforms@23@MAEAI@Z 00000001800a4a80 f   LowLevelDynamics_static_64:DyArticulationHelper.obj
 0001:000a4370       ?getImpulseResponseSlow@Dy@physx@@YAXAEBUFsData@12@IAEBUSpatialVectorV@Cm@2@AEAU452@I12@Z 00000001800a5370 f   LowLevelDynamics_static_64:DyArticulationHelper.obj
 0001:000a4d50       ?PxcFsGetImpulseResponse@Dy@physx@@YAXAEBUFsData@12@IAEBUSpatialVectorV@Cm@2@AEAU452@@Z 00000001800a5d50 f   LowLevelDynamics_static_64:DyArticulationHelper.obj
 0001:000a51b0       ?PxcFsGetImpulseSelfResponse@Dy@physx@@YAXAEBUFsData@12@IAEBUSpatialVectorV@Cm@2@AEAU452@I12@Z 00000001800a61b0 f   LowLevelDynamics_static_64:DyArticulationHelper.obj
 0001:000a5500       ?create@SolverCoreGeneralPF@Dy@physx@@SAPEAV123@XZ 00000001800a6500 f   LowLevelDynamics_static_64:DySolverControlPF.obj
 0001:000a5550       ?destroyV@SolverCoreGeneralPF@Dy@physx@@UEAAXXZ 00000001800a6550 f   LowLevelDynamics_static_64:DySolverControlPF.obj
 0001:000a5580       ?solveVParallelAndWriteBack@SolverCoreGeneralPF@Dy@physx@@UEBAHAEAUSolverIslandParams@23@PEAUSpatialVectorF@Cm@3@1@Z 00000001800a6580 f   LowLevelDynamics_static_64:DySolverControlPF.obj
 0001:000a6af0       ?solveV_Blocks@SolverCoreGeneralPF@Dy@physx@@UEBAXAEAUSolverIslandParams@23@@Z 00000001800a7af0 f   LowLevelDynamics_static_64:DySolverControlPF.obj
 0001:000a7730       ?writeBackV@SolverCoreGeneralPF@Dy@physx@@UEBAXPEIBUPxSolverConstraintDesc@3@IPEAUPxConstraintBatchHeader@3@IPEIAUThresholdStreamElement@23@IAEAIPEAUPxSolverBodyData@3@QEAP6AXPEBU43@IAEAUSolverContext@23@@Z@Z 00000001800a8730 f   LowLevelDynamics_static_64:DySolverControlPF.obj
 0001:000a77f0       ?SolverCoreRegisterArticulationFnsCoulomb@Dy@physx@@YAXXZ 00000001800a87f0 f   LowLevelDynamics_static_64:DySolverControlPF.obj
 0001:000a7870       ??_GSolverCoreGeneralPF@Dy@physx@@UEAAPEAXI@Z 00000001800a8870 f i LowLevelDynamics_static_64:DySolverControlPF.obj
 0001:000a7870       ??_ESolverCoreGeneralPF@Dy@physx@@UEAAPEAXI@Z 00000001800a8870 f i LowLevelDynamics_static_64:DySolverControlPF.obj
 0001:000a78a0       ?PxcFsGetMotionVector@Dy@physx@@YA?AUSpatialVectorV@Cm@2@AEAVArticulationV@12@I@Z 00000001800a88a0 f   LowLevelDynamics_static_64:DyArticulationSIMD.obj
 0001:000a78d0       ?PxcFsFlushVelocity@Dy@physx@@YAXAEAUFsData@12@@Z 00000001800a88d0 f   LowLevelDynamics_static_64:DyArticulationSIMD.obj
 0001:000a7d60       ?packJointData@FeatherstoneArticulation@Dy@physx@@UEAAXPEBMPEAM@Z 00000001800a8d60 f   LowLevelDynamics_static_64:DyFeatherstoneInverseDynamic.obj
 0001:000a7e80       ?unpackJointData@FeatherstoneArticulation@Dy@physx@@UEAAXPEBMPEAM@Z 00000001800a8e80 f   LowLevelDynamics_static_64:DyFeatherstoneInverseDynamic.obj
 0001:000a7fc0       ?initializeCommonData@FeatherstoneArticulation@Dy@physx@@UEAAXXZ 00000001800a8fc0 f   LowLevelDynamics_static_64:DyFeatherstoneInverseDynamic.obj
 0001:000a8020       ?getGeneralizedGravityForce@FeatherstoneArticulation@Dy@physx@@UEAAXAEBVPxVec3@3@AEAVPxArticulationCache@3@@Z 00000001800a9020 f   LowLevelDynamics_static_64:DyFeatherstoneInverseDynamic.obj
 0001:000a89c0       ?getCoriolisAndCentrifugalForce@FeatherstoneArticulation@Dy@physx@@UEAAXAEAVPxArticulationCache@3@@Z 00000001800a99c0 f   LowLevelDynamics_static_64:DyFeatherstoneInverseDynamic.obj
 0001:000a8bb0       ?getGeneralizedExternalForce@FeatherstoneArticulation@Dy@physx@@UEAAXAEAVPxArticulationCache@3@@Z 00000001800a9bb0 f   LowLevelDynamics_static_64:DyFeatherstoneInverseDynamic.obj
 0001:000a91d0       ?getJointForce@FeatherstoneArticulation@Dy@physx@@UEAAXAEAVPxArticulationCache@3@@Z 00000001800aa1d0 f   LowLevelDynamics_static_64:DyFeatherstoneInverseDynamic.obj
 0001:000a93c0       ?getKinematicJacobian@FeatherstoneArticulation@Dy@physx@@UEAAXIAEAVPxArticulationCache@3@@Z 00000001800aa3c0 f   LowLevelDynamics_static_64:DyFeatherstoneInverseDynamic.obj
 0001:000a94a0       ?getKMatrix@FeatherstoneArticulation@Dy@physx@@QEAAXPEAUArticulationJointCore@23@IIAEAVPxArticulationCache@3@@Z 00000001800aa4a0 f   LowLevelDynamics_static_64:DyFeatherstoneInverseDynamic.obj
 0001:000a94b0       ?getCoefficentMatrix@FeatherstoneArticulation@Dy@physx@@UEAAXMIPEBVPxContactJoint@3@IAEAVPxArticulationCache@3@@Z 00000001800aa4b0 f   LowLevelDynamics_static_64:DyFeatherstoneInverseDynamic.obj
 0001:000a9e20       ?getCoefficentMatrixWithLoopJoints@FeatherstoneArticulation@Dy@physx@@UEAAXPEAUArticulationLoopConstraint@23@IAEAVPxArticulationCache@3@@Z 00000001800aae20 f   LowLevelDynamics_static_64:DyFeatherstoneInverseDynamic.obj
 0001:000aa830       ?getLambda@FeatherstoneArticulation@Dy@physx@@UEAA_NPEAUArticulationLoopConstraint@23@IAEAVPxArticulationCache@3@1PEBMAEBVPxVec3@3@I@Z 00000001800ab830 f   LowLevelDynamics_static_64:DyFeatherstoneInverseDynamic.obj
 0001:000ab410       ?getGeneralizedMassMatrix@FeatherstoneArticulation@Dy@physx@@UEAAXAEAVPxArticulationCache@3@@Z 00000001800ac410 f   LowLevelDynamics_static_64:DyFeatherstoneInverseDynamic.obj
 0001:000ab690       ?getGeneralizedMassMatrixCRB@FeatherstoneArticulation@Dy@physx@@UEAAXAEAVPxArticulationCache@3@@Z 00000001800ac690 f   LowLevelDynamics_static_64:DyFeatherstoneInverseDynamic.obj
 0001:000ab700       ?applyCacheToDest@FeatherstoneArticulation@Dy@physx@@QEAAXAEAVArticulationData@23@AEAVPxArticulationCache@3@PEAM222V?$PxFlags@W4Enum@PxArticulationCache@physx@@E@3@@Z 00000001800ac700 f   LowLevelDynamics_static_64:DyFeatherstoneInverseDynamic.obj
 0001:000ab820       ?constraintPrep@FeatherstoneArticulation@Dy@physx@@AEAAXPEAUArticulationLoopConstraint@23@IPEAUSpatialVectorF@Cm@3@AEAUPxSolverConstraintPrepDesc@3@AEAUPxSolverBody@3@AEAUPxSolverBodyData@3@PEAUPxSolverConstraintDesc@3@AEAVPxConstraintAllocator@3@@Z 00000001800ac820 f   LowLevelDynamics_static_64:DyFeatherstoneInverseDynamic.obj
 0001:000abd00       ?jcalcLoopJointSubspace@FeatherstoneArticulation@Dy@physx@@AEAAXPEAUArticulationJointCore@23@AEAVArticulationJointCoreData@23@AEAUSpatialSubspaceMatrix@23@@Z 00000001800acd00 f   LowLevelDynamics_static_64:DyFeatherstoneInverseDynamic.obj
 0001:000acaf0       ?getImpulseSelfResponseInv@FeatherstoneArticulation@Dy@physx@@AEAAX_NIIPEAUSpatialVectorF@Cm@3@AEBVSpatialVector@53@2AEAV653@3PEAM@Z 00000001800adaf0 f   LowLevelDynamics_static_64:DyFeatherstoneInverseDynamic.obj
 0001:000ad670       ?getImpulseResponseSlowInv@FeatherstoneArticulation@Dy@physx@@AEAAXPEAUArticulationLink@23@AEBVArticulationData@23@IAEBVSpatialVector@Cm@3@AEAV673@I23PEAM@Z 00000001800ae670 f   LowLevelDynamics_static_64:DyFeatherstoneInverseDynamic.obj
 0001:000aeba0       ?getImpulseResponseInv@FeatherstoneArticulation@Dy@physx@@AEAA?AUSpatialVectorF@Cm@3@_NIPEAU453@AEBVSpatialVector@53@PEAM@Z 00000001800afba0 f   LowLevelDynamics_static_64:DyFeatherstoneInverseDynamic.obj
 0001:000af410       ?inverseDynamic@FeatherstoneArticulation@Dy@physx@@AEAAXAEAVArticulationData@23@AEBVPxVec3@3@AEAUScratchData@23@@Z 00000001800b0410 f   LowLevelDynamics_static_64:DyFeatherstoneInverseDynamic.obj
 0001:000af4a0       ?inverseDynamicFloatingBase@FeatherstoneArticulation@Dy@physx@@AEAAXAEAVArticulationData@23@AEBVPxVec3@3@AEAUScratchData@23@@Z 00000001800b04a0 f   LowLevelDynamics_static_64:DyFeatherstoneInverseDynamic.obj
 0001:000af540       ?computeZAForceInv@FeatherstoneArticulation@Dy@physx@@AEAAXAEAVArticulationData@23@AEAUScratchData@23@@Z 00000001800b0540 f   LowLevelDynamics_static_64:DyFeatherstoneInverseDynamic.obj
 0001:000af9a0       ?initCompositeSpatialInertia@FeatherstoneArticulation@Dy@physx@@AEAAXAEAVArticulationData@23@PEAUSpatialMatrix@23@@Z 00000001800b09a0 f   LowLevelDynamics_static_64:DyFeatherstoneInverseDynamic.obj
 0001:000afb00       ?computeCompositeSpatialInertiaAndZAForceInv@FeatherstoneArticulation@Dy@physx@@AEAAXAEAVArticulationData@23@AEAUScratchData@23@@Z 00000001800b0b00 f   LowLevelDynamics_static_64:DyFeatherstoneInverseDynamic.obj
 0001:000b1390       ?computeRelativeGeneralizedForceInv@FeatherstoneArticulation@Dy@physx@@AEAAXAEAVArticulationData@23@AEAUScratchData@23@@Z 00000001800b2390 f   LowLevelDynamics_static_64:DyFeatherstoneInverseDynamic.obj
 0001:000b2690       ?computeLinkAccelerationInv@FeatherstoneArticulation@Dy@physx@@AEAAXAEAVArticulationData@23@AEAUScratchData@23@@Z 00000001800b3690 f   LowLevelDynamics_static_64:DyFeatherstoneInverseDynamic.obj
 0001:000b2e80       ?computeGeneralizedForceInv@FeatherstoneArticulation@Dy@physx@@AEAAXAEAVArticulationData@23@AEAUScratchData@23@@Z 00000001800b3e80 f   LowLevelDynamics_static_64:DyFeatherstoneInverseDynamic.obj
 0001:000b3410       ?calculateMassMatrixColInv@FeatherstoneArticulation@Dy@physx@@AEAAXAEAUScratchData@23@@Z 00000001800b4410 f   LowLevelDynamics_static_64:DyFeatherstoneInverseDynamic.obj
 0001:000b3fb0       ?calculateHFixBase@FeatherstoneArticulation@Dy@physx@@AEAAXAEAVPxArticulationCache@3@@Z 00000001800b4fb0 f   LowLevelDynamics_static_64:DyFeatherstoneInverseDynamic.obj
 0001:000b4720       ?calculateHFloatingBase@FeatherstoneArticulation@Dy@physx@@AEAAXAEAVPxArticulationCache@3@@Z 00000001800b5720 f   LowLevelDynamics_static_64:DyFeatherstoneInverseDynamic.obj
 0001:000b5fa0       ?computeHi@Dy@physx@@YAIAEAVArticulationData@12@IPEAMPEAUSpatialVectorF@Cm@2@@Z 00000001800b6fa0 f   LowLevelDynamics_static_64:DyFeatherstoneInverseDynamic.obj
 0001:000b6760       ??0BlockBasedAllocator@Dy@physx@@QEAA@XZ 00000001800b7760 f i LowLevelDynamics_static_64:DyFeatherstoneInverseDynamic.obj
 0001:000b6780       ??1ArticulationBlockAllocator@Dy@physx@@UEAA@XZ 00000001800b7780 f i LowLevelDynamics_static_64:DyFeatherstoneInverseDynamic.obj
 0001:000b6860       ??1BlockBasedAllocator@Dy@physx@@UEAA@XZ 00000001800b7860 f i LowLevelDynamics_static_64:DyFeatherstoneInverseDynamic.obj
 0001:000b68b0       ??1PxConstraintAllocator@physx@@UEAA@XZ 00000001800b78b0 f i LowLevelDynamics_static_64:DyFeatherstoneInverseDynamic.obj
 0001:000b68c0       ??DPxMat33@physx@@QEBA?BVPxVec3@1@AEBV21@@Z 00000001800b78c0 f i LowLevelDynamics_static_64:DyFeatherstoneInverseDynamic.obj
 0001:000b6950       ??YPxMat33@physx@@QEAAAEAV01@AEBV01@@Z 00000001800b7950 f i LowLevelDynamics_static_64:DyFeatherstoneInverseDynamic.obj
 0001:000b69e0       ??_GArticulationBlockAllocator@Dy@physx@@UEAAPEAXI@Z 00000001800b79e0 f i LowLevelDynamics_static_64:DyFeatherstoneInverseDynamic.obj
 0001:000b69e0       ??_EArticulationBlockAllocator@Dy@physx@@UEAAPEAXI@Z 00000001800b79e0 f i LowLevelDynamics_static_64:DyFeatherstoneInverseDynamic.obj
 0001:000b6a20       ??_GBlockBasedAllocator@Dy@physx@@UEAAPEAXI@Z 00000001800b7a20 f i LowLevelDynamics_static_64:DyFeatherstoneInverseDynamic.obj
 0001:000b6a20       ??_EBlockBasedAllocator@Dy@physx@@UEAAPEAXI@Z 00000001800b7a20 f i LowLevelDynamics_static_64:DyFeatherstoneInverseDynamic.obj
 0001:000b6aa0       ??_EPxConstraintAllocator@physx@@UEAAPEAXI@Z 00000001800b7aa0 f i LowLevelDynamics_static_64:DyFeatherstoneInverseDynamic.obj
 0001:000b6aa0       ??_GPxConstraintAllocator@physx@@UEAAPEAXI@Z 00000001800b7aa0 f i LowLevelDynamics_static_64:DyFeatherstoneInverseDynamic.obj
 0001:000b6ad0       ?alloc@PxcScratchAllocator@physx@@QEAAPEAXI_N@Z 00000001800b7ad0 f i LowLevelDynamics_static_64:DyFeatherstoneInverseDynamic.obj
 0001:000b6ba0       ?allocate@BlockBasedAllocator@Dy@physx@@UEAAPEAEI@Z 00000001800b7ba0 f i LowLevelDynamics_static_64:DyFeatherstoneInverseDynamic.obj
 0001:000b6f80       ?free@PxcScratchAllocator@physx@@QEAAXPEAX@Z 00000001800b7f80 f i LowLevelDynamics_static_64:DyFeatherstoneInverseDynamic.obj
 0001:000b7040       ?growAndPushBack@?$Array@PEAUAllocationPage@BlockBasedAllocator@Dy@physx@@V?$ReflectionAllocator@PEAUAllocationPage@BlockBasedAllocator@Dy@physx@@@shdfnd@4@@shdfnd@physx@@IEAAAEAPEAUAllocationPage@BlockBasedAllocator@Dy@3@AEBQEAU4563@@Z 00000001800b8040 f i LowLevelDynamics_static_64:DyFeatherstoneInverseDynamic.obj
 0001:000b7160       ?release@BlockBasedAllocator@Dy@physx@@QEAAXXZ 00000001800b8160 f i LowLevelDynamics_static_64:DyFeatherstoneInverseDynamic.obj
 0001:000b71d0       ?reserveConstraintData@ArticulationBlockAllocator@Dy@physx@@UEAAPEAEI@Z 00000001800b81d0 f i LowLevelDynamics_static_64:DyFeatherstoneInverseDynamic.obj
 0001:000b71e0       ?reserveFrictionData@ArticulationBlockAllocator@Dy@physx@@UEAAPEAEI@Z 00000001800b81e0 f i LowLevelDynamics_static_64:DyFeatherstoneInverseDynamic.obj
 0001:000b7200       ?transformTranspose@PxMat33@physx@@QEBA?BVPxVec3@2@AEBV32@@Z 00000001800b8200 f i LowLevelDynamics_static_64:DyFeatherstoneInverseDynamic.obj
 0001:000b7290       ?getJointAcceleration@FeatherstoneArticulation@Dy@physx@@UEAAXAEBVPxVec3@3@AEAVPxArticulationCache@3@@Z 00000001800b8290 f   LowLevelDynamics_static_64:DyFeatherstoneForwardDynamic.obj
 0001:000b7f40       ?computeUnconstrainedVelocities@FeatherstoneArticulation@Dy@physx@@SAIAEBUArticulationSolverDesc@23@MAEAVPxConstraintAllocator@3@PEAUPxSolverConstraintDesc@3@AEAIAEBVPxVec3@3@_KPEAUSpatialVectorF@Cm@3@6@Z 00000001800b8f40 f   LowLevelDynamics_static_64:DyFeatherstoneForwardDynamic.obj
 0001:000b7f90       ?computeUnconstrainedVelocitiesTGS@FeatherstoneArticulation@Dy@physx@@SAXAEBUArticulationSolverDesc@23@MAEBVPxVec3@3@_KPEAUSpatialVectorF@Cm@3@3@Z 00000001800b8f90 f   LowLevelDynamics_static_64:DyFeatherstoneForwardDynamic.obj
 0001:000b7fc0       ?updateBodies@FeatherstoneArticulation@Dy@physx@@SAXAEBUArticulationSolverDesc@23@M@Z 00000001800b8fc0 f   LowLevelDynamics_static_64:DyFeatherstoneForwardDynamic.obj
 0001:000b7fd0       ?updateBodiesTGS@FeatherstoneArticulation@Dy@physx@@SAXAEBUArticulationSolverDesc@23@M@Z 00000001800b8fd0 f   LowLevelDynamics_static_64:DyFeatherstoneForwardDynamic.obj
 0001:000b7fe0       ?updateBodies@FeatherstoneArticulation@Dy@physx@@SAXAEBUArticulationSolverDesc@23@M_N@Z 00000001800b8fe0 f   LowLevelDynamics_static_64:DyFeatherstoneForwardDynamic.obj
 0001:000b8c80       ?updateArticulation@FeatherstoneArticulation@Dy@physx@@AEAAXAEAUScratchData@23@AEBVPxVec3@3@PEAUSpatialVectorF@Cm@3@2@Z 00000001800b9c80 f   LowLevelDynamics_static_64:DyFeatherstoneForwardDynamic.obj
 0001:000b8d70       ?computeUnconstrainedVelocitiesInternal@FeatherstoneArticulation@Dy@physx@@AEAAIAEBUArticulationSolverDesc@23@AEAVPxConstraintAllocator@3@PEAUPxSolverConstraintDesc@3@AEAIAEBVPxVec3@3@PEAUSpatialVectorF@Cm@3@5@Z 00000001800b9d70 f   LowLevelDynamics_static_64:DyFeatherstoneForwardDynamic.obj
 0001:000b9050       ?computeUnconstrainedVelocitiesTGSInternal@FeatherstoneArticulation@Dy@physx@@AEAAXAEBVPxVec3@3@PEAUSpatialVectorF@Cm@3@1@Z 00000001800ba050 f   LowLevelDynamics_static_64:DyFeatherstoneForwardDynamic.obj
 0001:000b92c0       ?initLinks@FeatherstoneArticulation@Dy@physx@@AEAAXAEAVArticulationData@23@AEBVPxVec3@3@AEAUScratchData@23@PEAUSpatialVectorF@Cm@3@3@Z 00000001800ba2c0 f   LowLevelDynamics_static_64:DyFeatherstoneForwardDynamic.obj
 0001:000b9380       ?computeIs@FeatherstoneArticulation@Dy@physx@@AEAAXAEAVArticulationLinkData@23@AEAVArticulationJointCoreData@23@@Z 00000001800ba380 f   LowLevelDynamics_static_64:DyFeatherstoneForwardDynamic.obj
 0001:000b97f0       ?computePropagateSpatialInertia@FeatherstoneArticulation@Dy@physx@@AEAA?AUSpatialMatrix@23@EAEAVArticulationLinkData@23@AEAVArticulationJointCoreData@23@@Z 00000001800ba7f0 f   LowLevelDynamics_static_64:DyFeatherstoneForwardDynamic.obj
 0001:000ba8e0       ?computeArticulatedSpatialInertia@FeatherstoneArticulation@Dy@physx@@AEAAXAEAVArticulationData@23@@Z 00000001800bb8e0 f   LowLevelDynamics_static_64:DyFeatherstoneForwardDynamic.obj
 0001:000bb870       ?computeArticulatedSpatialZ@FeatherstoneArticulation@Dy@physx@@AEAAXAEAVArticulationData@23@AEAUScratchData@23@@Z 00000001800bc870 f   LowLevelDynamics_static_64:DyFeatherstoneForwardDynamic.obj
 0001:000bc130       ?computeJointAcceleration@FeatherstoneArticulation@Dy@physx@@AEAAXAEAVArticulationLinkData@23@AEAVArticulationJointCoreData@23@AEBUSpatialVectorF@Cm@3@PEAM@Z 00000001800bd130 f   LowLevelDynamics_static_64:DyFeatherstoneForwardDynamic.obj
 0001:000bc4f0       ?computeLinkAcceleration@FeatherstoneArticulation@Dy@physx@@AEAAXAEAVArticulationData@23@AEAUScratchData@23@@Z 00000001800bd4f0 f   LowLevelDynamics_static_64:DyFeatherstoneForwardDynamic.obj
 0001:000bd310       ?computeJointTransmittedFrictionForce@FeatherstoneArticulation@Dy@physx@@AEAAXAEAVArticulationData@23@AEAUScratchData@23@PEAUSpatialVectorF@Cm@3@2@Z 00000001800be310 f   LowLevelDynamics_static_64:DyFeatherstoneForwardDynamic.obj
 0001:000bd7c0       ?updateBodies@FeatherstoneArticulation@Dy@physx@@AEAAXXZ 00000001800be7c0 f   LowLevelDynamics_static_64:DyFeatherstoneForwardDynamic.obj
 0001:000bd9f0       ?applyExternalImpulse@FeatherstoneArticulation@Dy@physx@@AEAAXPEAUArticulationLink@23@I_NAEAVArticulationData@23@PEAUSpatialVectorF@Cm@3@3MAEBVPxVec3@3@PEAVSpatialVector@73@@Z 00000001800be9f0 f   LowLevelDynamics_static_64:DyFeatherstoneForwardDynamic.obj
 0001:000be790       ?enforcePrismaticLimits@FeatherstoneArticulation@Dy@physx@@AEAAXPEAMPEAUArticulationJointCore@23@@Z 00000001800bf790 f   LowLevelDynamics_static_64:DyFeatherstoneForwardDynamic.obj
 0001:000be7e0       ?propagateLinksDown@FeatherstoneArticulation@Dy@physx@@QEAAXAEAVArticulationData@23@PEAM1PEAUSpatialVectorF@Cm@3@@Z 00000001800bf7e0 f   LowLevelDynamics_static_64:DyFeatherstoneForwardDynamic.obj
 0001:000bfac0       ?computeAndEnforceJointPositions@FeatherstoneArticulation@Dy@physx@@QEAAXAEAVArticulationData@23@PEAM@Z 00000001800c0ac0 f   LowLevelDynamics_static_64:DyFeatherstoneForwardDynamic.obj
 0001:000bfc80       ?updateRootBody@FeatherstoneArticulation@Dy@physx@@SAXAEBUSpatialVectorF@Cm@3@AEBVPxTransform@3@AEAVArticulationData@23@M@Z 00000001800c0c80 f   LowLevelDynamics_static_64:DyFeatherstoneForwardDynamic.obj
 0001:000bfe80       ?computeSphericalJointPositions@Dy@physx@@YA?AVPxQuat@2@PEAUArticulationJointCore@12@V32@1PEAM@Z 00000001800c0e80 f   LowLevelDynamics_static_64:DyFeatherstoneForwardDynamic.obj
 0001:000c0330       ??4SpatialMatrix@Dy@physx@@QEAAAEAU012@$$QEAU012@@Z 00000001800c1330 f i LowLevelDynamics_static_64:DyFeatherstoneForwardDynamic.obj
 0001:000c03e0       ?constructSpatialMatrix@SpatialMatrix@Dy@physx@@SA?AU123@AEBUSpatialVectorF@Cm@3@0@Z 00000001800c13e0 f i LowLevelDynamics_static_64:DyFeatherstoneForwardDynamic.obj
 0001:000c05e0       ?getInverse@PxMat33@physx@@QEBA?BV12@XZ 00000001800c15e0 f i LowLevelDynamics_static_64:DyFeatherstoneForwardDynamic.obj
 0001:000c0830       ?getInverse@SpatialMatrix@Dy@physx@@QEAA?AU123@XZ 00000001800c1830 f i LowLevelDynamics_static_64:DyFeatherstoneForwardDynamic.obj
 0001:000c1350       ?createFinalizeSolverContactsCoulomb1D@Dy@physx@@YA_NAEAUPxSolverContactDesc@2@AEAUPxsContactManagerOutput@2@AEAVThreadContext@12@MMMMMAEAVPxConstraintAllocator@2@PEAUSpatialVectorF@Cm@2@@Z 00000001800c2350 f   LowLevelDynamics_static_64:DyContactPrepPF.obj
 0001:000c13d0       ?createFinalizeSolverContactsCoulomb2D@Dy@physx@@YA_NAEAUPxSolverContactDesc@2@AEAUPxsContactManagerOutput@2@AEAVThreadContext@12@MMMMMAEAVPxConstraintAllocator@2@PEAUSpatialVectorF@Cm@2@@Z 00000001800c23d0 f   LowLevelDynamics_static_64:DyContactPrepPF.obj
 0001:000c1450       ?createFinalizeSolverContactsCoulomb@Dy@physx@@YA_NAEAUPxSolverContactDesc@2@AEAUPxsContactManagerOutput@2@AEAVThreadContext@12@MMMMMAEAVPxConstraintAllocator@2@W4Enum@PxFrictionType@2@PEAUSpatialVectorF@Cm@2@@Z 00000001800c2450 f   LowLevelDynamics_static_64:DyContactPrepPF.obj
 0001:000c2860       ?createContactPatches@Dy@physx@@YA_NAEAUCorrelationBuffer@12@PEBUContactPoint@Gu@2@IM@Z 00000001800c3860 f   LowLevelDynamics_static_64:DyFrictionCorrelation.obj
 0001:000c2b10       ?correlatePatches@Dy@physx@@YA_NAEAUCorrelationBuffer@12@PEBUContactPoint@Gu@2@AEBVPxTransform@2@2MII@Z 00000001800c3b10 f   LowLevelDynamics_static_64:DyFrictionCorrelation.obj
 0001:000c31f0       ?growPatches@Dy@physx@@YAXAEAUCorrelationBuffer@12@PEBUContactPoint@Gu@2@AEBVPxTransform@2@2MIM@Z 00000001800c41f0 f   LowLevelDynamics_static_64:DyFrictionCorrelation.obj
 0001:000c39f0       ?projectVelocity@SolverExtBody@Dy@physx@@QEBAMAEBVPxVec3@3@0@Z 00000001800c49f0 f   LowLevelDynamics_static_64:DyArticulationContactPrep.obj
 0001:000c3af0       ?getLinVel@SolverExtBody@Dy@physx@@QEBA?AVPxVec3@3@XZ 00000001800c4af0 f   LowLevelDynamics_static_64:DyArticulationContactPrep.obj
 0001:000c3b70       ?getAngVel@SolverExtBody@Dy@physx@@QEBA?AVPxVec3@3@XZ 00000001800c4b70 f   LowLevelDynamics_static_64:DyArticulationContactPrep.obj
 0001:000c3bf0       ?getImpulseResponse@Dy@physx@@YAMAEBVSolverExtBody@12@AEBVSpatialVector@Cm@2@AEAV452@MM012MMPEAUSpatialVectorF@52@_N@Z 00000001800c4bf0 f   LowLevelDynamics_static_64:DyArticulationContactPrep.obj
 0001:000c3f10       ?createImpulseResponseVector@Dy@physx@@YA?AVSpatialVector@Cm@2@AEBVPxVec3@2@0AEBVSolverExtBody@12@@Z 00000001800c4f10 f   LowLevelDynamics_static_64:DyArticulationContactPrep.obj
 0001:000c4010       ?setupFinalizeExtSolverContacts@Dy@physx@@YAXPEBUContactPoint@Gu@2@AEBUCorrelationBuffer@12@AEBVPxTransform@2@2PEAEAEBVSolverExtBody@12@4MMMMMMM3MPEAUSpatialVectorF@Cm@2@@Z 00000001800c5010 f   LowLevelDynamics_static_64:DyArticulationContactPrep.obj
 0001:000c5470       ?createFinalizeSolverContacts4Coulomb1D@Dy@physx@@YA?AW4Enum@SolverConstraintPrepState@12@PEAPEAUPxsContactManagerOutput@2@AEAVThreadContext@12@PEAUPxSolverContactDesc@2@MMMMMAEAVPxConstraintAllocator@2@@Z 00000001800c6470 f   LowLevelDynamics_static_64:DyContactPrep4PF.obj
 0001:000c54e0       ?createFinalizeSolverContacts4Coulomb2D@Dy@physx@@YA?AW4Enum@SolverConstraintPrepState@12@PEAPEAUPxsContactManagerOutput@2@AEAVThreadContext@12@PEAUPxSolverContactDesc@2@MMMMMAEAVPxConstraintAllocator@2@@Z 00000001800c64e0 f   LowLevelDynamics_static_64:DyContactPrep4PF.obj
 0001:000c5550       ?createFinalizeSolverContacts4Coulomb@Dy@physx@@YA?AW4Enum@SolverConstraintPrepState@12@PEAPEAUPxsContactManagerOutput@2@AEAVThreadContext@12@PEAUPxSolverContactDesc@2@MMMMMAEAVPxConstraintAllocator@2@W43PxFrictionType@2@@Z 00000001800c6550 f   LowLevelDynamics_static_64:DyContactPrep4PF.obj
 0001:000c5c50       ?computeBlockStreamByteSizesCoulomb4@Dy@physx@@YAXPEAUPxSolverContactDesc@2@AEAVThreadContext@12@AEBUCorrelationBuffer@12@IAEAIPEAI3@Z 00000001800c6c50 f   LowLevelDynamics_static_64:DyContactPrep4PF.obj
 0001:000c7f10       ?solveExtContacts@Dy@physx@@YA?AT__m128@@PEAUSolverContactPointExt@12@IAEBT3@AEAT3@2222222PEIAM@Z 00000001800c8f10 f   LowLevelDynamics_static_64:DySolverConstraints.obj
 0001:000c80e0       ?solve1D@Dy@physx@@YAXAEBUPxSolverConstraintDesc@2@AEAUSolverContext@12@@Z 00000001800c90e0 f   LowLevelDynamics_static_64:DySolverConstraints.obj
 0001:000c8380       ?conclude1D@Dy@physx@@YAXAEBUPxSolverConstraintDesc@2@AEAUSolverContext@12@@Z 00000001800c9380 f   LowLevelDynamics_static_64:DySolverConstraints.obj
 0001:000c83d0       ?solveContact@Dy@physx@@YAXAEBUPxSolverConstraintDesc@2@AEAUSolverContext@12@@Z 00000001800c93d0 f   LowLevelDynamics_static_64:DySolverConstraints.obj
 0001:000c88d0       ?solveContact_BStatic@Dy@physx@@YAXAEBUPxSolverConstraintDesc@2@AEAUSolverContext@12@@Z 00000001800c98d0 f   LowLevelDynamics_static_64:DySolverConstraints.obj
 0001:000c8fe0       ?concludeContact@Dy@physx@@YAXAEBUPxSolverConstraintDesc@2@AEAUSolverContext@12@@Z 00000001800c9fe0 f   LowLevelDynamics_static_64:DySolverConstraints.obj
 0001:000c9190       ?writeBackContact@Dy@physx@@YAXAEBUPxSolverConstraintDesc@2@AEAUSolverContext@12@AEAUPxSolverBodyData@2@2@Z 00000001800ca190 f   LowLevelDynamics_static_64:DySolverConstraints.obj
 0001:000c94a0       ?writeBack1D@Dy@physx@@YAXAEBUPxSolverConstraintDesc@2@AEAUSolverContext@12@AEAUPxSolverBodyData@2@2@Z 00000001800ca4a0 f   LowLevelDynamics_static_64:DySolverConstraints.obj
 0001:000c9800       ?solve1DBlock@Dy@physx@@YAXPEIBUPxSolverConstraintDesc@2@IAEAUSolverContext@12@@Z 00000001800ca800 f   LowLevelDynamics_static_64:DySolverConstraints.obj
 0001:000c9b30       ?solve1DConcludeBlock@Dy@physx@@YAXPEIBUPxSolverConstraintDesc@2@IAEAUSolverContext@12@@Z 00000001800cab30 f   LowLevelDynamics_static_64:DySolverConstraints.obj
 0001:000c9c70       ?solve1DBlockWriteBack@Dy@physx@@YAXPEIBUPxSolverConstraintDesc@2@IAEAUSolverContext@12@@Z 00000001800cac70 f   LowLevelDynamics_static_64:DySolverConstraints.obj
 0001:000c9d60       ?writeBack1DBlock@Dy@physx@@YAXPEIBUPxSolverConstraintDesc@2@IAEAUSolverContext@12@@Z 00000001800cad60 f   LowLevelDynamics_static_64:DySolverConstraints.obj
 0001:000c9e20       ?solveContactBlock@Dy@physx@@YAXPEIBUPxSolverConstraintDesc@2@IAEAUSolverContext@12@@Z 00000001800cae20 f   LowLevelDynamics_static_64:DySolverConstraints.obj
 0001:000ca410       ?solveContactConcludeBlock@Dy@physx@@YAXPEIBUPxSolverConstraintDesc@2@IAEAUSolverContext@12@@Z 00000001800cb410 f   LowLevelDynamics_static_64:DySolverConstraints.obj
 0001:000ca4c0       ?solveContactBlockWriteBack@Dy@physx@@YAXPEIBUPxSolverConstraintDesc@2@IAEAUSolverContext@12@@Z 00000001800cb4c0 f   LowLevelDynamics_static_64:DySolverConstraints.obj
 0001:000ca630       ?solveContact_BStaticBlock@Dy@physx@@YAXPEIBUPxSolverConstraintDesc@2@IAEAUSolverContext@12@@Z 00000001800cb630 f   LowLevelDynamics_static_64:DySolverConstraints.obj
 0001:000ca6d0       ?solveContact_BStaticConcludeBlock@Dy@physx@@YAXPEIBUPxSolverConstraintDesc@2@IAEAUSolverContext@12@@Z 00000001800cb6d0 f   LowLevelDynamics_static_64:DySolverConstraints.obj
 0001:000ca780       ?solveContact_BStaticBlockWriteBack@Dy@physx@@YAXPEIBUPxSolverConstraintDesc@2@IAEAUSolverContext@12@@Z 00000001800cb780 f   LowLevelDynamics_static_64:DySolverConstraints.obj
 0001:000ca8f0       ?clearExt1D@Dy@physx@@YAXAEBUPxSolverConstraintDesc@2@AEAUSolverContext@12@@Z 00000001800cb8f0 f   LowLevelDynamics_static_64:DySolverConstraints.obj
 0001:000ca930       ?solveExt1D@Dy@physx@@YAXAEBUPxSolverConstraintDesc@2@AEAUSolverContext@12@@Z 00000001800cb930 f   LowLevelDynamics_static_64:DySolverConstraints.obj
 0001:000cae40       ?solveExtContact@Dy@physx@@YAXAEBUPxSolverConstraintDesc@2@AEAUSolverContext@12@@Z 00000001800cbe40 f   LowLevelDynamics_static_64:DySolverConstraints.obj
 0001:000cb5b0       ?solveExtContactBlock@Dy@physx@@YAXPEIBUPxSolverConstraintDesc@2@IAEAUSolverContext@12@@Z 00000001800cc5b0 f   LowLevelDynamics_static_64:DySolverConstraints.obj
 0001:000cb600       ?solveExtContactConcludeBlock@Dy@physx@@YAXPEIBUPxSolverConstraintDesc@2@IAEAUSolverContext@12@@Z 00000001800cc600 f   LowLevelDynamics_static_64:DySolverConstraints.obj
 0001:000cb660       ?solveExtContactBlockWriteBack@Dy@physx@@YAXPEIBUPxSolverConstraintDesc@2@IAEAUSolverContext@12@@Z 00000001800cc660 f   LowLevelDynamics_static_64:DySolverConstraints.obj
 0001:000cb790       ?solveExt1DBlock@Dy@physx@@YAXPEIBUPxSolverConstraintDesc@2@IAEAUSolverContext@12@@Z 00000001800cc790 f   LowLevelDynamics_static_64:DySolverConstraints.obj
 0001:000cbce0       ?solveExt1DConcludeBlock@Dy@physx@@YAXPEIBUPxSolverConstraintDesc@2@IAEAUSolverContext@12@@Z 00000001800ccce0 f   LowLevelDynamics_static_64:DySolverConstraints.obj
 0001:000cbd90       ?solveExt1DBlockWriteBack@Dy@physx@@YAXPEIBUPxSolverConstraintDesc@2@IAEAUSolverContext@12@@Z 00000001800ccd90 f   LowLevelDynamics_static_64:DySolverConstraints.obj
 0001:000cbe60       ?ext1DBlockWriteBack@Dy@physx@@YAXPEIBUPxSolverConstraintDesc@2@IAEAUSolverContext@12@@Z 00000001800cce60 f   LowLevelDynamics_static_64:DySolverConstraints.obj
 0001:000cc1f0       ?solveConcludeExtContact@Dy@physx@@YAXAEBUPxSolverConstraintDesc@2@AEAUSolverContext@12@@Z 00000001800cd1f0 f   LowLevelDynamics_static_64:DySolverConstraints.obj
 0001:000cc220       ?solveConcludeExt1D@Dy@physx@@YAXAEBUPxSolverConstraintDesc@2@AEAUSolverContext@12@@Z 00000001800cd220 f   LowLevelDynamics_static_64:DySolverConstraints.obj
 0001:000cc280       ?solveConclude1D@Dy@physx@@YAXAEBUPxSolverConstraintDesc@2@AEAUSolverContext@12@@Z 00000001800cd280 f   LowLevelDynamics_static_64:DySolverConstraints.obj
 0001:000cc2e0       ?solveConcludeContact@Dy@physx@@YAXAEBUPxSolverConstraintDesc@2@AEAUSolverContext@12@@Z 00000001800cd2e0 f   LowLevelDynamics_static_64:DySolverConstraints.obj
 0001:000cc310       ?solveConcludeContact_BStatic@Dy@physx@@YAXAEBUPxSolverConstraintDesc@2@AEAUSolverContext@12@@Z 00000001800cd310 f   LowLevelDynamics_static_64:DySolverConstraints.obj
 0001:000cc340       ?writeBackContact4_Block@Dy@physx@@YAXPEIBUPxSolverConstraintDesc@2@AEAUSolverContext@12@PEIAPEBUPxSolverBodyData@2@2@Z 00000001800cd340 f   LowLevelDynamics_static_64:DySolverConstraintsBlock.obj
 0001:000cca90       ?writeBack1D4@Dy@physx@@YAXPEIBUPxSolverConstraintDesc@2@AEAUSolverContext@12@PEIAPEBUPxSolverBodyData@2@2@Z 00000001800cda90 f   LowLevelDynamics_static_64:DySolverConstraintsBlock.obj
 0001:000ccf90       ?solveContactPreBlock@Dy@physx@@YAXPEIBUPxSolverConstraintDesc@2@IAEAUSolverContext@12@@Z 00000001800cdf90 f   LowLevelDynamics_static_64:DySolverConstraintsBlock.obj
 0001:000ccfa0       ?solveContactPreBlock_Static@Dy@physx@@YAXPEIBUPxSolverConstraintDesc@2@IAEAUSolverContext@12@@Z 00000001800cdfa0 f   LowLevelDynamics_static_64:DySolverConstraintsBlock.obj
 0001:000ccfb0       ?solveContactPreBlock_Conclude@Dy@physx@@YAXPEIBUPxSolverConstraintDesc@2@IAEAUSolverContext@12@@Z 00000001800cdfb0 f   LowLevelDynamics_static_64:DySolverConstraintsBlock.obj
 0001:000ccff0       ?solveContactPreBlock_ConcludeStatic@Dy@physx@@YAXPEIBUPxSolverConstraintDesc@2@IAEAUSolverContext@12@@Z 00000001800cdff0 f   LowLevelDynamics_static_64:DySolverConstraintsBlock.obj
 0001:000cd030       ?solveContactPreBlock_WriteBack@Dy@physx@@YAXPEIBUPxSolverConstraintDesc@2@IAEAUSolverContext@12@@Z 00000001800ce030 f   LowLevelDynamics_static_64:DySolverConstraintsBlock.obj
 0001:000cd160       ?solveContactPreBlock_WriteBackStatic@Dy@physx@@YAXPEIBUPxSolverConstraintDesc@2@IAEAUSolverContext@12@@Z 00000001800ce160 f   LowLevelDynamics_static_64:DySolverConstraintsBlock.obj
 0001:000cd290       ?solve1D4_Block@Dy@physx@@YAXPEIBUPxSolverConstraintDesc@2@IAEAUSolverContext@12@@Z 00000001800ce290 f   LowLevelDynamics_static_64:DySolverConstraintsBlock.obj
 0001:000cd2a0       ?solve1D4Block_Conclude@Dy@physx@@YAXPEIBUPxSolverConstraintDesc@2@IAEAUSolverContext@12@@Z 00000001800ce2a0 f   LowLevelDynamics_static_64:DySolverConstraintsBlock.obj
 0001:000cd310       ?solve1D4Block_WriteBack@Dy@physx@@YAXPEIBUPxSolverConstraintDesc@2@IAEAUSolverContext@12@@Z 00000001800ce310 f   LowLevelDynamics_static_64:DySolverConstraintsBlock.obj
 0001:000cd350       ?writeBack1D4Block@Dy@physx@@YAXPEIBUPxSolverConstraintDesc@2@IAEAUSolverContext@12@@Z 00000001800ce350 f   LowLevelDynamics_static_64:DySolverConstraintsBlock.obj
 0001:000ced60       ?solveContactCoulomb@Dy@physx@@YAXAEBUPxSolverConstraintDesc@2@AEAUSolverContext@12@@Z 00000001800cfd60 f   LowLevelDynamics_static_64:DySolverPFConstraints.obj
 0001:000cf020       ?solveFriction@Dy@physx@@YAXAEBUPxSolverConstraintDesc@2@AEAUSolverContext@12@@Z 00000001800d0020 f   LowLevelDynamics_static_64:DySolverPFConstraints.obj
 0001:000cf400       ?solveContactCoulomb_BStatic@Dy@physx@@YAXAEBUPxSolverConstraintDesc@2@AEAUSolverContext@12@@Z 00000001800d0400 f   LowLevelDynamics_static_64:DySolverPFConstraints.obj
 0001:000cf8c0       ?solveFriction_BStatic@Dy@physx@@YAXAEBUPxSolverConstraintDesc@2@AEAUSolverContext@12@@Z 00000001800d08c0 f   LowLevelDynamics_static_64:DySolverPFConstraints.obj
 0001:000cfb90       ?concludeContactCoulomb@Dy@physx@@YAXAEBUPxSolverConstraintDesc@2@AEAUSolverContext@12@@Z 00000001800d0b90 f   LowLevelDynamics_static_64:DySolverPFConstraints.obj
 0001:000cfcc0       ?writeBackContactCoulomb@Dy@physx@@YAXAEBUPxSolverConstraintDesc@2@AEAUSolverContext@12@AEAUPxSolverBodyData@2@2@Z 00000001800d0cc0 f   LowLevelDynamics_static_64:DySolverPFConstraints.obj
 0001:000cff70       ?solveFrictionBlock@Dy@physx@@YAXPEIBUPxSolverConstraintDesc@2@IAEAUSolverContext@12@@Z 00000001800d0f70 f   LowLevelDynamics_static_64:DySolverPFConstraints.obj
 0001:000d03b0       ?solveFrictionBlockWriteBack@Dy@physx@@YAXPEIBUPxSolverConstraintDesc@2@IAEAUSolverContext@12@@Z 00000001800d13b0 f   LowLevelDynamics_static_64:DySolverPFConstraints.obj
 0001:000d07f0       ?solveFriction_BStaticBlock@Dy@physx@@YAXPEIBUPxSolverConstraintDesc@2@IAEAUSolverContext@12@@Z 00000001800d17f0 f   LowLevelDynamics_static_64:DySolverPFConstraints.obj
 0001:000d0b00       ?solveFriction_BStaticConcludeBlock@Dy@physx@@YAXPEIBUPxSolverConstraintDesc@2@IAEAUSolverContext@12@@Z 00000001800d1b00 f   LowLevelDynamics_static_64:DySolverPFConstraints.obj
 0001:000d0e10       ?solveFriction_BStaticBlockWriteBack@Dy@physx@@YAXPEIBUPxSolverConstraintDesc@2@IAEAUSolverContext@12@@Z 00000001800d1e10 f   LowLevelDynamics_static_64:DySolverPFConstraints.obj
 0001:000d1120       ?solveContactCoulombBlock@Dy@physx@@YAXPEIBUPxSolverConstraintDesc@2@IAEAUSolverContext@12@@Z 00000001800d2120 f   LowLevelDynamics_static_64:DySolverPFConstraints.obj
 0001:000d1430       ?solveContactCoulombConcludeBlock@Dy@physx@@YAXPEIBUPxSolverConstraintDesc@2@IAEAUSolverContext@12@@Z 00000001800d2430 f   LowLevelDynamics_static_64:DySolverPFConstraints.obj
 0001:000d1490       ?solveContactCoulombBlockWriteBack@Dy@physx@@YAXPEIBUPxSolverConstraintDesc@2@IAEAUSolverContext@12@@Z 00000001800d2490 f   LowLevelDynamics_static_64:DySolverPFConstraints.obj
 0001:000d15a0       ?solveContactCoulomb_BStaticBlock@Dy@physx@@YAXPEIBUPxSolverConstraintDesc@2@IAEAUSolverContext@12@@Z 00000001800d25a0 f   LowLevelDynamics_static_64:DySolverPFConstraints.obj
 0001:000d1aa0       ?solveContactCoulomb_BStaticConcludeBlock@Dy@physx@@YAXPEIBUPxSolverConstraintDesc@2@IAEAUSolverContext@12@@Z 00000001800d2aa0 f   LowLevelDynamics_static_64:DySolverPFConstraints.obj
 0001:000d1b00       ?solveContactCoulomb_BStaticBlockWriteBack@Dy@physx@@YAXPEIBUPxSolverConstraintDesc@2@IAEAUSolverContext@12@@Z 00000001800d2b00 f   LowLevelDynamics_static_64:DySolverPFConstraints.obj
 0001:000d1c10       ?solveExtContactCoulomb@Dy@physx@@YAXAEBUPxSolverConstraintDesc@2@AEAUSolverContext@12@@Z 00000001800d2c10 f   LowLevelDynamics_static_64:DySolverPFConstraints.obj
 0001:000d1f90       ?solveExtFriction@Dy@physx@@YAXAEBUPxSolverConstraintDesc@2@AEAUSolverContext@12@@Z 00000001800d2f90 f   LowLevelDynamics_static_64:DySolverPFConstraints.obj
 0001:000d2520       ?solveExtFrictionBlock@Dy@physx@@YAXPEIBUPxSolverConstraintDesc@2@IAEAUSolverContext@12@@Z 00000001800d3520 f   LowLevelDynamics_static_64:DySolverPFConstraints.obj
 0001:000d2570       ?solveExtFrictionConcludeBlock@Dy@physx@@YAXPEIBUPxSolverConstraintDesc@2@IAEAUSolverContext@12@@Z 00000001800d3570 f   LowLevelDynamics_static_64:DySolverPFConstraints.obj
 0001:000d25c0       ?solveExtFrictionBlockWriteBack@Dy@physx@@YAXPEIBUPxSolverConstraintDesc@2@IAEAUSolverContext@12@@Z 00000001800d35c0 f   LowLevelDynamics_static_64:DySolverPFConstraints.obj
 0001:000d2610       ?solveConcludeExtContactCoulomb@Dy@physx@@YAXAEBUPxSolverConstraintDesc@2@AEAUSolverContext@12@@Z 00000001800d3610 f   LowLevelDynamics_static_64:DySolverPFConstraints.obj
 0001:000d2640       ?solveExtContactCoulombBlock@Dy@physx@@YAXPEIBUPxSolverConstraintDesc@2@IAEAUSolverContext@12@@Z 00000001800d3640 f   LowLevelDynamics_static_64:DySolverPFConstraints.obj
 0001:000d29f0       ?solveExtContactCoulombConcludeBlock@Dy@physx@@YAXPEIBUPxSolverConstraintDesc@2@IAEAUSolverContext@12@@Z 00000001800d39f0 f   LowLevelDynamics_static_64:DySolverPFConstraints.obj
 0001:000d2a50       ?solveExtContactCoulombBlockWriteBack@Dy@physx@@YAXPEIBUPxSolverConstraintDesc@2@IAEAUSolverContext@12@@Z 00000001800d3a50 f   LowLevelDynamics_static_64:DySolverPFConstraints.obj
 0001:000d2b80       ?solveConcludeContactCoulomb@Dy@physx@@YAXAEBUPxSolverConstraintDesc@2@AEAUSolverContext@12@@Z 00000001800d3b80 f   LowLevelDynamics_static_64:DySolverPFConstraints.obj
 0001:000d2bb0       ?solveConcludeContactCoulomb_BStatic@Dy@physx@@YAXAEBUPxSolverConstraintDesc@2@AEAUSolverContext@12@@Z 00000001800d3bb0 f   LowLevelDynamics_static_64:DySolverPFConstraints.obj
 0001:000d2be0       ?writeBackContactCoulomb4@Dy@physx@@YAXPEBUPxSolverConstraintDesc@2@AEAUSolverContext@12@PEIAPEBUPxSolverBodyData@2@2@Z 00000001800d3be0 f   LowLevelDynamics_static_64:DySolverPFConstraintsBlock.obj
 0001:000d32c0       ?solveContactCoulombPreBlock@Dy@physx@@YAXPEIBUPxSolverConstraintDesc@2@IAEAUSolverContext@12@@Z 00000001800d42c0 f   LowLevelDynamics_static_64:DySolverPFConstraintsBlock.obj
 0001:000d32d0       ?solveContactCoulombPreBlock_Static@Dy@physx@@YAXPEIBUPxSolverConstraintDesc@2@IAEAUSolverContext@12@@Z 00000001800d42d0 f   LowLevelDynamics_static_64:DySolverPFConstraintsBlock.obj
 0001:000d32e0       ?solveContactCoulombPreBlock_Conclude@Dy@physx@@YAXPEIBUPxSolverConstraintDesc@2@IAEAUSolverContext@12@@Z 00000001800d42e0 f   LowLevelDynamics_static_64:DySolverPFConstraintsBlock.obj
 0001:000d3320       ?solveContactCoulombPreBlock_ConcludeStatic@Dy@physx@@YAXPEIBUPxSolverConstraintDesc@2@IAEAUSolverContext@12@@Z 00000001800d4320 f   LowLevelDynamics_static_64:DySolverPFConstraintsBlock.obj
 0001:000d3360       ?solveContactCoulombPreBlock_WriteBack@Dy@physx@@YAXPEIBUPxSolverConstraintDesc@2@IAEAUSolverContext@12@@Z 00000001800d4360 f   LowLevelDynamics_static_64:DySolverPFConstraintsBlock.obj
 0001:000d3490       ?solveContactCoulombPreBlock_WriteBackStatic@Dy@physx@@YAXPEIBUPxSolverConstraintDesc@2@IAEAUSolverContext@12@@Z 00000001800d4490 f   LowLevelDynamics_static_64:DySolverPFConstraintsBlock.obj
 0001:000d35c0       ?solveFrictionCoulombPreBlock@Dy@physx@@YAXPEIBUPxSolverConstraintDesc@2@IAEAUSolverContext@12@@Z 00000001800d45c0 f   LowLevelDynamics_static_64:DySolverPFConstraintsBlock.obj
 0001:000d35d0       ?solveFrictionCoulombPreBlock_Static@Dy@physx@@YAXPEIBUPxSolverConstraintDesc@2@IAEAUSolverContext@12@@Z 00000001800d45d0 f   LowLevelDynamics_static_64:DySolverPFConstraintsBlock.obj
 0001:000d35e0       ?solveFrictionCoulombPreBlock_Conclude@Dy@physx@@YAXPEIBUPxSolverConstraintDesc@2@IAEAUSolverContext@12@@Z 00000001800d45e0 f   LowLevelDynamics_static_64:DySolverPFConstraintsBlock.obj
 0001:000d35f0       ?solveFrictionCoulombPreBlock_ConcludeStatic@Dy@physx@@YAXPEIBUPxSolverConstraintDesc@2@IAEAUSolverContext@12@@Z 00000001800d45f0 f   LowLevelDynamics_static_64:DySolverPFConstraintsBlock.obj
 0001:000d3600       ?solveFrictionCoulombPreBlock_WriteBack@Dy@physx@@YAXPEIBUPxSolverConstraintDesc@2@IAEAUSolverContext@12@@Z 00000001800d4600 f   LowLevelDynamics_static_64:DySolverPFConstraintsBlock.obj
 0001:000d3610       ?solveFrictionCoulombPreBlock_WriteBackStatic@Dy@physx@@YAXPEIBUPxSolverConstraintDesc@2@IAEAUSolverContext@12@@Z 00000001800d4610 f   LowLevelDynamics_static_64:DySolverPFConstraintsBlock.obj
 0001:000d4c60       ?setupFinalizeExtSolverContactsCoulomb@Dy@physx@@YA_NAEBVContactBuffer@Gu@2@AEBUCorrelationBuffer@12@AEBVPxTransform@2@2PEAEMMAEBVSolverExtBody@12@4IMMMMMMPEAUSpatialVectorF@Cm@2@@Z 00000001800d5c60 f   LowLevelDynamics_static_64:DyArticulationContactPrepPF.obj
 0001:000d59d0       ??0PruningStructure@Sq@physx@@QEAA@V?$PxFlags@W4Enum@PxBaseFlag@physx@@G@2@@Z 00000001800d69d0 f   SceneQuery_static_64:SqPruningStructure.obj
 0001:000d59f0       ?resolveReferences@PruningStructure@Sq@physx@@UEAAXAEAVPxDeserializationContext@3@@Z 00000001800d69f0 f   SceneQuery_static_64:SqPruningStructure.obj
 0001:000d5a70       ?createObject@PruningStructure@Sq@physx@@SAPEAV123@AEAPEAEAEAVPxDeserializationContext@3@@Z 00000001800d6a70 f   SceneQuery_static_64:SqPruningStructure.obj
 0001:000d5be0       ?exportExtraData@PruningStructure@Sq@physx@@QEAAXAEAVPxSerializationContext@3@@Z 00000001800d6be0 f   SceneQuery_static_64:SqPruningStructure.obj
 0001:000d5d00       ?importExtraData@PruningStructure@Sq@physx@@QEAAXAEAVPxDeserializationContext@3@@Z 00000001800d6d00 f   SceneQuery_static_64:SqPruningStructure.obj
 0001:000d5e10       ?requiresObjects@PruningStructure@Sq@physx@@UEAAXAEAVPxProcessPxBaseCallback@3@@Z 00000001800d6e10 f   SceneQuery_static_64:SqPruningStructure.obj
 0001:000d5e70       ?getRigidActors@PruningStructure@Sq@physx@@UEBAIPEAPEAVPxRigidActor@3@II@Z 00000001800d6e70 f   SceneQuery_static_64:SqPruningStructure.obj
 0001:000d5f00       ?release@PruningStructure@Sq@physx@@UEAAXXZ 00000001800d6f00 f   SceneQuery_static_64:SqPruningStructure.obj
 0001:000d5f60       ??0PruningStructure@Sq@physx@@QEAA@XZ 00000001800d6f60 f   SceneQuery_static_64:SqPruningStructure.obj
 0001:000d5fa0       ??1PruningStructure@Sq@physx@@UEAA@XZ 00000001800d6fa0 f   SceneQuery_static_64:SqPruningStructure.obj
 0001:000d6070       ?build@PruningStructure@Sq@physx@@QEAA_NPEBQEAVPxRigidActor@3@I@Z 00000001800d7070 f   SceneQuery_static_64:SqPruningStructure.obj
 0001:000d6710       ?invalidate@PruningStructure@Sq@physx@@QEAAXPEAVPxActor@3@@Z 00000001800d7710 f   SceneQuery_static_64:SqPruningStructure.obj
 0001:000d6770       ??1PxPruningStructure@physx@@MEAA@XZ 00000001800d7770 f i SceneQuery_static_64:SqPruningStructure.obj
 0001:000d6780       ??_GPruningStructure@Sq@physx@@UEAAPEAXI@Z 00000001800d7780 f i SceneQuery_static_64:SqPruningStructure.obj
 0001:000d6780       ??_EPruningStructure@Sq@physx@@UEAAPEAXI@Z 00000001800d7780 f i SceneQuery_static_64:SqPruningStructure.obj
 0001:000d6880       ??_EPxPruningStructure@physx@@MEAAPEAXI@Z 00000001800d7880 f i SceneQuery_static_64:SqPruningStructure.obj
 0001:000d6880       ??_GPxPruningStructure@physx@@MEAAPEAXI@Z 00000001800d7880 f i SceneQuery_static_64:SqPruningStructure.obj
 0001:000d68b0       ?getConcreteTypeName@PxPruningStructure@physx@@UEBAPEBDXZ 00000001800d78b0 f i SceneQuery_static_64:SqPruningStructure.obj
 0001:000d68c0       ?getNbRigidActors@PruningStructure@Sq@physx@@UEBAIXZ 00000001800d78c0 f i SceneQuery_static_64:SqPruningStructure.obj
 0001:000d68d0       ?isKindOf@PxPruningStructure@physx@@MEBA_NPEBD@Z 00000001800d78d0 f i SceneQuery_static_64:SqPruningStructure.obj
 0001:000d6920       ??0PrunerExt@Sq@physx@@QEAA@XZ 00000001800d7920 f   SceneQuery_static_64:SqSceneQueryManager.obj
 0001:000d6950       ??1PrunerExt@Sq@physx@@QEAA@XZ 00000001800d7950 f   SceneQuery_static_64:SqSceneQueryManager.obj
 0001:000d69e0       ?init@PrunerExt@Sq@physx@@QEAAXW4Enum@PxPruningStructureType@3@_KI@Z 00000001800d79e0 f   SceneQuery_static_64:SqSceneQueryManager.obj
 0001:000d6bb0       ?flushMemory@PrunerExt@Sq@physx@@QEAAXXZ 00000001800d7bb0 f   SceneQuery_static_64:SqSceneQueryManager.obj
 0001:000d6c00       ?preallocate@PrunerExt@Sq@physx@@QEAAXI@Z 00000001800d7c00 f   SceneQuery_static_64:SqSceneQueryManager.obj
 0001:000d6c50       ?flushShapes@PrunerExt@Sq@physx@@QEAAXI@Z 00000001800d7c50 f   SceneQuery_static_64:SqSceneQueryManager.obj
 0001:000d6d20       ?addToDirtyList@PrunerExt@Sq@physx@@QEAAXI@Z 00000001800d7d20 f   SceneQuery_static_64:SqSceneQueryManager.obj
 0001:000d6da0       ?isDirty@PrunerExt@Sq@physx@@QEBAHI@Z 00000001800d7da0 f   SceneQuery_static_64:SqSceneQueryManager.obj
 0001:000d6dd0       ?removeFromDirtyList@PrunerExt@Sq@physx@@QEAAXI@Z 00000001800d7dd0 f   SceneQuery_static_64:SqSceneQueryManager.obj
 0001:000d6e40       ?growDirtyList@PrunerExt@Sq@physx@@QEAAXI@Z 00000001800d7e40 f   SceneQuery_static_64:SqSceneQueryManager.obj
 0001:000d6eb0       ??0CompoundPrunerExt@Sq@physx@@QEAA@XZ 00000001800d7eb0 f   SceneQuery_static_64:SqSceneQueryManager.obj
 0001:000d6f00       ??1CompoundPrunerExt@Sq@physx@@QEAA@XZ 00000001800d7f00 f   SceneQuery_static_64:SqSceneQueryManager.obj
 0001:000d6f50       ?flushMemory@CompoundPrunerExt@Sq@physx@@QEAAXXZ 00000001800d7f50 f   SceneQuery_static_64:SqSceneQueryManager.obj
 0001:000d6f70       ?preallocate@CompoundPrunerExt@Sq@physx@@QEAAXI@Z 00000001800d7f70 f   SceneQuery_static_64:SqSceneQueryManager.obj
 0001:000d6f90       ?flushShapes@CompoundPrunerExt@Sq@physx@@QEAAXXZ 00000001800d7f90 f   SceneQuery_static_64:SqSceneQueryManager.obj
 0001:000d7090       ?addToDirtyList@CompoundPrunerExt@Sq@physx@@QEAAXII@Z 00000001800d8090 f   SceneQuery_static_64:SqSceneQueryManager.obj
 0001:000d70e0       ?isDirty@CompoundPrunerExt@Sq@physx@@QEBAHII@Z 00000001800d80e0 f   SceneQuery_static_64:SqSceneQueryManager.obj
 0001:000d71e0       ?removeFromDirtyList@CompoundPrunerExt@Sq@physx@@QEAAXII@Z 00000001800d81e0 f   SceneQuery_static_64:SqSceneQueryManager.obj
 0001:000d72c0       ?sync@DynamicBoundsSync@Sq@physx@@UEAAXPEBI0PEBVPxBounds3@3@IAEBV?$BitMapBase@VNonTrackingAllocator@shdfnd@physx@@@Cm@3@@Z 00000001800d82c0 f   SceneQuery_static_64:SqSceneQueryManager.obj
 0001:000d73e0       ??0SceneQueryManager@Sq@physx@@QEAA@AEAVScene@Scb@2@W4Enum@PxPruningStructureType@2@1IAEBVPxSceneLimits@2@@Z 00000001800d83e0 f   SceneQuery_static_64:SqSceneQueryManager.obj
 0001:000d76b0       ??1SceneQueryManager@Sq@physx@@QEAA@XZ 00000001800d86b0 f   SceneQuery_static_64:SqSceneQueryManager.obj
 0001:000d7770       ?addPrunerShape@SceneQueryManager@Sq@physx@@QEAA_KAEBVShape@Scb@3@AEBVActor@53@_NIPEBVPxBounds3@3@2@Z 00000001800d8770 f   SceneQuery_static_64:SqSceneQueryManager.obj
 0001:000d7940       ?removePrunerShape@SceneQueryManager@Sq@physx@@QEAAXI_K@Z 00000001800d8940 f   SceneQuery_static_64:SqSceneQueryManager.obj
 0001:000d7af0       ?getPayload@SceneQueryManager@Sq@physx@@QEBAAEBUPrunerPayload@23@I_K@Z 00000001800d8af0 f   SceneQuery_static_64:SqSceneQueryManager.obj
 0001:000d7b30       ?addPruningStructure@SceneQueryManager@Sq@physx@@QEAAXAEBVPruningStructure@23@@Z 00000001800d8b30 f   SceneQuery_static_64:SqSceneQueryManager.obj
 0001:000d7bc0       ?addCompoundShape@SceneQueryManager@Sq@physx@@QEAAXAEBVBVHStructure@Gu@3@IAEBVPxTransform@3@PEA_KPEAPEBVShape@Scb@3@AEBVActor@83@@Z 00000001800d8bc0 f   SceneQuery_static_64:SqSceneQueryManager.obj
 0001:000d7ea0       ?preallocate@SceneQueryManager@Sq@physx@@QEAAXII@Z 00000001800d8ea0 f   SceneQuery_static_64:SqSceneQueryManager.obj
 0001:000d7f20       ?markForUpdate@SceneQueryManager@Sq@physx@@QEAAXI_K@Z 00000001800d8f20 f   SceneQuery_static_64:SqSceneQueryManager.obj
 0001:000d8010       ?setDynamicTreeRebuildRateHint@SceneQueryManager@Sq@physx@@QEAAXI@Z 00000001800d9010 f   SceneQuery_static_64:SqSceneQueryManager.obj
 0001:000d8070       ?flushUpdates@SceneQueryManager@Sq@physx@@QEAAXXZ 00000001800d9070 f   SceneQuery_static_64:SqSceneQueryManager.obj
 0001:000d8100       ?forceDynamicTreeRebuild@SceneQueryManager@Sq@physx@@QEAAX_N0@Z 00000001800d9100 f   SceneQuery_static_64:SqSceneQueryManager.obj
 0001:000d81a0       ?sceneQueryBuildStep@SceneQueryManager@Sq@physx@@QEAAXW4Enum@PruningIndex@23@@Z 00000001800d91a0 f   SceneQuery_static_64:SqSceneQueryManager.obj
 0001:000d81f0       ?updateCompoundActors@SceneQueryManager@Sq@physx@@QEAAXPEBQEAVBodyCore@Sc@3@I@Z 00000001800d91f0 f   SceneQuery_static_64:SqSceneQueryManager.obj
 0001:000d8280       ?updateCompoundActor@SceneQueryManager@Sq@physx@@QEAAXIAEBVPxTransform@3@_N@Z 00000001800d9280 f   SceneQuery_static_64:SqSceneQueryManager.obj
 0001:000d82c0       ?removeCompoundActor@SceneQueryManager@Sq@physx@@QEAAXI_N@Z 00000001800d92c0 f   SceneQuery_static_64:SqSceneQueryManager.obj
 0001:000d8300       ?prepareSceneQueriesUpdate@SceneQueryManager@Sq@physx@@QEAA_NW4Enum@PruningIndex@23@@Z 00000001800d9300 f   SceneQuery_static_64:SqSceneQueryManager.obj
 0001:000d8330       ?afterSync@SceneQueryManager@Sq@physx@@QEAAXW4Enum@PxSceneQueryUpdateMode@3@@Z 00000001800d9330 f   SceneQuery_static_64:SqSceneQueryManager.obj
 0001:000d83d0       ?shiftOrigin@SceneQueryManager@Sq@physx@@QEAAXAEBVPxVec3@3@@Z 00000001800d93d0 f   SceneQuery_static_64:SqSceneQueryManager.obj
 0001:000d8430       ?flushMemory@SceneQueryManager@Sq@physx@@QEAAXXZ 00000001800d9430 f   SceneQuery_static_64:SqSceneQueryManager.obj
 0001:000d84b0       ?flushShapes@SceneQueryManager@Sq@physx@@AEAAXXZ 00000001800d94b0 f   SceneQuery_static_64:SqSceneQueryManager.obj
 0001:000d8660       ??1SqBoundsSync@Sc@physx@@UEAA@XZ 00000001800d9660 f i SceneQuery_static_64:SqSceneQueryManager.obj
 0001:000d8670       ??_GDynamicBoundsSync@Sq@physx@@UEAAPEAXI@Z 00000001800d9670 f i SceneQuery_static_64:SqSceneQueryManager.obj
 0001:000d8670       ??_EDynamicBoundsSync@Sq@physx@@UEAAPEAXI@Z 00000001800d9670 f i SceneQuery_static_64:SqSceneQueryManager.obj
 0001:000d86a0       ??_GSqBoundsSync@Sc@physx@@UEAAPEAXI@Z 00000001800d96a0 f i SceneQuery_static_64:SqSceneQueryManager.obj
 0001:000d86a0       ??_ESqBoundsSync@Sc@physx@@UEAAPEAXI@Z 00000001800d96a0 f i SceneQuery_static_64:SqSceneQueryManager.obj
 0001:000d86d0       ?clear@?$HashSetBase@V?$Pair@II@shdfnd@physx@@U?$Hash@V?$Pair@II@shdfnd@physx@@@23@VNonTrackingAllocator@23@$00@internal@shdfnd@physx@@QEAAXXZ 00000001800d96d0 f i SceneQuery_static_64:SqSceneQueryManager.obj
 0001:000d8760       ?count@?$BitMapBase@VNonTrackingAllocator@shdfnd@physx@@@Cm@physx@@QEBAIXZ 00000001800d9760 f i SceneQuery_static_64:SqSceneQueryManager.obj
 0001:000d8970       ?create@?$HashBase@V?$Pair@II@shdfnd@physx@@V123@U?$Hash@V?$Pair@II@shdfnd@physx@@@23@UGetKey@?$HashSetBase@V?$Pair@II@shdfnd@physx@@U?$Hash@V?$Pair@II@shdfnd@physx@@@23@VNonTrackingAllocator@23@$00@internal@23@VNonTrackingAllocator@23@$00@internal@shdfnd@physx@@QEAAPEAV?$Pair@II@34@AEBV534@AEA_N@Z 00000001800d9970 f i SceneQuery_static_64:SqSceneQueryManager.obj
 0001:000d8b50       ?eraseInternal@?$HashBase@V?$Pair@II@shdfnd@physx@@V123@U?$Hash@V?$Pair@II@shdfnd@physx@@@23@UGetKey@?$HashSetBase@V?$Pair@II@shdfnd@physx@@U?$Hash@V?$Pair@II@shdfnd@physx@@@23@VNonTrackingAllocator@23@$00@internal@23@VNonTrackingAllocator@23@$00@internal@shdfnd@physx@@AEAA_NPEAI@Z 00000001800d9b50 f i SceneQuery_static_64:SqSceneQueryManager.obj
 0001:000d8c60       ?recreate@?$Array@IV?$ReflectionAllocator@I@shdfnd@physx@@@shdfnd@physx@@IEAAXI@Z 00000001800d9c60 f i SceneQuery_static_64:SqSceneQueryManager.obj
 0001:000d8d20       ?reserveInternal@?$HashBase@V?$Pair@II@shdfnd@physx@@V123@U?$Hash@V?$Pair@II@shdfnd@physx@@@23@UGetKey@?$HashSetBase@V?$Pair@II@shdfnd@physx@@U?$Hash@V?$Pair@II@shdfnd@physx@@@23@VNonTrackingAllocator@23@$00@internal@23@VNonTrackingAllocator@23@$00@internal@shdfnd@physx@@AEAAXI@Z 00000001800d9d20 f i SceneQuery_static_64:SqSceneQueryManager.obj
 0001:000d8f20       ?resize@?$Array@IV?$ReflectionAllocator@I@shdfnd@physx@@@shdfnd@physx@@QEAAXIAEBI@Z 00000001800d9f20 f i SceneQuery_static_64:SqSceneQueryManager.obj
 0001:000d8fe0       ?init@BitArray@Sq@physx@@QEAA_NI@Z 00000001800d9fe0 f   SceneQuery_static_64:SqAABBTree.obj
 0001:000d9090       ?resize@BitArray@Sq@physx@@QEAAXI@Z 00000001800da090 f   SceneQuery_static_64:SqAABBTree.obj
 0001:000d9170       ??0AABBTree@Sq@physx@@QEAA@XZ 00000001800da170 f   SceneQuery_static_64:SqAABBTree.obj
 0001:000d91c0       ??1AABBTree@Sq@physx@@QEAA@XZ 00000001800da1c0 f   SceneQuery_static_64:SqAABBTree.obj
 0001:000d9220       ?build@AABBTree@Sq@physx@@QEAA_NAEAVAABBTreeBuildParams@Gu@3@@Z 00000001800da220 f   SceneQuery_static_64:SqAABBTree.obj
 0001:000d92a0       ?progressiveBuild@AABBTree@Sq@physx@@QEAAIAEAVAABBTreeBuildParams@Gu@3@AEAUBuildStats@53@II@Z 00000001800da2a0 f   SceneQuery_static_64:SqAABBTree.obj
 0001:000d9540       ?release@AABBTree@Sq@physx@@QEAAX_N@Z 00000001800da540 f   SceneQuery_static_64:SqAABBTree.obj
 0001:000d9660       ?mergeTree@AABBTree@Sq@physx@@QEAAXAEBVAABBTreeMergeData@23@@Z 00000001800da660 f   SceneQuery_static_64:SqAABBTree.obj
 0001:000d9960       ?initTree@AABBTree@Sq@physx@@QEAAXAEBVAABBTreeMergeData@23@@Z 00000001800da960 f   SceneQuery_static_64:SqAABBTree.obj
 0001:000d9a50       ?shiftOrigin@AABBTree@Sq@physx@@QEAAXAEBVPxVec3@3@@Z 00000001800daa50 f   SceneQuery_static_64:SqAABBTree.obj
 0001:000d9b10       ?shiftIndices@AABBTree@Sq@physx@@QEAAXI@Z 00000001800dab10 f   SceneQuery_static_64:SqAABBTree.obj
 0001:000d9b40       ?buildInit@AABBTree@Sq@physx@@AEAA_NAEAVAABBTreeBuildParams@Gu@3@AEAUBuildStats@53@@Z 00000001800dab40 f   SceneQuery_static_64:SqAABBTree.obj
 0001:000d9ba0       ?buildEnd@AABBTree@Sq@physx@@AEAAXAEAVAABBTreeBuildParams@Gu@3@AEAUBuildStats@53@@Z 00000001800daba0 f   SceneQuery_static_64:SqAABBTree.obj
 0001:000d9e00       ?mergeRuntimeNode@AABBTree@Sq@physx@@AEAAXAEAVAABBTreeRuntimeNode@23@AEBVAABBTreeMergeData@23@I@Z 00000001800dae00 f   SceneQuery_static_64:SqAABBTree.obj
 0001:000da0f0       ?mergeRuntimeLeaf@AABBTree@Sq@physx@@AEAAXAEAVAABBTreeRuntimeNode@23@AEBVAABBTreeMergeData@23@I@Z 00000001800db0f0 f   SceneQuery_static_64:SqAABBTree.obj
 0001:000da310       ?addRuntimeChilds@AABBTree@Sq@physx@@AEAAXAEAIAEBVAABBTreeMergeData@23@@Z 00000001800db310 f   SceneQuery_static_64:SqAABBTree.obj
 0001:000da420       ?traverseRuntimeNode@AABBTree@Sq@physx@@AEAAXAEAVAABBTreeRuntimeNode@23@AEBVAABBTreeMergeData@23@I@Z 00000001800db420 f   SceneQuery_static_64:SqAABBTree.obj
 0001:000da520       ?fullRefit@AABBTree@Sq@physx@@QEAAXPEBVPxBounds3@3@@Z 00000001800db520 f   SceneQuery_static_64:SqAABBTree.obj
 0001:000da640       ?markNodeForRefit@AABBTree@Sq@physx@@QEAAXI@Z 00000001800db640 f   SceneQuery_static_64:SqAABBTree.obj
 0001:000da7e0       ?refitMarkedNodes@AABBTree@Sq@physx@@QEAAXPEBVPxBounds3@3@@Z 00000001800db7e0 f   SceneQuery_static_64:SqAABBTree.obj
 0001:000da9a0       ?pop@FIFOStack@Sq@physx@@QEAA_NAEAPEAVAABBTreeBuildNode@Gu@3@@Z 00000001800db9a0 f   SceneQuery_static_64:SqAABBTree.obj
 0001:000da9e0       ?flatten@@YAXAEBVNodeAllocator@Gu@physx@@PEAVAABBTreeRuntimeNode@Sq@3@@Z 00000001800db9e0 f   SceneQuery_static_64:SqAABBTree.obj
 0001:000dab90       ??$?_UV?$ReflectionAllocator@VAABBTreeRuntimeNode@Sq@physx@@@shdfnd@physx@@@UserAllocated@shdfnd@physx@@SAPEAX_KV?$ReflectionAllocator@VAABBTreeRuntimeNode@Sq@physx@@@12@PEBDH@Z 00000001800dbb90 f i SceneQuery_static_64:SqAABBTree.obj
 0001:000dac30       ??0AABBTreeRuntimeNode@Sq@physx@@QEAA@XZ 00000001800dbc30 f i SceneQuery_static_64:SqAABBTree.obj
 0001:000dac40       ??1AABBTreeRuntimeNode@Sq@physx@@QEAA@XZ 00000001800dbc40 f i SceneQuery_static_64:SqAABBTree.obj
 0001:000dac50       ??_EAABBTreeRuntimeNode@Sq@physx@@QEAAPEAXI@Z 00000001800dbc50 f i SceneQuery_static_64:SqAABBTree.obj
 0001:000dade0       ?growAndPushBack@?$Array@PEAVAABBTreeBuildNode@Gu@physx@@V?$ReflectionAllocator@PEAVAABBTreeBuildNode@Gu@physx@@@shdfnd@3@@shdfnd@physx@@IEAAAEAPEAVAABBTreeBuildNode@Gu@3@AEBQEAV453@@Z 00000001800dbde0 f i SceneQuery_static_64:SqAABBTree.obj
 0001:000daf00       ?computeStaticWorldAABB@Sq@physx@@YAXAEAVPxBounds3@2@AEBVShape@Scb@2@AEBVActor@52@@Z 00000001800dbf00 f   SceneQuery_static_64:SqBounds.obj
 0001:000db0e0       ?computeDynamicWorldAABB@Sq@physx@@YAXAEAVPxBounds3@2@AEBVShape@Scb@2@AEBVActor@52@@Z 00000001800dc0e0 f   SceneQuery_static_64:SqBounds.obj
 0001:000db490       ??0BucketPrunerNode@Sq@physx@@QEAA@XZ 00000001800dc490 f   SceneQuery_static_64:SqBucketPruner.obj
 0001:000db550       ?classifyBoxes@BucketPrunerNode@Sq@physx@@QEAAXMMIPEIAUBucketBox@23@PEIBUPrunerPayload@23@0PEIAU523@_NI@Z 00000001800dc550 f   SceneQuery_static_64:SqBucketPruner.obj
 0001:000dba30       ??0BucketPrunerMap@Sq@physx@@QEAA@XZ 00000001800dca30 f   SceneQuery_static_64:SqBucketPruner.obj
 0001:000dba60       ??1BucketPrunerMap@Sq@physx@@QEAA@XZ 00000001800dca60 f   SceneQuery_static_64:SqBucketPruner.obj
 0001:000dba70       ?purge@BucketPrunerMap@Sq@physx@@QEAAXXZ 00000001800dca70 f   SceneQuery_static_64:SqBucketPruner.obj
 0001:000dbb00       ?shrinkMemory@BucketPrunerMap@Sq@physx@@QEAAXXZ 00000001800dcb00 f   SceneQuery_static_64:SqBucketPruner.obj
 0001:000dbb50       ?addPair@BucketPrunerMap@Sq@physx@@QEAAPEAUBucketPrunerPair@23@AEBUPrunerPayload@23@II@Z 00000001800dcb50 f   SceneQuery_static_64:SqBucketPruner.obj
 0001:000dbd50       ?removePair@BucketPrunerMap@Sq@physx@@QEAA_NAEBUPrunerPayload@23@AEAI1@Z 00000001800dcd50 f   SceneQuery_static_64:SqBucketPruner.obj
 0001:000dbee0       ?findPair@BucketPrunerMap@Sq@physx@@QEBAPEBUBucketPrunerPair@23@AEBUPrunerPayload@23@@Z 00000001800dcee0 f   SceneQuery_static_64:SqBucketPruner.obj
 0001:000dbfd0       ?removePairInternal@BucketPrunerMap@Sq@physx@@QEAAXAEBUPrunerPayload@23@II@Z 00000001800dcfd0 f   SceneQuery_static_64:SqBucketPruner.obj
 0001:000dc140       ?reallocPairs@BucketPrunerMap@Sq@physx@@QEAAXXZ 00000001800dd140 f   SceneQuery_static_64:SqBucketPruner.obj
 0001:000dc380       ?reserveMemory@BucketPrunerMap@Sq@physx@@QEAAXI@Z 00000001800dd380 f   SceneQuery_static_64:SqBucketPruner.obj
 0001:000dc3e0       ??0BucketPrunerCore@Sq@physx@@QEAA@_N@Z 00000001800dd3e0 f   SceneQuery_static_64:SqBucketPruner.obj
 0001:000dc750       ??1BucketPrunerCore@Sq@physx@@QEAA@XZ 00000001800dd750 f   SceneQuery_static_64:SqBucketPruner.obj
 0001:000dc850       ?release@BucketPrunerCore@Sq@physx@@QEAAXXZ 00000001800dd850 f   SceneQuery_static_64:SqBucketPruner.obj
 0001:000dc950       ?setExternalMemory@BucketPrunerCore@Sq@physx@@QEAAXIPEAVPxBounds3@3@PEAUPrunerPayload@23@@Z 00000001800dd950 f   SceneQuery_static_64:SqBucketPruner.obj
 0001:000dc970       ?addObject@BucketPrunerCore@Sq@physx@@QEAA_NAEBUPrunerPayload@23@AEBVPxBounds3@3@I@Z 00000001800dd970 f   SceneQuery_static_64:SqBucketPruner.obj
 0001:000dcba0       ?removeObject@BucketPrunerCore@Sq@physx@@QEAA_NAEBUPrunerPayload@23@AEAI@Z 00000001800ddba0 f   SceneQuery_static_64:SqBucketPruner.obj
 0001:000dcda0       ?updateObject@BucketPrunerCore@Sq@physx@@QEAA_NAEBVPxBounds3@3@AEBUPrunerPayload@23@@Z 00000001800ddda0 f   SceneQuery_static_64:SqBucketPruner.obj
 0001:000dce10       ?removeMarkedObjects@BucketPrunerCore@Sq@physx@@QEAAII@Z 00000001800dde10 f   SceneQuery_static_64:SqBucketPruner.obj
 0001:000dd110       ?raycast@BucketPrunerCore@Sq@physx@@QEBA_NAEBVPxVec3@3@0AEAMAEAUPrunerCallback@23@@Z 00000001800de110 f   SceneQuery_static_64:SqBucketPruner.obj
 0001:000dd150       ?overlap@BucketPrunerCore@Sq@physx@@QEBA_NAEBVShapeData@Gu@3@AEAUPrunerCallback@23@@Z 00000001800de150 f   SceneQuery_static_64:SqBucketPruner.obj
 0001:000dd440       ?sweep@BucketPrunerCore@Sq@physx@@QEBA_NAEBVShapeData@Gu@3@AEBVPxVec3@3@AEAMAEAUPrunerCallback@23@@Z 00000001800de440 f   SceneQuery_static_64:SqBucketPruner.obj
 0001:000dd510       ?shiftOrigin@BucketPrunerCore@Sq@physx@@QEAAXAEBVPxVec3@3@@Z 00000001800de510 f   SceneQuery_static_64:SqBucketPruner.obj
 0001:000ddda0       ?visualize@BucketPrunerCore@Sq@physx@@QEBAXAEAVRenderOutput@Cm@3@I@Z 00000001800deda0 f   SceneQuery_static_64:SqBucketPruner.obj
 0001:000de0f0       ?classifyBoxes@BucketPrunerCore@Sq@physx@@AEAAXXZ 00000001800df0f0 f   SceneQuery_static_64:SqBucketPruner.obj
 0001:000de940       ?allocateSortedMemory@BucketPrunerCore@Sq@physx@@AEAAXI@Z 00000001800df940 f   SceneQuery_static_64:SqBucketPruner.obj
 0001:000dea70       ?resizeCore@BucketPrunerCore@Sq@physx@@AEAAXXZ 00000001800dfa70 f   SceneQuery_static_64:SqBucketPruner.obj
 0001:000dec20       ??0BucketPruner@Sq@physx@@QEAA@XZ 00000001800dfc20 f   SceneQuery_static_64:SqBucketPruner.obj
 0001:000dec60       ??1BucketPruner@Sq@physx@@UEAA@XZ 00000001800dfc60 f   SceneQuery_static_64:SqBucketPruner.obj
 0001:000deca0       ?addObjects@BucketPruner@Sq@physx@@UEAA_NPEAIPEBVPxBounds3@3@PEBUPrunerPayload@23@I_N@Z 00000001800dfca0 f   SceneQuery_static_64:SqBucketPruner.obj
 0001:000ded20       ?removeObjects@BucketPruner@Sq@physx@@UEAAXPEBII@Z 00000001800dfd20 f   SceneQuery_static_64:SqBucketPruner.obj
 0001:000dedc0       ?updateObjectsAfterManualBoundsUpdates@BucketPruner@Sq@physx@@UEAAXPEBII@Z 00000001800dfdc0 f   SceneQuery_static_64:SqBucketPruner.obj
 0001:000dee00       ?updateObjectsAndInflateBounds@BucketPruner@Sq@physx@@UEAAXPEBI0PEBVPxBounds3@3@I@Z 00000001800dfe00 f   SceneQuery_static_64:SqBucketPruner.obj
 0001:000df0e0       ?commit@BucketPruner@Sq@physx@@UEAAXXZ 00000001800e00e0 f   SceneQuery_static_64:SqBucketPruner.obj
 0001:000df0f0       ?raycast@BucketPruner@Sq@physx@@UEBA_NAEBVPxVec3@3@0AEAMAEAUPrunerCallback@23@@Z 00000001800e00f0 f   SceneQuery_static_64:SqBucketPruner.obj
 0001:000df150       ?overlap@BucketPruner@Sq@physx@@UEBA_NAEBVShapeData@Gu@3@AEAUPrunerCallback@23@@Z 00000001800e0150 f   SceneQuery_static_64:SqBucketPruner.obj
 0001:000df170       ?sweep@BucketPruner@Sq@physx@@UEBA_NAEBVShapeData@Gu@3@AEBVPxVec3@3@AEAMAEAUPrunerCallback@23@@Z 00000001800e0170 f   SceneQuery_static_64:SqBucketPruner.obj
 0001:000df260       ?shiftOrigin@BucketPruner@Sq@physx@@UEAAXAEBVPxVec3@3@@Z 00000001800e0260 f   SceneQuery_static_64:SqBucketPruner.obj
 0001:000df270       ?visualize@BucketPruner@Sq@physx@@UEBAXAEAVRenderOutput@Cm@3@I@Z 00000001800e0270 f   SceneQuery_static_64:SqBucketPruner.obj
 0001:000e0ae0       ??0BucketBox@Sq@physx@@QEAA@XZ 00000001800e1ae0 f i SceneQuery_static_64:SqBucketPruner.obj
 0001:000e0af0       ??1Pruner@Sq@physx@@UEAA@XZ 00000001800e1af0 f i SceneQuery_static_64:SqBucketPruner.obj
 0001:000e0b00       ??R?$BucketPrunerOverlapTraversal@UBucketPrunerAABBAABBTest@@$00@@QEBA_NAEBVBucketPrunerCore@Sq@physx@@AEBUBucketPrunerAABBAABBTest@@AEAUPrunerCallback@23@AEBVPxBounds3@3@@Z 00000001800e1b00 f i SceneQuery_static_64:SqBucketPruner.obj
 0001:000e10f0       ??R?$BucketPrunerOverlapTraversal@UOBBAABBTest_SIMD@@$0A@@@QEBA_NAEBVBucketPrunerCore@Sq@physx@@AEBUOBBAABBTest_SIMD@@AEAUPrunerCallback@23@AEBVPxBounds3@3@@Z 00000001800e20f0 f i SceneQuery_static_64:SqBucketPruner.obj
 0001:000e1960       ??R?$BucketPrunerOverlapTraversal@USphereAABBTest_SIMD@@$00@@QEBA_NAEBVBucketPrunerCore@Sq@physx@@AEBUSphereAABBTest_SIMD@@AEAUPrunerCallback@23@AEBVPxBounds3@3@@Z 00000001800e2960 f i SceneQuery_static_64:SqBucketPruner.obj
 0001:000e1f30       ??_GBucketPruner@Sq@physx@@UEAAPEAXI@Z 00000001800e2f30 f i SceneQuery_static_64:SqBucketPruner.obj
 0001:000e1f30       ??_EBucketPruner@Sq@physx@@UEAAPEAXI@Z 00000001800e2f30 f i SceneQuery_static_64:SqBucketPruner.obj
 0001:000e1fb0       ??_GPruner@Sq@physx@@UEAAPEAXI@Z 00000001800e2fb0 f i SceneQuery_static_64:SqBucketPruner.obj
 0001:000e1fb0       ??_EPruner@Sq@physx@@UEAAPEAXI@Z 00000001800e2fb0 f i SceneQuery_static_64:SqBucketPruner.obj
 0001:000e2460       ?getPayload@BucketPruner@Sq@physx@@UEBAAEBUPrunerPayload@23@I@Z 00000001800e3460 f i SceneQuery_static_64:SqBucketPruner.obj
 0001:000e2480       ?getPayload@BucketPruner@Sq@physx@@UEBAAEBUPrunerPayload@23@IAEAPEAVPxBounds3@3@@Z 00000001800e3480 f i SceneQuery_static_64:SqBucketPruner.obj
 0001:000e24b0       ?merge@BucketPruner@Sq@physx@@UEAAXPEBX@Z 00000001800e34b0 f i SceneQuery_static_64:SqBucketPruner.obj
