 PhysXCommon_64

 Timestamp is 61c0b9c2 (Mon Dec 20 20:13:38 2021)

 Preferred load address is 0000000180000000

 Start         Length     Name                   Class
 0001:00000000 000028c0H .text$di                CODE
 0001:000028c0 0018bb10H .text$mn                CODE
 0001:0018e3d0 00000040H .text$mn$00             CODE
 0001:0018e410 000009f0H .text$x                 CODE
 0002:00000000 000002d0H .idata$5                DATA
 0002:000002d0 00000028H .00cfg                  DATA
 0002:000002f8 00000008H .CRT$XCA                DATA
 0002:00000300 00001428H .CRT$XCU                DATA
 0002:00001728 00000008H .CRT$XCZ                DATA
 0002:00001730 00000008H .CRT$XIA                DATA
 0002:00001738 00000018H .CRT$XIC                DATA
 0002:00001750 00000008H .CRT$XIZ                DATA
 0002:00001758 00000008H .CRT$XPA                DATA
 0002:00001760 00000010H .CRT$XPX                DATA
 0002:00001770 00000008H .CRT$XPXA               DATA
 0002:00001778 00000008H .CRT$XPZ                DATA
 0002:00001780 00000008H .CRT$XTA                DATA
 0002:00001788 00000008H .CRT$XTZ                DATA
 0002:00001790 00000000H .gehcont$y              DATA
 0002:00001790 00000000H .gfids$y                DATA
 0002:00001790 0000f5f0H .rdata                  DATA
 0002:00010d80 00000008H .rdata$CastGuardVftablesA DATA
 0002:00010d88 00000008H .rdata$CastGuardVftablesC DATA
 0002:00010d90 00000464H .rdata$r                DATA
 0002:000111f4 000000b0H .rdata$voltmd           DATA
 0002:000112a4 0000046cH .rdata$zzzdbg           DATA
 0002:00011710 00000008H .rtc$IAA                DATA
 0002:00011718 00000008H .rtc$IZZ                DATA
 0002:00011720 00000008H .rtc$TAA                DATA
 0002:00011728 00000008H .rtc$TZZ                DATA
 0002:00011730 000134c0H .xdata                  DATA
 0002:00024bf0 00000084H .xdata$x                DATA
 0002:00024c74 00000020H .didat$2                DATA
 0002:00024c94 00000024H .didat$3                DATA
 0002:00024cb8 00000088H .didat$4                DATA
 0002:00024d40 00000308H .didat$6                DATA
 0002:00025048 00000088H .didat$7                DATA
 0002:000250d0 0000a8d8H .edata                  DATA
 0002:0002f9a8 00000014H .idata$2                DATA
 0002:0002f9bc 00000014H .idata$3                DATA
 0002:0002f9d0 000002d0H .idata$4                DATA
 0002:0002fca0 00000694H .idata$6                DATA
 0003:00000000 000014a0H .data                   DATA
 0003:000014a0 000005f0H .data$r                 DATA
 0003:00001a90 000000f0H .data$rs                DATA
 0003:00001b80 00000090H .didat$5                DATA
 0003:00001c10 00004380H .bss                    DATA
 0004:00000000 0000ac5cH .pdata                  DATA
 0005:00000000 00002304H _RDATA                  DATA
 0006:00000000 000000a0H .rsrc$01                DATA
 0006:000000a0 000004b0H .rsrc$02                DATA

  Address         Publics by Value              Rva+Base               Lib:Object

 0000:00000000       __guard_iat_table          0000000000000000     <absolute>
 0000:00000000       __hybrid_auxiliary_iat_copy 0000000000000000     <absolute>
 0000:00000000       __hybrid_code_map_count    0000000000000000     <absolute>
 0000:00000000       __guard_fids_count         0000000000000000     <absolute>
 0000:00000000       __guard_longjmp_count      0000000000000000     <absolute>
 0000:00000000       __guard_eh_cont_count      0000000000000000     <absolute>
 0000:00000000       __x64_code_ranges_to_entry_points 0000000000000000     <absolute>
 0000:00000000       __AbsoluteZero             0000000000000000     <absolute>
 0000:00000000       ___safe_se_handler_table   0000000000000000     <absolute>
 0000:00000000       __arm64x_native_entrypoint 0000000000000000     <absolute>
 0000:00000000       __hybrid_code_map          0000000000000000     <absolute>
 0000:00000000       __guard_iat_count          0000000000000000     <absolute>
 0000:00000000       __guard_longjmp_table      0000000000000000     <absolute>
 0000:00000000       __arm64x_redirection_metadata_count 0000000000000000     <absolute>
 0000:00000000       __guard_check_icall_a64n_fptr 0000000000000000     <absolute>
 0000:00000000       __arm64x_extra_rfe_table   0000000000000000     <absolute>
 0000:00000000       __enclave_config           0000000000000000     <absolute>
 0000:00000000       __guard_eh_cont_table      0000000000000000     <absolute>
 0000:00000000       __dynamic_value_reloc_table 0000000000000000     <absolute>
 0000:00000000       __hybrid_auxiliary_iat     0000000000000000     <absolute>
 0000:00000000       __x64_code_ranges_to_entry_points_count 0000000000000000     <absolute>
 0000:00000000       __arm64x_extra_rfe_table_size 0000000000000000     <absolute>
 0000:00000000       __arm64x_redirection_metadata 0000000000000000     <absolute>
 0000:00000000       __guard_fids_table         0000000000000000     <absolute>
 0000:00000000       ___safe_se_handler_count   0000000000000000     <absolute>
 0000:00000100       __guard_flags              0000000000000100     <absolute>
 0000:00000000       __ImageBase                0000000180000000     <linker-defined>
 0001:000028c0       ?CompleteBoxPruning@Cm@physx@@YA_NPEBVPxBounds3@2@IAEAV?$Array@IV?$ReflectionAllocator@I@shdfnd@physx@@@shdfnd@2@AEBVAxes@Gu@2@@Z 00000001800038c0 f   CmBoxPruning.obj
 0001:00002be0       ?BipartiteBoxPruning@Cm@physx@@YA_NPEBVPxBounds3@2@I0IAEAV?$Array@IV?$ReflectionAllocator@I@shdfnd@physx@@@shdfnd@2@AEBVAxes@Gu@2@@Z 0000000180003be0 f   CmBoxPruning.obj
 0001:00003200       ??0Allocator@shdfnd@physx@@QEAA@PEBD@Z 0000000180004200 f i CmBoxPruning.obj
 0001:00003210       ??0PxFoundation@physx@@QEAA@AEBV01@@Z 0000000180004210 f i CmBoxPruning.obj
 0001:00003220       ??0PxFoundation@physx@@QEAA@XZ 0000000180004220 f i CmBoxPruning.obj
 0001:00003230       ??1PxFoundation@physx@@MEAA@XZ 0000000180004230 f i CmBoxPruning.obj
 0001:00003240       ??4Allocator@shdfnd@physx@@QEAAAEAV012@$$QEAV012@@Z 0000000180004240 f i CmBoxPruning.obj
 0001:00003250       ??4Allocator@shdfnd@physx@@QEAAAEAV012@AEBV012@@Z 0000000180004250 f i CmBoxPruning.obj
 0001:00003260       ??4PxFoundation@physx@@QEAAAEAV01@AEBV01@@Z 0000000180004260 f i CmBoxPruning.obj
 0001:00003270       ??_EPxFoundation@physx@@MEAAPEAXI@Z 0000000180004270 f i CmBoxPruning.obj
 0001:00003300       ??_FAllocator@shdfnd@physx@@QEAAXXZ 0000000180004300 f i CmBoxPruning.obj
 0001:00003310       ??_GPxFoundation@physx@@MEAAPEAXI@Z 0000000180004310 f i CmBoxPruning.obj
 0001:00003340       ??_I@YAXPEAX_K1P6AX0@Z@Z   0000000180004340 f i CmBoxPruning.obj
 0001:000033a0       ?GetNbHits@RadixSort@Cm@physx@@QEBAIXZ 00000001800043a0 f i CmBoxPruning.obj
 0001:000033b0       ?GetNbTotalCalls@RadixSort@Cm@physx@@QEBAIXZ 00000001800043b0 f i CmBoxPruning.obj
 0001:000033c0       ?GetRanks@RadixSort@Cm@physx@@QEBAPEBIXZ 00000001800043c0 f i CmBoxPruning.obj
 0001:000033d0       ?GetRecyclable@RadixSort@Cm@physx@@QEBAPEAIXZ 00000001800043d0 f i CmBoxPruning.obj
 0001:000033e0       ?growAndPushBack@?$Array@IV?$ReflectionAllocator@I@shdfnd@physx@@@shdfnd@physx@@IEAAAEAIAEBI@Z 00000001800043e0 f i CmBoxPruning.obj
 0001:00003500       ?invalidateRanks@RadixSort@Cm@physx@@QEAAXXZ 0000000180004500 f i CmBoxPruning.obj
 0001:00003510       ?PxCreateCollection@@YAPEAVPxCollection@physx@@XZ 0000000180004510 f   CmCollection.obj
 0001:00003610       ?add@Collection@Cm@physx@@UEAAXAEAVPxBase@3@_K@Z 0000000180004610 f   CmCollection.obj
 0001:00003700       ?remove@Collection@Cm@physx@@UEAAXAEAVPxBase@3@@Z 0000000180004700 f   CmCollection.obj
 0001:000037f0       ?contains@Collection@Cm@physx@@UEBA_NAEAVPxBase@3@@Z 00000001800047f0 f   CmCollection.obj
 0001:000038a0       ?addId@Collection@Cm@physx@@UEAAXAEAVPxBase@3@_K@Z 00000001800048a0 f   CmCollection.obj
 0001:000039d0       ?removeId@Collection@Cm@physx@@UEAAX_K@Z 00000001800049d0 f   CmCollection.obj
 0001:00003a50       ?find@Collection@Cm@physx@@UEBAPEAVPxBase@3@_K@Z 0000000180004a50 f   CmCollection.obj
 0001:00003a80       ?add@Collection@Cm@physx@@UEAAXAEAVPxCollection@3@@Z 0000000180004a80 f   CmCollection.obj
 0001:00003c20       ?remove@Collection@Cm@physx@@UEAAXAEAVPxCollection@3@@Z 0000000180004c20 f   CmCollection.obj
 0001:00003d40       ?getNbObjects@Collection@Cm@physx@@UEBAIXZ 0000000180004d40 f   CmCollection.obj
 0001:00003d50       ?getObject@Collection@Cm@physx@@UEBAAEAVPxBase@3@I@Z 0000000180004d50 f   CmCollection.obj
 0001:00003d70       ?getObjects@Collection@Cm@physx@@UEBAIPEAPEAVPxBase@3@II@Z 0000000180004d70 f   CmCollection.obj
 0001:00003dd0       ?getNbIds@Collection@Cm@physx@@UEBAIXZ 0000000180004dd0 f   CmCollection.obj
 0001:00003de0       ?getId@Collection@Cm@physx@@UEBA_KAEBVPxBase@3@@Z 0000000180004de0 f   CmCollection.obj
 0001:00003e90       ?getIds@Collection@Cm@physx@@UEBAIPEA_KII@Z 0000000180004e90 f   CmCollection.obj
 0001:00003f50       ??1PxCollection@physx@@MEAA@XZ 0000000180004f50 f i CmCollection.obj
 0001:00003f60       ??4MutexImpl@shdfnd@physx@@QEAAAEAV012@AEBV012@@Z 0000000180004f60 f i CmCollection.obj
 0001:00003f70       ??_GCollection@Cm@physx@@UEAAPEAXI@Z 0000000180004f70 f i CmCollection.obj
 0001:00003f70       ??_ECollection@Cm@physx@@UEAAPEAXI@Z 0000000180004f70 f i CmCollection.obj
 0001:00004020       ??_EPxCollection@physx@@MEAAPEAXI@Z 0000000180005020 f i CmCollection.obj
 0001:00004020       ??_GPxCollection@physx@@MEAAPEAXI@Z 0000000180005020 f i CmCollection.obj
 0001:00004050       ?__empty_global_delete@@YAXPEAX@Z 0000000180005050 f i CmCollection.obj
 0001:00004060       ?__empty_global_delete@@YAXPEAX_K@Z 0000000180005060 f i CmCollection.obj
 0001:00004070       ?create@?$HashBase@V?$Pair@$$CB_KPEAVPxBase@physx@@@shdfnd@physx@@_KU?$Hash@_K@23@UGetKey@?$HashMapBase@_KPEAVPxBase@physx@@U?$Hash@_K@shdfnd@2@VNonTrackingAllocator@42@@internal@23@VNonTrackingAllocator@23@$00@internal@shdfnd@physx@@QEAAPEAV?$Pair@$$CB_KPEAVPxBase@physx@@@34@AEB_KAEA_N@Z 0000000180005070 f i CmCollection.obj
 0001:00004210       ?create@?$HashBase@V?$Pair@QEAVPxBase@physx@@_K@shdfnd@physx@@PEAVPxBase@3@U?$Hash@PEAVPxBase@physx@@@23@UGetKey@?$HashMapBase@PEAVPxBase@physx@@_KU?$Hash@PEAVPxBase@physx@@@shdfnd@2@VNonTrackingAllocator@42@@internal@23@VNonTrackingAllocator@23@$00@internal@shdfnd@physx@@QEAAPEAV?$Pair@QEAVPxBase@physx@@_K@34@AEBQEAVPxBase@4@AEA_N@Z 0000000180005210 f i CmCollection.obj
 0001:000043b0       ?erase@?$HashBase@V?$Pair@$$CB_KPEAVPxBase@physx@@@shdfnd@physx@@_KU?$Hash@_K@23@UGetKey@?$HashMapBase@_KPEAVPxBase@physx@@U?$Hash@_K@shdfnd@2@VNonTrackingAllocator@42@@internal@23@VNonTrackingAllocator@23@$00@internal@shdfnd@physx@@QEAA_NAEB_K@Z 00000001800053b0 f i CmCollection.obj
 0001:00004550       ?erase@?$HashBase@V?$Pair@QEAVPxBase@physx@@_K@shdfnd@physx@@PEAVPxBase@3@U?$Hash@PEAVPxBase@physx@@@23@UGetKey@?$HashMapBase@PEAVPxBase@physx@@_KU?$Hash@PEAVPxBase@physx@@@shdfnd@2@VNonTrackingAllocator@42@@internal@23@VNonTrackingAllocator@23@$00@internal@shdfnd@physx@@QEAA_NAEBQEAVPxBase@4@@Z 0000000180005550 f i CmCollection.obj
 0001:000046f0       ?find@?$HashMapBase@_KPEAVPxBase@physx@@U?$Hash@_K@shdfnd@2@VNonTrackingAllocator@42@@internal@shdfnd@physx@@QEBAPEBV?$Pair@$$CB_KPEAVPxBase@physx@@@34@AEB_K@Z 00000001800056f0 f i CmCollection.obj
 0001:00004790       ?getAllocator@Foundation@shdfnd@physx@@QEAAAEAVPxAllocatorCallback@3@XZ 0000000180005790 f i CmCollection.obj
 0001:000047a0       ?getAllocatorCallback@Foundation@shdfnd@physx@@UEAAAEAVPxAllocatorCallback@3@XZ 00000001800057a0 f i CmCollection.obj
 0001:000047b0       ?getErrorCallback@Foundation@shdfnd@physx@@UEAAAEAVPxErrorCallback@3@XZ 00000001800057b0 f i CmCollection.obj
 0001:000047c0       ?getErrorLevel@Foundation@shdfnd@physx@@UEBA?AW4Enum@PxErrorCode@3@XZ 00000001800057c0 f i CmCollection.obj
 0001:000047d0       ?getInternalErrorCallback@Foundation@shdfnd@physx@@QEAAAEAVPxErrorCallback@3@XZ 00000001800057d0 f i CmCollection.obj
 0001:000047e0       ?getNamedAllocMap@Foundation@shdfnd@physx@@QEAAAEAV?$HashMap@PEBVNamedAllocator@shdfnd@physx@@PEBDU?$Hash@PEBVNamedAllocator@shdfnd@physx@@@23@VNonTrackingAllocator@23@@23@XZ 00000001800057e0 f i CmCollection.obj
 0001:000047f0       ?getNamedAllocMutex@Foundation@shdfnd@physx@@QEAAAEAV?$MutexT@VAllocator@shdfnd@physx@@@23@XZ 00000001800057f0 f i CmCollection.obj
 0001:00004800       ?getReportAllocationNames@Foundation@shdfnd@physx@@UEBA_NXZ 0000000180005800 f i CmCollection.obj
 0001:00004810       ?getTempAllocFreeTable@Foundation@shdfnd@physx@@QEAAAEAV?$Array@PEATTempAllocatorChunk@shdfnd@physx@@VAllocator@23@@23@XZ 0000000180005810 f i CmCollection.obj
 0001:00004820       ?getTempAllocMutex@Foundation@shdfnd@physx@@QEAAAEAV?$MutexT@VAllocator@shdfnd@physx@@@23@XZ 0000000180005820 f i CmCollection.obj
 0001:00004830       ?release@Collection@Cm@physx@@UEAAXXZ 0000000180005830 f i CmCollection.obj
 0001:00004850       ?reserveInternal@?$HashBase@V?$Pair@$$CB_KPEAVPxBase@physx@@@shdfnd@physx@@_KU?$Hash@_K@23@UGetKey@?$HashMapBase@_KPEAVPxBase@physx@@U?$Hash@_K@shdfnd@2@VNonTrackingAllocator@42@@internal@23@VNonTrackingAllocator@23@$00@internal@shdfnd@physx@@AEAAXI@Z 0000000180005850 f i CmCollection.obj
 0001:00004a30       ?reserveInternal@?$HashBase@V?$Pair@QEAVPxBase@physx@@_K@shdfnd@physx@@PEAVPxBase@3@U?$Hash@PEAVPxBase@physx@@@23@UGetKey@?$HashMapBase@PEAVPxBase@physx@@_KU?$Hash@PEAVPxBase@physx@@@shdfnd@2@VNonTrackingAllocator@42@@internal@23@VNonTrackingAllocator@23@$00@internal@shdfnd@physx@@AEAAXI@Z 0000000180005a30 f i CmCollection.obj
 0001:00004c10       ?setErrorLevel@Foundation@shdfnd@physx@@UEAAXW4Enum@PxErrorCode@3@@Z 0000000180005c10 f i CmCollection.obj
 0001:00004c20       ?setReportAllocationNames@Foundation@shdfnd@physx@@UEAAX_N@Z 0000000180005c20 f i CmCollection.obj
 0001:00004c30       ?PxTransformFromPlaneEquation@physx@@YA?AVPxTransform@1@AEBVPxPlane@1@@Z 0000000180005c30 f   CmMathUtils.obj
 0001:00004e00       ?PxTransformFromSegment@physx@@YA?AVPxTransform@1@AEBVPxVec3@1@0PEAM@Z 0000000180005e00 f   CmMathUtils.obj
 0001:00004f70       ??0PtrTable@Cm@physx@@QEAA@XZ 0000000180005f70 f   CmPtrTable.obj
 0001:00004f90       ??1PtrTable@Cm@physx@@QEAA@XZ 0000000180005f90 f   CmPtrTable.obj
 0001:00004fa0       ?add@PtrTable@Cm@physx@@QEAAXPEAXAEAVPtrTableStorageManager@23@@Z 0000000180005fa0 f   CmPtrTable.obj
 0001:00005070       ?replaceWithLast@PtrTable@Cm@physx@@QEAAXIAEAVPtrTableStorageManager@23@@Z 0000000180006070 f   CmPtrTable.obj
 0001:00005170       ?clear@PtrTable@Cm@physx@@QEAAXAEAVPtrTableStorageManager@23@@Z 0000000180006170 f   CmPtrTable.obj
 0001:000051f0       ?find@PtrTable@Cm@physx@@QEBAIPEBX@Z 00000001800061f0 f   CmPtrTable.obj
 0001:00005230       ?exportExtraData@PtrTable@Cm@physx@@QEAAXAEAVPxSerializationContext@3@@Z 0000000180006230 f   CmPtrTable.obj
 0001:00005280       ?importExtraData@PtrTable@Cm@physx@@QEAAXAEAVPxDeserializationContext@3@@Z 0000000180006280 f   CmPtrTable.obj
 0001:000052b0       ?getBinaryMetaData@PtrTable@Cm@physx@@SAXAEAVPxOutputStream@3@@Z 00000001800062b0 f   CmPtrTable.obj
 0001:00005470       ?realloc@PtrTable@Cm@physx@@AEAAXIIAEAVPtrTableStorageManager@23@@Z 0000000180006470 f   CmPtrTable.obj
 0001:00005500       ??0PtrTable@Cm@physx@@QEAA@W4PxEMPTY@2@@Z 0000000180006500 f i CmPtrTable.obj
 0001:00005520       ??4PtrTable@Cm@physx@@QEAAAEAU012@AEBU012@@Z 0000000180006520 f i CmPtrTable.obj
 0001:00005530       ?getCount@PtrTable@Cm@physx@@QEBAIXZ 0000000180006530 f i CmPtrTable.obj
 0001:00005540       ?getPtrs@PtrTable@Cm@physx@@QEAAPEAPEAXXZ 0000000180006540 f i CmPtrTable.obj
 0001:00005550       ?getPtrs@PtrTable@Cm@physx@@QEBAPEBQEAXXZ 0000000180006550 f i CmPtrTable.obj
 0001:00005560       ??0RadixSort@Cm@physx@@QEAA@XZ 0000000180006560 f   CmRadixSort.obj
 0001:000055a0       ??1RadixSort@Cm@physx@@UEAA@XZ 00000001800065a0 f   CmRadixSort.obj
 0001:000055c0       ?Sort@RadixSort@Cm@physx@@QEAAAEAV123@PEBIIW4RadixHint@23@@Z 00000001800065c0 f   CmRadixSort.obj
 0001:00005c10       ?Sort@RadixSort@Cm@physx@@QEAAAEAV123@PEBMI@Z 0000000180006c10 f   CmRadixSort.obj
 0001:00006370       ?SetBuffers@RadixSort@Cm@physx@@QEAA_NPEAI00PEAPEAI@Z 0000000180007370 f   CmRadixSort.obj
 0001:000063b0       ??_ERadixSort@Cm@physx@@UEAAPEAXI@Z 00000001800073b0 f i CmRadixSort.obj
 0001:00006440       ??_GRadixSort@Cm@physx@@UEAAPEAXI@Z 0000000180007440 f i CmRadixSort.obj
 0001:00006470       ??0RadixSortBuffered@Cm@physx@@QEAA@XZ 0000000180007470 f   CmRadixSortBuffered.obj
 0001:000064a0       ??1RadixSortBuffered@Cm@physx@@UEAA@XZ 00000001800074a0 f   CmRadixSortBuffered.obj
 0001:000064d0       ?reset@RadixSortBuffered@Cm@physx@@QEAAXXZ 00000001800074d0 f   CmRadixSortBuffered.obj
 0001:00006550       ?Sort@RadixSortBuffered@Cm@physx@@QEAAAEAV123@PEBIIW4RadixHint@23@@Z 0000000180007550 f   CmRadixSortBuffered.obj
 0001:000065f0       ?Sort@RadixSortBuffered@Cm@physx@@QEAAAEAV123@PEBMI@Z 00000001800075f0 f   CmRadixSortBuffered.obj
 0001:00006680       ?Resize@RadixSortBuffered@Cm@physx@@AEAA_NI@Z 0000000180007680 f   CmRadixSortBuffered.obj
 0001:00006770       ??_ERadixSortBuffered@Cm@physx@@UEAAPEAXI@Z 0000000180007770 f i CmRadixSortBuffered.obj
 0001:000068a0       ??_GRadixSortBuffered@Cm@physx@@UEAAPEAXI@Z 00000001800078a0 f i CmRadixSortBuffered.obj
 0001:000068f0       ?CheckResize@RadixSortBuffered@Cm@physx@@AEAAXI@Z 00000001800078f0 f i CmRadixSortBuffered.obj
 0001:00006930       ??6RenderOutput@Cm@physx@@QEAAAEAV012@W4Primitive@012@@Z 0000000180007930 f   CmRenderOutput.obj
 0001:00006950       ??6RenderOutput@Cm@physx@@QEAAAEAV012@I@Z 0000000180007950 f   CmRenderOutput.obj
 0001:00006960       ??6RenderOutput@Cm@physx@@QEAAAEAV012@AEBVPxMat44@2@@Z 0000000180007960 f   CmRenderOutput.obj
 0001:000069d0       ??6RenderOutput@Cm@physx@@QEAAAEAV012@AEBVPxTransform@2@@Z 00000001800079d0 f   CmRenderOutput.obj
 0001:00006b60       ??6RenderOutput@Cm@physx@@QEAAAEAV012@VPxVec3@2@@Z 0000000180007b60 f   CmRenderOutput.obj
 0001:000070b0       ??6RenderOutput@Cm@physx@@QEAAAEAV012@AEBUDebugText@12@@Z 00000001800080b0 f   CmRenderOutput.obj
 0001:000072d0       ?outputCapsule@RenderOutput@Cm@physx@@QEAAAEAV123@MMAEBVPxMat44@3@@Z 00000001800082d0 f   CmRenderOutput.obj
 0001:00007db0       ??0DebugText@Cm@physx@@QEAA@AEBVPxVec3@2@MPEBDZZ 0000000180008db0 f   CmRenderOutput.obj
 0001:00007e10       ??6Cm@physx@@YAAEAVRenderOutput@01@AEAV201@AEBUDebugBox@01@@Z 0000000180008e10 f   CmRenderOutput.obj
 0001:00008310       ??6Cm@physx@@YAAEAVRenderOutput@01@AEAV201@AEBUDebugArrow@01@@Z 0000000180009310 f   CmRenderOutput.obj
 0001:00008710       ??6Cm@physx@@YAAEAVRenderOutput@01@AEAV201@AEBUDebugBasis@01@@Z 0000000180009710 f   CmRenderOutput.obj
 0001:00008810       ??6Cm@physx@@YAAEAVRenderOutput@01@AEAV201@AEBUDebugCircle@01@@Z 0000000180009810 f   CmRenderOutput.obj
 0001:00008900       ??6Cm@physx@@YAAEAVRenderOutput@01@AEAV201@AEBUDebugArc@01@@Z 0000000180009900 f   CmRenderOutput.obj
 0001:00008a00       ??0DebugText@Cm@physx@@QEAA@$$QEAU012@@Z 0000000180009a00 f i CmRenderOutput.obj
 0001:00008ae0       ??0DebugText@Cm@physx@@QEAA@AEBU012@@Z 0000000180009ae0 f i CmRenderOutput.obj
 0001:00008bc0       ??0RenderOutput@Cm@physx@@QEAA@AEAVRenderBuffer@12@@Z 0000000180009bc0 f i CmRenderOutput.obj
 0001:00008c10       ??0RenderOutput@Cm@physx@@QEAA@AEBV012@@Z 0000000180009c10 f i CmRenderOutput.obj
 0001:00008cb0       ??4DebugText@Cm@physx@@QEAAAEAU012@$$QEAU012@@Z 0000000180009cb0 f i CmRenderOutput.obj
 0001:00008de0       ??4DebugText@Cm@physx@@QEAAAEAU012@AEBU012@@Z 0000000180009de0 f i CmRenderOutput.obj
 0001:00008f10       ?allocate@?$Array@DV?$ReflectionAllocator@D@shdfnd@physx@@@shdfnd@physx@@IEAAPEADI@Z 0000000180009f10 f i CmRenderOutput.obj
 0001:00008f90       ?allocate@?$Array@UPxDebugLine@physx@@V?$ReflectionAllocator@UPxDebugLine@physx@@@shdfnd@2@@shdfnd@physx@@IEAAPEAUPxDebugLine@3@I@Z 0000000180009f90 f i CmRenderOutput.obj
 0001:00009030       ?allocate@?$Array@UPxDebugPoint@physx@@V?$ReflectionAllocator@UPxDebugPoint@physx@@@shdfnd@2@@shdfnd@physx@@IEAAPEAUPxDebugPoint@3@I@Z 000000018000a030 f i CmRenderOutput.obj
 0001:000090d0       ?allocate@?$Array@UPxDebugText@physx@@V?$ReflectionAllocator@UPxDebugText@physx@@@shdfnd@2@@shdfnd@physx@@IEAAPEAUPxDebugText@3@I@Z 000000018000a0d0 f i CmRenderOutput.obj
 0001:00009170       ?allocate@?$Array@UPxDebugTriangle@physx@@V?$ReflectionAllocator@UPxDebugTriangle@physx@@@shdfnd@2@@shdfnd@physx@@IEAAPEAUPxDebugTriangle@3@I@Z 000000018000a170 f i CmRenderOutput.obj
 0001:00009210       ?copy@?$Array@UPxDebugLine@physx@@V?$ReflectionAllocator@UPxDebugLine@physx@@@shdfnd@2@@shdfnd@physx@@KAXPEAUPxDebugLine@3@0PEBU43@@Z 000000018000a210 f i CmRenderOutput.obj
 0001:000093c0       ?copy@?$Array@UPxDebugPoint@physx@@V?$ReflectionAllocator@UPxDebugPoint@physx@@@shdfnd@2@@shdfnd@physx@@KAXPEAUPxDebugPoint@3@0PEBU43@@Z 000000018000a3c0 f i CmRenderOutput.obj
 0001:000094c0       ?copy@?$Array@UPxDebugText@physx@@V?$ReflectionAllocator@UPxDebugText@physx@@@shdfnd@2@@shdfnd@physx@@KAXPEAUPxDebugText@3@0PEBU43@@Z 000000018000a4c0 f i CmRenderOutput.obj
 0001:00009630       ?copy@?$Array@UPxDebugTriangle@physx@@V?$ReflectionAllocator@UPxDebugTriangle@physx@@@shdfnd@2@@shdfnd@physx@@KAXPEAUPxDebugTriangle@3@0PEBU43@@Z 000000018000a630 f i CmRenderOutput.obj
 0001:00009830       ?growAndPushBack@?$Array@DV?$ReflectionAllocator@D@shdfnd@physx@@@shdfnd@physx@@IEAAAEADAEBD@Z 000000018000a830 f i CmRenderOutput.obj
 0001:000098f0       ?growAndPushBack@?$Array@UPxDebugLine@physx@@V?$ReflectionAllocator@UPxDebugLine@physx@@@shdfnd@2@@shdfnd@physx@@IEAAAEAUPxDebugLine@3@AEBU43@@Z 000000018000a8f0 f i CmRenderOutput.obj
 0001:000099c0       ?growAndPushBack@?$Array@UPxDebugPoint@physx@@V?$ReflectionAllocator@UPxDebugPoint@physx@@@shdfnd@2@@shdfnd@physx@@IEAAAEAUPxDebugPoint@3@AEBU43@@Z 000000018000a9c0 f i CmRenderOutput.obj
 0001:00009a80       ?growAndPushBack@?$Array@UPxDebugText@physx@@V?$ReflectionAllocator@UPxDebugText@physx@@@shdfnd@2@@shdfnd@physx@@IEAAAEAUPxDebugText@3@AEBU43@@Z 000000018000aa80 f i CmRenderOutput.obj
 0001:00009b50       ?growAndPushBack@?$Array@UPxDebugTriangle@physx@@V?$ReflectionAllocator@UPxDebugTriangle@physx@@@shdfnd@2@@shdfnd@physx@@IEAAAEAUPxDebugTriangle@3@AEBU43@@Z 000000018000ab50 f i CmRenderOutput.obj
 0001:00009c50       ?outputSegment@RenderOutput@Cm@physx@@QEAAXAEBVPxVec3@3@0@Z 000000018000ac50 f i CmRenderOutput.obj
 0001:00009d10       ?recreate@?$Array@DV?$ReflectionAllocator@D@shdfnd@physx@@@shdfnd@physx@@IEAAXI@Z 000000018000ad10 f i CmRenderOutput.obj
 0001:00009db0       ?recreate@?$Array@UPxDebugLine@physx@@V?$ReflectionAllocator@UPxDebugLine@physx@@@shdfnd@2@@shdfnd@physx@@IEAAXI@Z 000000018000adb0 f i CmRenderOutput.obj
 0001:00009e40       ?reserveSegments@RenderOutput@Cm@physx@@QEAAPEAUPxDebugLine@3@I@Z 000000018000ae40 f i CmRenderOutput.obj
 0001:00009eb0       ?visualizeJointFrames@Cm@physx@@YAXAEAVRenderOutput@12@MAEBVPxTransform@2@1@Z 000000018000aeb0 f   CmVisualization.obj
 0001:00009f80       ?visualizeLinearLimit@Cm@physx@@YAXAEAVRenderOutput@12@MAEBVPxTransform@2@1M_N@Z 000000018000af80 f   CmVisualization.obj
 0001:0000a210       ?visualizeAngularLimit@Cm@physx@@YAXAEAVRenderOutput@12@MAEBVPxTransform@2@MM_N@Z 000000018000b210 f   CmVisualization.obj
 0001:0000a3e0       ?visualizeLimitCone@Cm@physx@@YAXAEAVRenderOutput@12@MAEBVPxTransform@2@MM_N@Z 000000018000b3e0 f   CmVisualization.obj
 0001:0000a680       ?visualizeDoubleCone@Cm@physx@@YAXAEAVRenderOutput@12@MAEBVPxTransform@2@M_N@Z 000000018000b680 f   CmVisualization.obj
 0001:0000a8e0       ??DPxQuat@physx@@QEBA?AV01@AEBV01@@Z 000000018000b8e0 f i CmVisualization.obj
 0001:0000aa20       ??0CmModuleUpdateLoader@Cm@physx@@QEAA@PEBD@Z 000000018000ba20 f   CmWindowsModuleUpdateLoader.obj
 0001:0000aa70       ??1CmModuleUpdateLoader@Cm@physx@@QEAA@XZ 000000018000ba70 f   CmWindowsModuleUpdateLoader.obj
 0001:0000aaa0       ?LoadModule@CmModuleUpdateLoader@Cm@physx@@QEAAPEAUHINSTANCE__@@PEBD0@Z 000000018000baa0 f   CmWindowsModuleUpdateLoader.obj
 0001:0000aac0       ??4CmModuleUpdateLoader@Cm@physx@@QEAAAEAV012@AEBV012@@Z 000000018000bac0 f i CmWindowsModuleUpdateLoader.obj
 0001:0000aad0       PxSetPhysXCommonDelayLoadHook 000000018000bad0 f   CmWindowsDelayLoadHook.obj
 0001:0000aae0       ?delayHook@@YAP6A_JXZIPEAUDelayLoadInfo@@@Z 000000018000bae0 f   CmWindowsDelayLoadHook.obj
 0001:0000abc0       ?computeBounds@Gu@physx@@YAXAEAVPxBounds3@2@AEBVPxGeometry@2@AEBVPxTransform@2@MPEIBVCenterExtentsPadded@12@M@Z 000000018000bbc0 f   GuBounds.obj
 0001:0000b4a0       ?computeBoundsWithCCDThreshold@Gu@physx@@YAMAEAVVec3p@12@0AEBVPxGeometry@2@AEBVPxTransform@2@PEIBVCenterExtentsPadded@12@@Z 000000018000c4a0 f   GuBounds.obj
 0001:0000ba60       ??0ShapeData@Gu@physx@@QEAA@AEBVPxGeometry@2@AEBVPxTransform@2@M@Z 000000018000ca60 f   GuBounds.obj
 0001:0000bfc0       ??0Box@Gu@physx@@QEAA@AEBV012@@Z 000000018000cfc0 f i GuBounds.obj
 0001:0000c020       ??0Box@Gu@physx@@QEAA@AEBVPxVec3@2@0AEBVPxMat33@2@@Z 000000018000d020 f i GuBounds.obj
 0001:0000c090       ??0Box@Gu@physx@@QEAA@XZ   000000018000d090 f i GuBounds.obj
 0001:0000c0a0       ??0ConvexMesh@Gu@physx@@QEAA@V?$PxFlags@W4Enum@PxBaseFlag@physx@@G@2@@Z 000000018000d0a0 f i GuBounds.obj
 0001:0000c0f0       ??0HeightFieldData@Gu@physx@@QEAA@$$QEAU012@@Z 000000018000d0f0 f i GuBounds.obj
 0001:0000c150       ??0HeightFieldData@Gu@physx@@QEAA@AEBU012@@Z 000000018000d150 f i GuBounds.obj
 0001:0000c1b0       ??0HeightFieldData@Gu@physx@@QEAA@W4PxEMPTY@2@@Z 000000018000d1b0 f i GuBounds.obj
 0001:0000c1c0       ??0HeightFieldData@Gu@physx@@QEAA@XZ 000000018000d1c0 f i GuBounds.obj
 0001:0000c1d0       ??0PxQuat@physx@@QEAA@AEBVPxMat33@1@@Z 000000018000d1d0 f i GuBounds.obj
 0001:0000c3b0       ??0PxVec3@physx@@QEAA@XZ   000000018000d3b0 f i GuBounds.obj
 0001:0000c3c0       ??0PxVec4@physx@@QEAA@XZ   000000018000d3c0 f i GuBounds.obj
 0001:0000c3d0       ??1Box@Gu@physx@@QEAA@XZ   000000018000d3d0 f i GuBounds.obj
 0001:0000c3e0       ??1HeightFieldData@Gu@physx@@QEAA@XZ 000000018000d3e0 f i GuBounds.obj
 0001:0000c3f0       ??1PxBase@physx@@MEAA@XZ   000000018000d3f0 f i GuBounds.obj
 0001:0000c400       ??1PxConvexMesh@physx@@MEAA@XZ 000000018000d400 f i GuBounds.obj
 0001:0000c410       ??1PxHeightField@physx@@MEAA@XZ 000000018000d410 f i GuBounds.obj
 0001:0000c420       ??1RefCountable@Cm@physx@@UEAA@XZ 000000018000d420 f i GuBounds.obj
 0001:0000c430       ??4Box@Gu@physx@@QEAAAEBV012@AEBV012@@Z 000000018000d430 f i GuBounds.obj
 0001:0000c490       ??4HeightFieldData@Gu@physx@@QEAAAEAU012@$$QEAU012@@Z 000000018000d490 f i GuBounds.obj
 0001:0000c4f0       ??4HeightFieldData@Gu@physx@@QEAAAEAU012@AEBU012@@Z 000000018000d4f0 f i GuBounds.obj
 0001:0000c550       ??_EConvexMesh@Gu@physx@@UEAAPEAXI@Z 000000018000d550 f i GuBounds.obj
 0001:0000c65c       ??_EConvexMesh@Gu@physx@@WBA@EAAPEAXI@Z 000000018000d65c f i GuBounds.obj
 0001:0000c670       ??_EPxConvexMesh@physx@@MEAAPEAXI@Z 000000018000d670 f i GuBounds.obj
 0001:0000c700       ??_GPxBase@physx@@MEAAPEAXI@Z 000000018000d700 f i GuBounds.obj
 0001:0000c700       ??_EPxBase@physx@@MEAAPEAXI@Z 000000018000d700 f i GuBounds.obj
 0001:0000c730       ??_GRefCountable@Cm@physx@@UEAAPEAXI@Z 000000018000d730 f i GuBounds.obj
 0001:0000c730       ??_ERefCountable@Cm@physx@@UEAAPEAXI@Z 000000018000d730 f i GuBounds.obj
 0001:0000c760       ??_H@YAXPEAX_K1P6APEAX0@Z@Z 000000018000d760 f i GuBounds.obj
 0001:0000c7b0       ?computeAABBExtent@Box@Gu@physx@@QEBA?AVPxVec3@3@XZ 000000018000d7b0 f i GuBounds.obj
 0001:0000c870       ?computeBoxPoints@Box@Gu@physx@@QEBAXPEIAVPxVec3@3@@Z 000000018000d870 f i GuBounds.obj
 0001:0000d9a0       ?getConcreteTypeName@PxConvexMesh@physx@@UEBAPEBDXZ 000000018000e9a0 f i GuBounds.obj
 0001:0000d9b0       ?getConcreteTypeName@PxHeightField@physx@@UEBAPEBDXZ 000000018000e9b0 f i GuBounds.obj
 0001:0000d9c0       ?getConvexEdgeThreshold@HeightField@Gu@physx@@UEBAMXZ 000000018000e9c0 f i GuBounds.obj
 0001:0000d9d0       ?getFlags@HeightField@Gu@physx@@UEBA?AV?$PxFlags@W4Enum@PxHeightFieldFlag@physx@@G@3@XZ 000000018000e9d0 f i GuBounds.obj
 0001:0000d9e0       ?getFormat@HeightField@Gu@physx@@UEBA?AW4Enum@PxHeightFieldFormat@3@XZ 000000018000e9e0 f i GuBounds.obj
 0001:0000d9f0       ?getHeight@HeightField@Gu@physx@@UEBAMMM@Z 000000018000e9f0 f i GuBounds.obj
 0001:0000da30       ?getHeightInternal2@HeightField@Gu@physx@@QEBAMIMM@Z 000000018000ea30 f i GuBounds.obj
 0001:0000dba0       ?getIndexBuffer@ConvexMesh@Gu@physx@@UEBAPEBEXZ 000000018000eba0 f i GuBounds.obj
 0001:0000dbe0       ?getNbColumns@HeightField@Gu@physx@@UEBAIXZ 000000018000ebe0 f i GuBounds.obj
 0001:0000dbf0       ?getNbPolygons@ConvexMesh@Gu@physx@@UEBAIXZ 000000018000ebf0 f i GuBounds.obj
 0001:0000dc00       ?getNbRows@HeightField@Gu@physx@@UEBAIXZ 000000018000ec00 f i GuBounds.obj
 0001:0000dc10       ?getNbVertices@ConvexMesh@Gu@physx@@UEBAIXZ 000000018000ec10 f i GuBounds.obj
 0001:0000dc20       ?getPaddedBounds@HeightFieldData@Gu@physx@@QEBAAEBVCenterExtentsPadded@23@XZ 000000018000ec20 f i GuBounds.obj
 0001:0000dc30       ?getSample@HeightField@Gu@physx@@UEBAAEBUPxHeightFieldSample@3@II@Z 000000018000ec30 f i GuBounds.obj
 0001:0000dc40       ?getSampleStride@HeightField@Gu@physx@@UEBAIXZ 000000018000ec40 f i GuBounds.obj
 0001:0000dc50       ?getTimestamp@HeightField@Gu@physx@@UEBAIXZ 000000018000ec50 f i GuBounds.obj
 0001:0000dc60       ?getTransform@Box@Gu@physx@@QEBA?AVPxTransform@3@XZ 000000018000ec60 f i GuBounds.obj
 0001:0000dcc0       ?getTriangleMaterialIndex@HeightField@Gu@physx@@UEBAGI@Z 000000018000ecc0 f i GuBounds.obj
 0001:0000dcf0       ?getTriangleNormal@HeightField@Gu@physx@@UEBA?AVPxVec3@3@I@Z 000000018000ecf0 f i GuBounds.obj
 0001:0000ddf0       ?getVertices@ConvexMesh@Gu@physx@@UEBAPEBVPxVec3@3@XZ 000000018000edf0 f i GuBounds.obj
 0001:0000de10       ?isKindOf@PxBase@physx@@MEBA_NPEBD@Z 000000018000ee10 f i GuBounds.obj
 0001:0000de40       ?isKindOf@PxConvexMesh@physx@@MEBA_NPEBD@Z 000000018000ee40 f i GuBounds.obj
 0001:0000de90       ?isKindOf@PxHeightField@physx@@MEBA_NPEBD@Z 000000018000ee90 f i GuBounds.obj
 0001:0000dee0       ?isReleasable@PxBase@physx@@UEBA_NXZ 000000018000eee0 f i GuBounds.obj
 0001:0000def0       ?isValid@Box@Gu@physx@@QEBA_NXZ 000000018000eef0 f i GuBounds.obj
 0001:0000df10       ?onRefCountZero@RefCountable@Cm@physx@@UEAAXXZ 000000018000ef10 f i GuBounds.obj
 0001:0000df30       ?requiresObjects@ConvexMesh@Gu@physx@@UEAAXAEAVPxProcessPxBaseCallback@3@@Z 000000018000ef30 f i GuBounds.obj
 0001:0000df40       ?rotate@Box@Gu@physx@@QEBA?AVPxVec3@3@AEBV43@@Z 000000018000ef40 f i GuBounds.obj
 0001:0000dfd0       ?rotateInv@Box@Gu@physx@@QEBA?AVPxVec3@3@AEBV43@@Z 000000018000efd0 f i GuBounds.obj
 0001:0000e060       ?setAxes@Box@Gu@physx@@QEAAXAEBVPxVec3@3@00@Z 000000018000f060 f i GuBounds.obj
 0001:0000e0a0       ?setEmpty@Box@Gu@physx@@QEAAXXZ 000000018000f0a0 f i GuBounds.obj
 0001:0000e0e0       ?transform@Box@Gu@physx@@QEBA?AVPxVec3@3@AEBV43@@Z 000000018000f0e0 f i GuBounds.obj
 0001:0000e180       ?computeOBBPoints@Gu@physx@@YAXPEIAVPxVec3@2@AEBV32@1111@Z 000000018000f180 f   GuBox.obj
 0001:0000e400       ?create@Box@Gu@physx@@QEAAXAEBVCapsule@23@@Z 000000018000f400 f   GuBox.obj
 0001:0000e640       ?getBoxEdges@Gu@physx@@YAPEBEXZ 000000018000f640 f   GuBox.obj
 0001:0000e650       ?computeBoxAroundCapsule@Gu@physx@@YAXAEBVCapsule@12@AEAVBox@12@@Z 000000018000f650 f   GuCapsule.obj
 0001:0000e7a0       ?computeBasis@shdfnd@physx@@YAXAEBVPxVec3@2@0AEAV32@11@Z 000000018000f7a0 f i GuCapsule.obj
 0001:0000e940       ?sweepBoxTriangles_Precise@Gu@physx@@YA_NIPEBVPxTriangle@2@_NAEBVPxBoxGeometry@2@AEBVPxTransform@2@AEBVPxVec3@2@MAEAUPxSweepHit@2@PEBIMV?$PxFlags@W4Enum@PxHitFlag@physx@@G@2@@Z 000000018000f940 f   GuCCTSweepTests.obj
 0001:0000ea90       ?sweepCapsule_BoxGeom_Precise@@YA_NAEBVPxGeometry@physx@@AEBVPxTransform@2@AEBVPxCapsuleGeometry@2@1AEBVCapsule@Gu@2@AEBVPxVec3@2@MAEAUPxSweepHit@2@V?$PxFlags@W4Enum@PxHitFlag@physx@@G@2@M@Z 000000018000fa90 f   GuCCTSweepTests.obj
 0001:0000f100       ?sweepBox_SphereGeom_Precise@@YA_NAEBVPxGeometry@physx@@AEBVPxTransform@2@AEBVPxBoxGeometry@2@1AEBVBox@Gu@2@AEBVPxVec3@2@MAEAUPxSweepHit@2@V?$PxFlags@W4Enum@PxHitFlag@physx@@G@2@M@Z 0000000180010100 f   GuCCTSweepTests.obj
 0001:0000f3e0       ?sweepBox_CapsuleGeom_Precise@@YA_NAEBVPxGeometry@physx@@AEBVPxTransform@2@AEBVPxBoxGeometry@2@1AEBVBox@Gu@2@AEBVPxVec3@2@MAEAUPxSweepHit@2@V?$PxFlags@W4Enum@PxHitFlag@physx@@G@2@M@Z 00000001800103e0 f   GuCCTSweepTests.obj
 0001:0000f7b0       ?sweepBox_BoxGeom_Precise@@YA_NAEBVPxGeometry@physx@@AEBVPxTransform@2@AEBVPxBoxGeometry@2@1AEBVBox@Gu@2@AEBVPxVec3@2@MAEAUPxSweepHit@2@V?$PxFlags@W4Enum@PxHitFlag@physx@@G@2@M@Z 00000001800107b0 f   GuCCTSweepTests.obj
 0001:0000f970       ?sweepBox_HeightFieldGeom_Precise@@YA_NAEBVPxGeometry@physx@@AEBVPxTransform@2@AEBVPxBoxGeometry@2@1AEBVBox@Gu@2@AEBVPxVec3@2@MAEAUPxSweepHit@2@V?$PxFlags@W4Enum@PxHitFlag@physx@@G@2@M@Z 0000000180010970 f   GuCCTSweepTests.obj
 0001:0000ff20       ??0HeightFieldTraceUtil@Gu@physx@@QEAA@AEBVPxHeightFieldGeometry@2@@Z 0000000180010f20 f i GuCCTSweepTests.obj
 0001:0000ff60       ??0HeightFieldUtil@Gu@physx@@QEAA@AEBVPxHeightFieldGeometry@2@@Z 0000000180010f60 f i GuCCTSweepTests.obj
 0001:0000ffa0       ??1?$EntityReport@I@Gu@physx@@UEAA@XZ 0000000180010fa0 f i GuCCTSweepTests.obj
 0001:0000ffb0       ??4HeightFieldTraceUtil@Gu@physx@@QEAAAEAV012@$$QEAV012@@Z 0000000180010fb0 f i GuCCTSweepTests.obj
 0001:0000ffd0       ??4HeightFieldTraceUtil@Gu@physx@@QEAAAEAV012@AEBV012@@Z 0000000180010fd0 f i GuCCTSweepTests.obj
 0001:0000fff0       ??4HeightFieldUtil@Gu@physx@@QEAAAEAV012@$$QEAV012@@Z 0000000180010ff0 f i GuCCTSweepTests.obj
 0001:00010020       ??4HeightFieldUtil@Gu@physx@@QEAAAEAV012@AEBV012@@Z 0000000180011020 f i GuCCTSweepTests.obj
 0001:00010040       ??_E?$EntityReport@I@Gu@physx@@UEAAPEAXI@Z 0000000180011040 f i GuCCTSweepTests.obj
 0001:00010040       ??_G?$EntityReport@I@Gu@physx@@UEAAPEAXI@Z 0000000180011040 f i GuCCTSweepTests.obj
 0001:00010070       ?ceilUp@HeightFieldTraceUtil@Gu@physx@@SAMM@Z 0000000180011070 f i GuCCTSweepTests.obj
 0001:000100b0       ?computePointNormal@HeightFieldUtil@Gu@physx@@QEBA?AVPxVec3@3@IAEBV43@AEBVPxTransform@3@MMMMAEAM@Z 00000001800110b0 f i GuCCTSweepTests.obj
 0001:000104d0       ?floorDown@HeightFieldTraceUtil@Gu@physx@@SAMM@Z 00000001800114d0 f i GuCCTSweepTests.obj
 0001:00010510       ?getFeatureIndex@HeightFieldUtil@Gu@physx@@SAII@Z 0000000180011510 f i GuCCTSweepTests.obj
 0001:00010520       ?getFeatureType@HeightFieldUtil@Gu@physx@@SA?AW4Feature@123@I@Z 0000000180011520 f i GuCCTSweepTests.obj
 0001:00010530       ?getHeightAtShapePoint@HeightFieldUtil@Gu@physx@@QEBAMMM@Z 0000000180011530 f i GuCCTSweepTests.obj
 0001:00010590       ?getHeightField@HeightFieldUtil@Gu@physx@@QEBAAEBVHeightField@23@XZ 0000000180011590 f i GuCCTSweepTests.obj
 0001:000105a0       ?getHeightFieldGeometry@HeightFieldUtil@Gu@physx@@QEBAAEBVPxHeightFieldGeometry@3@XZ 00000001800115a0 f i GuCCTSweepTests.obj
 0001:000105b0       ?getNormalAtShapePoint@HeightFieldUtil@Gu@physx@@QEBA?AVPxVec3@3@MM@Z 00000001800115b0 f i GuCCTSweepTests.obj
 0001:00010670       ?getNormal_2@HeightField@Gu@physx@@QEBA?AVPxVec3@3@IMMMMM@Z 0000000180011670 f i GuCCTSweepTests.obj
 0001:00010790       ?getOneOverColumnScale@HeightFieldUtil@Gu@physx@@QEBAMXZ 0000000180011790 f i GuCCTSweepTests.obj
 0001:000107a0       ?getOneOverHeightScale@HeightFieldUtil@Gu@physx@@QEBAMXZ 00000001800117a0 f i GuCCTSweepTests.obj
 0001:000107b0       ?getOneOverRowScale@HeightFieldUtil@Gu@physx@@QEBAMXZ 00000001800117b0 f i GuCCTSweepTests.obj
 0001:000107c0       ?getVertexNormal@HeightFieldUtil@Gu@physx@@QEBA?AVPxVec3@3@I@Z 00000001800117c0 f i GuCCTSweepTests.obj
 0001:00010800       ?hf2shapen@HeightFieldUtil@Gu@physx@@QEBA?AVPxVec3@3@AEBV43@@Z 0000000180011800 f i GuCCTSweepTests.obj
 0001:00010840       ?hf2shapep@HeightFieldUtil@Gu@physx@@QEBA?AVPxVec3@3@AEBV43@@Z 0000000180011840 f i GuCCTSweepTests.obj
 0001:00010880       ?hf2worldn@HeightFieldUtil@Gu@physx@@QEBA?AVPxVec3@3@AEBVPxTransform@3@AEBV43@@Z 0000000180011880 f i GuCCTSweepTests.obj
 0001:000109f0       ?hf2worldp@HeightFieldUtil@Gu@physx@@QEBA?AVPxVec3@3@AEBVPxTransform@3@AEBV43@@Z 00000001800119f0 f i GuCCTSweepTests.obj
 0001:00010b70       ?isCollisionVertex@HeightFieldUtil@Gu@physx@@QEBA_NIII@Z 0000000180011b70 f i GuCCTSweepTests.obj
 0001:00010b90       ?isQueryVertex@HeightFieldUtil@Gu@physx@@QEBA_NIII@Z 0000000180011b90 f i GuCCTSweepTests.obj
 0001:00010c50       ?isShapePointOnHeightField@HeightFieldUtil@Gu@physx@@QEBA_NMM@Z 0000000180011c50 f i GuCCTSweepTests.obj
 0001:00010ca0       ?makeFeatureCode@HeightFieldUtil@Gu@physx@@SAIIW4Feature@123@@Z 0000000180011ca0 f i GuCCTSweepTests.obj
 0001:00010cb0       ?shape2hfp@HeightFieldUtil@Gu@physx@@QEBA?AVPxVec3@3@AEBV43@@Z 0000000180011cb0 f i GuCCTSweepTests.obj
 0001:00011930       ?sweep@PxGeometryQuery@physx@@SA_NAEBVPxVec3@2@MAEBVPxGeometry@2@AEBVPxTransform@2@12AEAUPxSweepHit@2@V?$PxFlags@W4Enum@PxHitFlag@physx@@G@2@M@Z 0000000180012930 f   GuGeometryQuery.obj
 0001:00011d30       ?overlap@PxGeometryQuery@physx@@SA_NAEBVPxGeometry@2@AEBVPxTransform@2@01@Z 0000000180012d30 f   GuGeometryQuery.obj
 0001:00011dc0       ?raycast@PxGeometryQuery@physx@@SAIAEBVPxVec3@2@0AEBVPxGeometry@2@AEBVPxTransform@2@MV?$PxFlags@W4Enum@PxHitFlag@physx@@G@2@IPEIAUPxRaycastHit@2@@Z 0000000180012dc0 f   GuGeometryQuery.obj
 0001:00011e60       ?computePenetration@PxGeometryQuery@physx@@SA_NAEAVPxVec3@2@AEAMAEBVPxGeometry@2@AEBVPxTransform@2@23@Z 0000000180012e60 f   GuGeometryQuery.obj
 0001:00011f50       ?pointDistance@PxGeometryQuery@physx@@SAMAEBVPxVec3@2@AEBVPxGeometry@2@AEBVPxTransform@2@PEAV32@@Z 0000000180012f50 f   GuGeometryQuery.obj
 0001:000125e0       ?getWorldBounds@PxGeometryQuery@physx@@SA?AVPxBounds3@2@AEBVPxGeometry@2@AEBVPxTransform@2@M@Z 00000001800135e0 f   GuGeometryQuery.obj
 0001:00012650       ?isValid@PxGeometryQuery@physx@@SA_NAEBVPxGeometry@2@@Z 0000000180013650 f   GuGeometryQuery.obj
 0001:00012840       ??4FPUGuard@shdfnd@physx@@QEAAAEAV012@AEBV012@@Z 0000000180013840 f i GuGeometryQuery.obj
 0001:00012860       ?isFinite@PxQuat@physx@@QEBA_NXZ 0000000180013860 f i GuGeometryQuery.obj
 0001:000128d0       ?set@GeometryUnion@Gu@physx@@QEAAXAEBVPxGeometry@3@@Z 00000001800138d0 f   GuGeometryUnion.obj
 0001:00012aa0       ??0GeometryUnion@Gu@physx@@QEAA@AEBVPxGeometry@2@@Z 0000000180013aa0 f i GuGeometryUnion.obj
 0001:00012ac0       ??0GeometryUnion@Gu@physx@@QEAA@W4PxEMPTY@2@@Z 0000000180013ac0 f i GuGeometryUnion.obj
 0001:00012ad0       ??0GeometryUnion@Gu@physx@@QEAA@XZ 0000000180013ad0 f i GuGeometryUnion.obj
 0001:00012ae0       ??0MaterialIndicesStruct@physx@@QEAA@W4PxEMPTY@1@@Z 0000000180013ae0 f i GuGeometryUnion.obj
 0001:00012af0       ??0MaterialIndicesStruct@physx@@QEAA@XZ 0000000180013af0 f i GuGeometryUnion.obj
 0001:00012b00       ??1MaterialIndicesStruct@physx@@QEAA@XZ 0000000180013b00 f i GuGeometryUnion.obj
 0001:00012b10       ??4GeometryUnion@Gu@physx@@QEAAAEAV012@$$QEAV012@@Z 0000000180013b10 f i GuGeometryUnion.obj
 0001:00012b40       ??4GeometryUnion@Gu@physx@@QEAAAEAV012@AEBV012@@Z 0000000180013b40 f i GuGeometryUnion.obj
 0001:00012b70       ??4MaterialIndicesStruct@physx@@QEAAAEAU01@AEBU01@@Z 0000000180013b70 f i GuGeometryUnion.obj
 0001:00012b80       ?allocate@MaterialIndicesStruct@physx@@QEAAXG@Z 0000000180013b80 f i GuGeometryUnion.obj
 0001:00012c00       ?deallocate@MaterialIndicesStruct@physx@@QEAAXXZ 0000000180013c00 f i GuGeometryUnion.obj
 0001:00012c50       ?getGeometry@GeometryUnion@Gu@physx@@QEBAAEBVPxGeometry@3@XZ 0000000180013c50 f i GuGeometryUnion.obj
 0001:00012c60       ?getType@GeometryUnion@Gu@physx@@QEBA?AW4Enum@PxGeometryType@3@XZ 0000000180013c60 f i GuGeometryUnion.obj
 0001:00012c70       ?computeBoxPoints@Gu@physx@@YAXAEBVPxBounds3@2@PEIAVPxVec3@2@@Z 0000000180013c70 f   GuInternal.obj
 0001:00012d10       ?computeBoundsAroundVertices@Gu@physx@@YAXAEAVPxBounds3@2@IPEIBVPxVec3@2@@Z 0000000180013d10 f   GuInternal.obj
 0001:00012dc0       ?getPlane@Gu@physx@@YA?AVPxPlane@2@AEBVPxTransform@2@@Z 0000000180013dc0 f   GuInternal.obj
 0001:00012e70       ?computeSweptBox@Gu@physx@@YAXAEAVBox@12@AEBVPxVec3@2@1AEBVPxMat33@2@1M@Z 0000000180013e70 f   GuInternal.obj
 0001:000133a0       ??0GuMeshFactory@physx@@QEAA@XZ 00000001800143a0 f   GuMeshFactory.obj
 0001:00013540       ??1GuMeshFactory@physx@@MEAA@XZ 0000000180014540 f   GuMeshFactory.obj
 0001:00013630       ?release@GuMeshFactory@physx@@QEAAXXZ 0000000180014630 f   GuMeshFactory.obj
 0001:000136e0       ?addTriangleMesh@GuMeshFactory@physx@@QEAAXPEAVTriangleMesh@Gu@2@_N@Z 00000001800146e0 f   GuMeshFactory.obj
 0001:00013760       ?createTriangleMesh@GuMeshFactory@physx@@QEAAPEAVPxTriangleMesh@2@AEAVPxInputStream@2@@Z 0000000180014760 f   GuMeshFactory.obj
 0001:000137c0       ?createTriangleMesh@GuMeshFactory@physx@@QEAAPEAVPxTriangleMesh@2@PEAX@Z 00000001800147c0 f   GuMeshFactory.obj
 0001:000137d0       ?removeTriangleMesh@GuMeshFactory@physx@@QEAA_NAEAVPxTriangleMesh@2@@Z 00000001800147d0 f   GuMeshFactory.obj
 0001:00013820       ?getNbTriangleMeshes@GuMeshFactory@physx@@QEBAIXZ 0000000180014820 f   GuMeshFactory.obj
 0001:00013860       ?getTriangleMeshes@GuMeshFactory@physx@@QEBAIPEAPEAVPxTriangleMesh@2@II@Z 0000000180014860 f   GuMeshFactory.obj
 0001:000138f0       ?addConvexMesh@GuMeshFactory@physx@@QEAAXPEAVConvexMesh@Gu@2@_N@Z 00000001800148f0 f   GuMeshFactory.obj
 0001:00013970       ?createConvexMesh@GuMeshFactory@physx@@QEAAPEAVPxConvexMesh@2@AEAVPxInputStream@2@@Z 0000000180014970 f   GuMeshFactory.obj
 0001:00013a90       ?createConvexMesh@GuMeshFactory@physx@@QEAAPEAVPxConvexMesh@2@PEAX@Z 0000000180014a90 f   GuMeshFactory.obj
 0001:00013aa0       ?removeConvexMesh@GuMeshFactory@physx@@QEAA_NAEAVPxConvexMesh@2@@Z 0000000180014aa0 f   GuMeshFactory.obj
 0001:00013af0       ?getNbConvexMeshes@GuMeshFactory@physx@@QEBAIXZ 0000000180014af0 f   GuMeshFactory.obj
 0001:00013b30       ?getConvexMeshes@GuMeshFactory@physx@@QEBAIPEAPEAVPxConvexMesh@2@II@Z 0000000180014b30 f   GuMeshFactory.obj
 0001:00013bc0       ?addHeightField@GuMeshFactory@physx@@QEAAXPEAVHeightField@Gu@2@_N@Z 0000000180014bc0 f   GuMeshFactory.obj
 0001:00013c40       ?createHeightField@GuMeshFactory@physx@@QEAAPEAVPxHeightField@2@PEAX@Z 0000000180014c40 f   GuMeshFactory.obj
 0001:00013d40       ?createHeightField@GuMeshFactory@physx@@QEAAPEAVPxHeightField@2@AEAVPxInputStream@2@@Z 0000000180014d40 f   GuMeshFactory.obj
 0001:00013e60       ?removeHeightField@GuMeshFactory@physx@@QEAA_NAEAVPxHeightField@2@@Z 0000000180014e60 f   GuMeshFactory.obj
 0001:00013eb0       ?getNbHeightFields@GuMeshFactory@physx@@QEBAIXZ 0000000180014eb0 f   GuMeshFactory.obj
 0001:00013ef0       ?getHeightFields@GuMeshFactory@physx@@QEBAIPEAPEAVPxHeightField@2@II@Z 0000000180014ef0 f   GuMeshFactory.obj
 0001:00013f90       ?addBVHStructure@GuMeshFactory@physx@@QEAAXPEAVBVHStructure@Gu@2@_N@Z 0000000180014f90 f   GuMeshFactory.obj
 0001:00014010       ?createBVHStructure@GuMeshFactory@physx@@QEAAPEAVPxBVHStructure@2@AEAVPxInputStream@2@@Z 0000000180015010 f   GuMeshFactory.obj
 0001:00014130       ?createBVHStructure@GuMeshFactory@physx@@QEAAPEAVPxBVHStructure@2@PEAX@Z 0000000180015130 f   GuMeshFactory.obj
 0001:00014140       ?removeBVHStructure@GuMeshFactory@physx@@QEAA_NAEAVPxBVHStructure@2@@Z 0000000180015140 f   GuMeshFactory.obj
 0001:00014190       ?getNbBVHStructures@GuMeshFactory@physx@@QEBAIXZ 0000000180015190 f   GuMeshFactory.obj
 0001:000141d0       ?getBVHStructures@GuMeshFactory@physx@@QEBAIPEAPEAVPxBVHStructure@2@II@Z 00000001800151d0 f   GuMeshFactory.obj
 0001:00014270       ?addFactoryListener@GuMeshFactory@physx@@QEAAXAEAVGuMeshFactoryListener@2@@Z 0000000180015270 f   GuMeshFactory.obj
 0001:000142f0       ?removeFactoryListener@GuMeshFactory@physx@@QEAAXAEAVGuMeshFactoryListener@2@@Z 00000001800152f0 f   GuMeshFactory.obj
 0001:00014380       ?notifyFactoryListener@GuMeshFactory@physx@@QEAAXPEBVPxBase@2@G@Z 0000000180015380 f   GuMeshFactory.obj
 0001:00014400       ?createTriangleMesh@GuMeshFactory@physx@@IEAAPEAVPxTriangleMesh@2@AEAVTriangleMeshData@Gu@2@@Z 0000000180015400 f   GuMeshFactory.obj
 0001:00014590       ?createConvexMesh@GuMeshFactory@physx@@IEAAPEAVPxConvexMesh@2@AEAUConvexHullData@Gu@2@@Z 0000000180015590 f   GuMeshFactory.obj
 0001:00014690       ?createBVHStructure@GuMeshFactory@physx@@IEAAPEAVPxBVHStructure@2@AEAUBVHStructureData@Gu@2@@Z 0000000180015690 f   GuMeshFactory.obj
 0001:00014780       ??1BV4TriangleData@Gu@physx@@UEAA@XZ 0000000180015780 f i GuMeshFactory.obj
 0001:000147c0       ??1MeshDataBase@Gu@physx@@UEAA@XZ 00000001800157c0 f i GuMeshFactory.obj
 0001:000148a0       ??1RTreeTriangleData@Gu@physx@@UEAA@XZ 00000001800158a0 f i GuMeshFactory.obj
 0001:00014910       ??1TriangleMeshData@Gu@physx@@UEAA@XZ 0000000180015910 f i GuMeshFactory.obj
 0001:000149e0       ??_EGuMeshFactory@physx@@MEAAPEAXI@Z 00000001800159e0 f i GuMeshFactory.obj
 0001:00014af0       ??_GBV4TriangleData@Gu@physx@@UEAAPEAXI@Z 0000000180015af0 f i GuMeshFactory.obj
 0001:00014af0       ??_EBV4TriangleData@Gu@physx@@UEAAPEAXI@Z 0000000180015af0 f i GuMeshFactory.obj
 0001:00014b70       ??_GGuMeshFactory@physx@@MEAAPEAXI@Z 0000000180015b70 f i GuMeshFactory.obj
 0001:00014bd0       ??_EMeshDataBase@Gu@physx@@UEAAPEAXI@Z 0000000180015bd0 f i GuMeshFactory.obj
 0001:00014bd0       ??_GMeshDataBase@Gu@physx@@UEAAPEAXI@Z 0000000180015bd0 f i GuMeshFactory.obj
 0001:00014c30       ??_ERTreeTriangleData@Gu@physx@@UEAAPEAXI@Z 0000000180015c30 f i GuMeshFactory.obj
 0001:00014c30       ??_GRTreeTriangleData@Gu@physx@@UEAAPEAXI@Z 0000000180015c30 f i GuMeshFactory.obj
 0001:00014ce0       ??_GTriangleMeshData@Gu@physx@@UEAAPEAXI@Z 0000000180015ce0 f i GuMeshFactory.obj
 0001:00014ce0       ??_ETriangleMeshData@Gu@physx@@UEAAPEAXI@Z 0000000180015ce0 f i GuMeshFactory.obj
 0001:00014d40       ?__global_array_delete@@YAXPEAX@Z 0000000180015d40 f i GuMeshFactory.obj
 0001:00014d50       ?__global_array_delete@@YAXPEAX_K@Z 0000000180015d50 f i GuMeshFactory.obj
 0001:00014d60       ?__global_delete@@YAXPEAX@Z 0000000180015d60 f i GuMeshFactory.obj
 0001:00014d70       ?__global_delete@@YAXPEAX_K@Z 0000000180015d70 f i GuMeshFactory.obj
 0001:00014d80       ?create@?$HashBase@PEAVBVHStructure@Gu@physx@@PEAV123@U?$Hash@PEAVBVHStructure@Gu@physx@@@shdfnd@3@UGetKey@?$HashSetBase@PEAVBVHStructure@Gu@physx@@U?$Hash@PEAVBVHStructure@Gu@physx@@@shdfnd@3@VNonTrackingAllocator@53@$00@internal@53@VNonTrackingAllocator@53@$00@internal@shdfnd@physx@@QEAAPEAPEAVBVHStructure@Gu@4@AEBQEAV564@AEA_N@Z 0000000180015d80 f i GuMeshFactory.obj
 0001:00014f20       ?create@?$HashBase@PEAVConvexMesh@Gu@physx@@PEAV123@U?$Hash@PEAVConvexMesh@Gu@physx@@@shdfnd@3@UGetKey@?$HashSetBase@PEAVConvexMesh@Gu@physx@@U?$Hash@PEAVConvexMesh@Gu@physx@@@shdfnd@3@VNonTrackingAllocator@53@$00@internal@53@VNonTrackingAllocator@53@$00@internal@shdfnd@physx@@QEAAPEAPEAVConvexMesh@Gu@4@AEBQEAV564@AEA_N@Z 0000000180015f20 f i GuMeshFactory.obj
 0001:000150c0       ?create@?$HashBase@PEAVHeightField@Gu@physx@@PEAV123@U?$Hash@PEAVHeightField@Gu@physx@@@shdfnd@3@UGetKey@?$HashSetBase@PEAVHeightField@Gu@physx@@U?$Hash@PEAVHeightField@Gu@physx@@@shdfnd@3@VNonTrackingAllocator@53@$00@internal@53@VNonTrackingAllocator@53@$00@internal@shdfnd@physx@@QEAAPEAPEAVHeightField@Gu@4@AEBQEAV564@AEA_N@Z 00000001800160c0 f i GuMeshFactory.obj
 0001:00015260       ?create@?$HashBase@PEAVTriangleMesh@Gu@physx@@PEAV123@U?$Hash@PEAVTriangleMesh@Gu@physx@@@shdfnd@3@UGetKey@?$HashSetBase@PEAVTriangleMesh@Gu@physx@@U?$Hash@PEAVTriangleMesh@Gu@physx@@@shdfnd@3@VNonTrackingAllocator@53@$00@internal@53@VNonTrackingAllocator@53@$00@internal@shdfnd@physx@@QEAAPEAPEAVTriangleMesh@Gu@4@AEBQEAV564@AEA_N@Z 0000000180016260 f i GuMeshFactory.obj
 0001:00015400       ?erase@?$HashBase@PEAVBVHStructure@Gu@physx@@PEAV123@U?$Hash@PEAVBVHStructure@Gu@physx@@@shdfnd@3@UGetKey@?$HashSetBase@PEAVBVHStructure@Gu@physx@@U?$Hash@PEAVBVHStructure@Gu@physx@@@shdfnd@3@VNonTrackingAllocator@53@$00@internal@53@VNonTrackingAllocator@53@$00@internal@shdfnd@physx@@QEAA_NAEBQEAVBVHStructure@Gu@4@@Z 0000000180016400 f i GuMeshFactory.obj
 0001:00015570       ?erase@?$HashBase@PEAVConvexMesh@Gu@physx@@PEAV123@U?$Hash@PEAVConvexMesh@Gu@physx@@@shdfnd@3@UGetKey@?$HashSetBase@PEAVConvexMesh@Gu@physx@@U?$Hash@PEAVConvexMesh@Gu@physx@@@shdfnd@3@VNonTrackingAllocator@53@$00@internal@53@VNonTrackingAllocator@53@$00@internal@shdfnd@physx@@QEAA_NAEBQEAVConvexMesh@Gu@4@@Z 0000000180016570 f i GuMeshFactory.obj
 0001:000156e0       ?erase@?$HashBase@PEAVHeightField@Gu@physx@@PEAV123@U?$Hash@PEAVHeightField@Gu@physx@@@shdfnd@3@UGetKey@?$HashSetBase@PEAVHeightField@Gu@physx@@U?$Hash@PEAVHeightField@Gu@physx@@@shdfnd@3@VNonTrackingAllocator@53@$00@internal@53@VNonTrackingAllocator@53@$00@internal@shdfnd@physx@@QEAA_NAEBQEAVHeightField@Gu@4@@Z 00000001800166e0 f i GuMeshFactory.obj
 0001:00015850       ?erase@?$HashBase@PEAVTriangleMesh@Gu@physx@@PEAV123@U?$Hash@PEAVTriangleMesh@Gu@physx@@@shdfnd@3@UGetKey@?$HashSetBase@PEAVTriangleMesh@Gu@physx@@U?$Hash@PEAVTriangleMesh@Gu@physx@@@shdfnd@3@VNonTrackingAllocator@53@$00@internal@53@VNonTrackingAllocator@53@$00@internal@shdfnd@physx@@QEAA_NAEBQEAVTriangleMesh@Gu@4@@Z 0000000180016850 f i GuMeshFactory.obj
 0001:000159c0       ?growAndPushBack@?$Array@PEAVGuMeshFactoryListener@physx@@V?$ReflectionAllocator@PEAVGuMeshFactoryListener@physx@@@shdfnd@2@@shdfnd@physx@@IEAAAEAPEAVGuMeshFactoryListener@3@AEBQEAV43@@Z 00000001800169c0 f i GuMeshFactory.obj
 0001:00016ac0       ?reserveInternal@?$HashBase@PEAVBVHStructure@Gu@physx@@PEAV123@U?$Hash@PEAVBVHStructure@Gu@physx@@@shdfnd@3@UGetKey@?$HashSetBase@PEAVBVHStructure@Gu@physx@@U?$Hash@PEAVBVHStructure@Gu@physx@@@shdfnd@3@VNonTrackingAllocator@53@$00@internal@53@VNonTrackingAllocator@53@$00@internal@shdfnd@physx@@AEAAXI@Z 0000000180017ac0 f i GuMeshFactory.obj
 0001:00016c90       ?reserveInternal@?$HashBase@PEAVConvexMesh@Gu@physx@@PEAV123@U?$Hash@PEAVConvexMesh@Gu@physx@@@shdfnd@3@UGetKey@?$HashSetBase@PEAVConvexMesh@Gu@physx@@U?$Hash@PEAVConvexMesh@Gu@physx@@@shdfnd@3@VNonTrackingAllocator@53@$00@internal@53@VNonTrackingAllocator@53@$00@internal@shdfnd@physx@@AEAAXI@Z 0000000180017c90 f i GuMeshFactory.obj
 0001:00016e60       ?reserveInternal@?$HashBase@PEAVHeightField@Gu@physx@@PEAV123@U?$Hash@PEAVHeightField@Gu@physx@@@shdfnd@3@UGetKey@?$HashSetBase@PEAVHeightField@Gu@physx@@U?$Hash@PEAVHeightField@Gu@physx@@@shdfnd@3@VNonTrackingAllocator@53@$00@internal@53@VNonTrackingAllocator@53@$00@internal@shdfnd@physx@@AEAAXI@Z 0000000180017e60 f i GuMeshFactory.obj
 0001:00017030       ?reserveInternal@?$HashBase@PEAVTriangleMesh@Gu@physx@@PEAV123@U?$Hash@PEAVTriangleMesh@Gu@physx@@@shdfnd@3@UGetKey@?$HashSetBase@PEAVTriangleMesh@Gu@physx@@U?$Hash@PEAVTriangleMesh@Gu@physx@@@shdfnd@3@VNonTrackingAllocator@53@$00@internal@53@VNonTrackingAllocator@53@$00@internal@shdfnd@physx@@AEAAXI@Z 0000000180018030 f i GuMeshFactory.obj
 0001:00017200       ?getBinaryMetaData@HeightField@Gu@physx@@SAXAEAVPxOutputStream@3@@Z 0000000180018200 f   GuMetaData.obj
 0001:00017630       ?getBinaryMetaData@BigConvexData@physx@@SAXAEAVPxOutputStream@2@@Z 0000000180018630 f   GuMetaData.obj
 0001:00017900       ?getBinaryMetaData@ConvexMesh@Gu@physx@@SAXAEAVPxOutputStream@3@@Z 0000000180018900 f   GuMetaData.obj
 0001:00017f90       ?getBinaryMetaData@RTree@Gu@physx@@SAXAEAVPxOutputStream@3@@Z 0000000180018f90 f   GuMetaData.obj
 0001:000182d0       ?getBinaryMetaData@SourceMesh@Gu@physx@@SAXAEAVPxOutputStream@3@@Z 00000001800192d0 f   GuMetaData.obj
 0001:000184c0       ?getBinaryMetaData@BV4Tree@Gu@physx@@SAXAEAVPxOutputStream@3@@Z 00000001800194c0 f   GuMetaData.obj
 0001:00018850       ?getBinaryMetaData@TriangleMesh@Gu@physx@@SAXAEAVPxOutputStream@3@@Z 0000000180019850 f   GuMetaData.obj
 0001:00019070       ?getBinaryMetaData@BV4TriangleMesh@Gu@physx@@SAXAEAVPxOutputStream@3@@Z 000000018001a070 f   GuMetaData.obj
 0001:00019350       ?getBinaryMetaData@RTreeTriangleMesh@Gu@physx@@SAXAEAVPxOutputStream@3@@Z 000000018001a350 f   GuMetaData.obj
 0001:00019440       ?getBinaryMetaData@MaterialIndicesStruct@physx@@SAXAEAVPxOutputStream@2@@Z 000000018001a440 f   GuMetaData.obj
 0001:000195f0       ?getBinaryMetaData@GeometryUnion@Gu@physx@@SAXAEAVPxOutputStream@3@@Z 000000018001a5f0 f   GuMetaData.obj
 0001:00019c40       ??0BigConvexData@physx@@QEAA@W4PxEMPTY@1@@Z 000000018001ac40 f i GuMetaData.obj
 0001:00019c50       ??4BigConvexData@physx@@QEAAAEAV01@AEBV01@@Z 000000018001ac50 f i GuMetaData.obj
 0001:00019c70       ?GetAdjacentVerts@BigConvexData@physx@@QEBAPEBEXZ 000000018001ac70 f i GuMetaData.obj
 0001:00019c80       ?GetNbNeighbors@BigConvexData@physx@@QEBAGI@Z 000000018001ac80 f i GuMetaData.obj
 0001:00019c90       ?GetNbSamples@BigConvexData@physx@@QEBAIXZ 000000018001ac90 f i GuMetaData.obj
 0001:00019ca0       ?GetNbVerts@BigConvexData@physx@@QEBAIXZ 000000018001aca0 f i GuMetaData.obj
 0001:00019cb0       ?GetNeighbors@BigConvexData@physx@@QEBAPEBEI@Z 000000018001acb0 f i GuMetaData.obj
 0001:00019cc0       ?GetOffset@BigConvexData@physx@@QEBAGI@Z 000000018001acc0 f i GuMetaData.obj
 0001:00019cd0       ?GetSubdiv@BigConvexData@physx@@QEBAIXZ 000000018001acd0 f i GuMetaData.obj
 0001:00019ce0       ?GetValencies@BigConvexData@physx@@QEBAPEBUValency@Gu@2@XZ 000000018001ace0 f i GuMetaData.obj
 0001:00019cf0       ?GetValency@BigConvexData@physx@@QEBAGI@Z 000000018001acf0 f i GuMetaData.obj
 0001:0001b110       ??_ESupportLocal@Gu@physx@@UEAAPEAXI@Z 000000018001c110 f i GuMTD.obj
 0001:0001b110       ??_GSupportLocal@Gu@physx@@UEAAPEAXI@Z 000000018001c110 f i GuMTD.obj
 0001:0001b140       ?doSupport@?$SupportLocalImpl@VConvexHullV@Gu@physx@@@Gu@physx@@UEBA?AT__m128@@AEBT4@@Z 000000018001c140 f i GuMTD.obj
 0001:0001b220       ?doSupport@?$SupportLocalImpl@VConvexHullV@Gu@physx@@@Gu@physx@@UEBAXAEBT__m128@@AEAT4@1@Z 000000018001c220 f i GuMTD.obj
 0001:0001b580       ?populateVerts@?$SupportLocalImpl@VConvexHullV@Gu@physx@@@Gu@physx@@UEBAXPEBEIPEBVPxVec3@3@PEAT__m128@@@Z 000000018001c580 f i GuMTD.obj
 0001:0001b5e0       ??_E?$SupportLocalImpl@VConvexHullV@Gu@physx@@@Gu@physx@@UEAAPEAXI@Z 000000018001c5e0 f i GuMTD.obj
 0001:0001b5e0       ??_G?$SupportLocalImpl@VConvexHullV@Gu@physx@@@Gu@physx@@UEAAPEAXI@Z 000000018001c5e0 f i GuMTD.obj
 0001:0001b610       ?doSupport@?$SupportLocalImpl@VConvexHullNoScaleV@Gu@physx@@@Gu@physx@@UEBA?AT__m128@@AEBT4@@Z 000000018001c610 f i GuMTD.obj
 0001:0001b660       ?doSupport@?$SupportLocalImpl@VConvexHullNoScaleV@Gu@physx@@@Gu@physx@@UEBAXAEBT__m128@@AEAT4@1@Z 000000018001c660 f i GuMTD.obj
 0001:0001b7e0       ?populateVerts@?$SupportLocalImpl@VConvexHullNoScaleV@Gu@physx@@@Gu@physx@@UEBAXPEBEIPEBVPxVec3@3@PEAT__m128@@@Z 000000018001c7e0 f i GuMTD.obj
 0001:0001b820       ??_G?$SupportLocalImpl@VConvexHullNoScaleV@Gu@physx@@@Gu@physx@@UEAAPEAXI@Z 000000018001c820 f i GuMTD.obj
 0001:0001b820       ??_E?$SupportLocalImpl@VConvexHullNoScaleV@Gu@physx@@@Gu@physx@@UEAAPEAXI@Z 000000018001c820 f i GuMTD.obj
 0001:0001b850       ?doSupport@?$SupportLocalImpl@VBoxV@Gu@physx@@@Gu@physx@@UEBA?AT__m128@@AEBT4@@Z 000000018001c850 f i GuMTD.obj
 0001:0001b880       ?doSupport@?$SupportLocalImpl@VBoxV@Gu@physx@@@Gu@physx@@UEBAXAEBT__m128@@AEAT4@1@Z 000000018001c880 f i GuMTD.obj
 0001:0001b8d0       ?populateVerts@?$SupportLocalImpl@VBoxV@Gu@physx@@@Gu@physx@@UEBAXPEBEIPEBVPxVec3@3@PEAT__m128@@@Z 000000018001c8d0 f i GuMTD.obj
 0001:0001b910       ??_E?$SupportLocalImpl@VBoxV@Gu@physx@@@Gu@physx@@UEAAPEAXI@Z 000000018001c910 f i GuMTD.obj
 0001:0001b910       ??_G?$SupportLocalImpl@VBoxV@Gu@physx@@@Gu@physx@@UEAAPEAXI@Z 000000018001c910 f i GuMTD.obj
 0001:0001b940       ?pointConvexDistance@@YA_NAEAVPxVec3@physx@@0AEAMAEBV12@PEBVConvexMesh@Gu@2@AEBVPxMeshScale@2@AEBVPxTransform@2@@Z 000000018001c940 f   GuMTD.obj
 0001:0001e170       ??$gjk@U?$LocalConvex@VCapsuleV@Gu@physx@@@Gu@physx@@U?$LocalConvex@VConvexHullV@Gu@physx@@@23@@Gu@physx@@YA?AW4GjkStatus@01@AEBU?$LocalConvex@VCapsuleV@Gu@physx@@@01@AEBU?$LocalConvex@VConvexHullV@Gu@physx@@@01@AEBT__m128@@2AEAT5@333@Z 000000018001f170 f i GuMTD.obj
 0001:0001eed0       ??0ContactPoint@Gu@physx@@QEAA@XZ 000000018001fed0 f i GuMTD.obj
 0001:0001eee0       ??0HullPolygonData@Gu@physx@@QEAA@AEBU012@@Z 000000018001fee0 f i GuMTD.obj
 0001:0001ef10       ??0MeshPersistentContact@Gu@physx@@QEAA@XZ 000000018001ff10 f i GuMTD.obj
 0001:0001ef20       ??0MultiplePersistentContactManifold@Gu@physx@@QEAA@XZ 000000018001ff20 f i GuMTD.obj
 0001:0001ef70       ??0PersistentContact@Gu@physx@@QEAA@XZ 000000018001ff70 f i GuMTD.obj
 0001:0001ef80       ??0PolygonalBox@Gu@physx@@QEAA@AEBV012@@Z 000000018001ff80 f i GuMTD.obj
 0001:0001f200       ??0PxVec3@physx@@QEAA@AEBV01@@Z 0000000180020200 f i GuMTD.obj
 0001:0001f220       ??0SeparatingAxes@Gu@physx@@QEAA@$$QEAV012@@Z 0000000180020220 f i GuMTD.obj
 0001:0001f330       ??0SeparatingAxes@Gu@physx@@QEAA@AEBV012@@Z 0000000180020330 f i GuMTD.obj
 0001:0001f440       ??0SeparatingAxes@Gu@physx@@QEAA@XZ 0000000180020440 f i GuMTD.obj
 0001:0001f450       ??0SinglePersistentContactManifold@Gu@physx@@QEAA@XZ 0000000180020450 f i GuMTD.obj
 0001:0001f460       ??1GjkConvexBase@Gu@physx@@UEAA@XZ 0000000180020460 f i GuMTD.obj
 0001:0001f470       ??1SupportLocal@Gu@physx@@UEAA@XZ 0000000180020470 f i GuMTD.obj
 0001:0001f480       ??4MultiplePersistentContactManifold@Gu@physx@@QEAAAEAV012@$$QEAV012@@Z 0000000180020480 f i GuMTD.obj
 0001:0001f790       ??4MultiplePersistentContactManifold@Gu@physx@@QEAAAEAV012@AEBV012@@Z 0000000180020790 f i GuMTD.obj
 0001:0001f7b0       ??4SeparatingAxes@Gu@physx@@QEAAAEAV012@$$QEAV012@@Z 00000001800207b0 f i GuMTD.obj
 0001:0001f8c0       ??4SeparatingAxes@Gu@physx@@QEAAAEAV012@AEBV012@@Z 00000001800208c0 f i GuMTD.obj
 0001:0001f9d0       ??_E?$LocalConvex@VCapsuleV@Gu@physx@@@Gu@physx@@UEAAPEAXI@Z 00000001800209d0 f i GuMTD.obj
 0001:0001f9d0       ??_G?$LocalConvex@VCapsuleV@Gu@physx@@@Gu@physx@@UEAAPEAXI@Z 00000001800209d0 f i GuMTD.obj
 0001:0001fa00       ??_G?$LocalConvex@VConvexHullV@Gu@physx@@@Gu@physx@@UEAAPEAXI@Z 0000000180020a00 f i GuMTD.obj
 0001:0001fa00       ??_E?$LocalConvex@VConvexHullV@Gu@physx@@@Gu@physx@@UEAAPEAXI@Z 0000000180020a00 f i GuMTD.obj
 0001:0001fa30       ??_EGjkConvex@Gu@physx@@UEAAPEAXI@Z 0000000180020a30 f i GuMTD.obj
 0001:0001fa30       ??_GGjkConvex@Gu@physx@@UEAAPEAXI@Z 0000000180020a30 f i GuMTD.obj
 0001:0001fa60       ??_EGjkConvexBase@Gu@physx@@UEAAPEAXI@Z 0000000180020a60 f i GuMTD.obj
 0001:0001fa60       ??_GGjkConvexBase@Gu@physx@@UEAAPEAXI@Z 0000000180020a60 f i GuMTD.obj
 0001:0001fa90       ??__G@YAXPEAX0_K1P6APEAX00@Z@Z 0000000180020a90 f i GuMTD.obj
 0001:00020250       ?clearManifold@MultiplePersistentContactManifold@Gu@physx@@QEAAXXZ 0000000180021250 f i GuMTD.obj
 0001:00023e50       ?getAxes@SeparatingAxes@Gu@physx@@QEBAPEBVPxVec3@3@XZ 0000000180024e50 f i GuMTD.obj
 0001:00023e60       ?getCenter@?$LocalConvex@VCapsuleV@Gu@physx@@@Gu@physx@@UEBA?AT__m128@@XZ 0000000180024e60 f i GuMTD.obj
 0001:00023e70       ?getCenter@?$LocalConvex@VConvexHullV@Gu@physx@@@Gu@physx@@UEBA?AT__m128@@XZ 0000000180024e70 f i GuMTD.obj
 0001:00023e80       ?getEmptyManifold@MultiplePersistentContactManifold@Gu@physx@@QEAAPEAVSinglePersistentContactManifold@23@XZ 0000000180024e80 f i GuMTD.obj
 0001:00023ea0       ?getManifold@MultiplePersistentContactManifold@Gu@physx@@QEAAPEAVSinglePersistentContactManifold@23@I@Z 0000000180024ea0 f i GuMTD.obj
 0001:00023ec0       ?getNumAxes@SeparatingAxes@Gu@physx@@QEBAIXZ 0000000180024ec0 f i GuMTD.obj
 0001:00023ed0       ?getSweepMargin@?$LocalConvex@VCapsuleV@Gu@physx@@@Gu@physx@@UEBA?AT__m128@@XZ 0000000180024ed0 f i GuMTD.obj
 0001:00023ee0       ?getSweepMargin@?$LocalConvex@VConvexHullV@Gu@physx@@@Gu@physx@@UEBA?AT__m128@@XZ 0000000180024ee0 f i GuMTD.obj
 0001:00023f00       ?getSweepMargin@GjkConvex@Gu@physx@@UEBA?AT__m128@@XZ 0000000180024f00 f i GuMTD.obj
 0001:00023f20       ?hillClimbing@ConvexHullV@Gu@physx@@QEBAIAEBT__m128@@@Z 0000000180024f20 f i GuMTD.obj
 0001:00024150       ?initialize@MultiplePersistentContactManifold@Gu@physx@@QEAAXXZ 0000000180025150 f i GuMTD.obj
 0001:000241b0       ?invalidate@MultiplePersistentContactManifold@Gu@physx@@QEAAIAEBVPsTransformV@aos@shdfnd@3@AEBT__m128@@1@Z 00000001800251b0 f i GuMTD.obj
 0001:00024230       ?invalidate@MultiplePersistentContactManifold@Gu@physx@@QEAAIAEBVPsTransformV@aos@shdfnd@3@AEBT__m128@@@Z 0000000180025230 f i GuMTD.obj
 0001:000242b0       ?maxTransformPositionDelta@MultiplePersistentContactManifold@Gu@physx@@QEAA?AT__m128@@AEBT4@@Z 00000001800252b0 f i GuMTD.obj
 0001:000242f0       ?maxTransformQuatDelta@MultiplePersistentContactManifold@Gu@physx@@QEAA?AT__m128@@AEBT4@@Z 00000001800252f0 f i GuMTD.obj
 0001:000246d0       ?reduceManifoldContactsInDifferentPatches@MultiplePersistentContactManifold@Gu@physx@@QEAAIPEAPEAUPCMContactPatch@23@IPEAVMeshPersistentContact@23@IAEBT__m128@@@Z 00000001800256d0 f i GuMTD.obj
 0001:00024830       ?refineContactPatchConnective@MultiplePersistentContactManifold@Gu@physx@@QEAAXPEAPEAUPCMContactPatch@23@IPEAVMeshPersistentContact@23@AEBT__m128@@@Z 0000000180025830 f i GuMTD.obj
 0001:00024920       ?refreshManifold@MultiplePersistentContactManifold@Gu@physx@@QEAAXAEBVPsMatTransformV@aos@shdfnd@3@AEBT__m128@@1@Z 0000000180025920 f i GuMTD.obj
 0001:00024a20       ?reset@SeparatingAxes@Gu@physx@@QEAAXXZ 0000000180025a20 f i GuMTD.obj
 0001:00024a30       ?setRelativeTransform@MultiplePersistentContactManifold@Gu@physx@@QEAAXAEBVPsTransformV@aos@shdfnd@3@@Z 0000000180025a30 f i GuMTD.obj
 0001:00024a40       ?support@?$LocalConvex@VCapsuleV@Gu@physx@@@Gu@physx@@UEBA?AT__m128@@AEBT4@@Z 0000000180025a40 f i GuMTD.obj
 0001:00024aa0       ?support@?$LocalConvex@VCapsuleV@Gu@physx@@@Gu@physx@@UEBA?AT__m128@@AEBT4@AEAH@Z 0000000180025aa0 f i GuMTD.obj
 0001:00024b10       ?support@?$LocalConvex@VConvexHullV@Gu@physx@@@Gu@physx@@UEBA?AT__m128@@AEBT4@@Z 0000000180025b10 f i GuMTD.obj
 0001:00024bf0       ?support@?$LocalConvex@VConvexHullV@Gu@physx@@@Gu@physx@@UEBA?AT__m128@@AEBT4@AEAH@Z 0000000180025bf0 f i GuMTD.obj
 0001:00024cc0       ?support@GjkConvex@Gu@physx@@UEBA?AT__m128@@AEBT4@@Z 0000000180025cc0 f i GuMTD.obj
 0001:00024ce0       ?support@GjkConvex@Gu@physx@@UEBA?AT__m128@@AEBT4@AEAH@Z 0000000180025ce0 f i GuMTD.obj
 0001:00024d00       ?supportPoint@?$LocalConvex@VCapsuleV@Gu@physx@@@Gu@physx@@UEBA?AT__m128@@H@Z 0000000180025d00 f i GuMTD.obj
 0001:00024d30       ?supportPoint@?$LocalConvex@VConvexHullV@Gu@physx@@@Gu@physx@@UEBA?AT__m128@@H@Z 0000000180025d30 f i GuMTD.obj
 0001:00024d80       ?supportPoint@GjkConvex@Gu@physx@@UEBA?AT__m128@@H@Z 0000000180025d80 f i GuMTD.obj
 0001:00024da0       ?supportVertexIndex@ConvexHullV@Gu@physx@@QEBAIAEBT__m128@@@Z 0000000180025da0 f i GuMTD.obj
 0001:00025020       ?toBuffer@MultiplePersistentContactManifold@Gu@physx@@QEAAXPEIAE@Z 0000000180026020 f i GuMTD.obj
 0001:00025100       ?supportPoint@?$RelativeConvex@VBoxV@Gu@physx@@@Gu@physx@@UEBA?AT__m128@@H@Z 0000000180026100 f i GuOverlapTests.obj
 0001:00025170       ?support@?$RelativeConvex@VBoxV@Gu@physx@@@Gu@physx@@UEBA?AT__m128@@AEBT4@@Z 0000000180026170 f i GuOverlapTests.obj
 0001:000251f0       ?support@?$RelativeConvex@VBoxV@Gu@physx@@@Gu@physx@@UEBA?AT__m128@@AEBT4@AEAH@Z 00000001800261f0 f i GuOverlapTests.obj
 0001:00025280       ?getCenter@?$RelativeConvex@VBoxV@Gu@physx@@@Gu@physx@@UEBA?AT__m128@@XZ 0000000180026280 f i GuOverlapTests.obj
 0001:000252c0       ?getSweepMargin@?$RelativeConvex@VBoxV@Gu@physx@@@Gu@physx@@UEBA?AT__m128@@XZ 00000001800262c0 f i GuOverlapTests.obj
 0001:000252e0       ??_G?$RelativeConvex@VBoxV@Gu@physx@@@Gu@physx@@UEAAPEAXI@Z 00000001800262e0 f i GuOverlapTests.obj
 0001:000252e0       ??_E?$RelativeConvex@VBoxV@Gu@physx@@@Gu@physx@@UEAAPEAXI@Z 00000001800262e0 f i GuOverlapTests.obj
 0001:00025310       ?getOverlapFuncTable@Gu@physx@@YAPEAY06Q6A_NAEBVPxGeometry@2@AEBVPxTransform@2@01PEAUTriggerCache@12@@ZXZ 0000000180026310 f   GuOverlapTests.obj
 0001:00025320       ?registerHeightFields@Gu@physx@@YAXXZ 0000000180026320 f   GuOverlapTests.obj
 0001:000275a0       ?supportPoint@?$RelativeConvex@VConvexHullV@Gu@physx@@@Gu@physx@@UEBA?AT__m128@@H@Z 00000001800285a0 f i GuOverlapTests.obj
 0001:00027620       ?support@?$RelativeConvex@VConvexHullV@Gu@physx@@@Gu@physx@@UEBA?AT__m128@@AEBT4@@Z 0000000180028620 f i GuOverlapTests.obj
 0001:00027750       ?support@?$RelativeConvex@VConvexHullV@Gu@physx@@@Gu@physx@@UEBA?AT__m128@@AEBT4@AEAH@Z 0000000180028750 f i GuOverlapTests.obj
 0001:00027870       ?getCenter@?$RelativeConvex@VConvexHullV@Gu@physx@@@Gu@physx@@UEBA?AT__m128@@XZ 0000000180028870 f i GuOverlapTests.obj
 0001:000278b0       ?getSweepMargin@?$RelativeConvex@VConvexHullV@Gu@physx@@@Gu@physx@@UEBA?AT__m128@@XZ 00000001800288b0 f i GuOverlapTests.obj
 0001:000278d0       ??_G?$RelativeConvex@VConvexHullV@Gu@physx@@@Gu@physx@@UEAAPEAXI@Z 00000001800288d0 f i GuOverlapTests.obj
 0001:000278d0       ??_E?$RelativeConvex@VConvexHullV@Gu@physx@@@Gu@physx@@UEAAPEAXI@Z 00000001800288d0 f i GuOverlapTests.obj
 0001:00027900       ??$gjk@U?$RelativeConvex@VBoxV@Gu@physx@@@Gu@physx@@U?$LocalConvex@VConvexHullV@Gu@physx@@@23@@Gu@physx@@YA?AW4GjkStatus@01@AEBU?$RelativeConvex@VBoxV@Gu@physx@@@01@AEBU?$LocalConvex@VConvexHullV@Gu@physx@@@01@AEBT__m128@@2AEAT5@333@Z 0000000180028900 f i GuOverlapTests.obj
 0001:000286b0       ??$gjk@U?$RelativeConvex@VConvexHullV@Gu@physx@@@Gu@physx@@U?$LocalConvex@VConvexHullV@Gu@physx@@@23@@Gu@physx@@YA?AW4GjkStatus@01@AEBU?$RelativeConvex@VConvexHullV@Gu@physx@@@01@AEBU?$LocalConvex@VConvexHullV@Gu@physx@@@01@AEBT__m128@@2AEAT5@333@Z 00000001800296b0 f i GuOverlapTests.obj
 0001:00029540       ?ComputeCubemapNearestOffset@physx@@YAIAEBVPxVec3@1@I@Z 000000018002a540 f i GuOverlapTests.obj
 0001:0002b0c0       ?getRaycastFuncTable@Gu@physx@@YAAEAY06Q6AIAEBVPxGeometry@2@AEBVPxTransform@2@AEBVPxVec3@2@2MV?$PxFlags@W4Enum@PxHitFlag@physx@@G@2@IPEIAUPxRaycastHit@2@@ZXZ 000000018002c0c0 f   GuRaycastTests.obj
 0001:0002b0d0       ?raycast_box@@YAIAEBVPxGeometry@physx@@AEBVPxTransform@2@AEBVPxVec3@2@2MV?$PxFlags@W4Enum@PxHitFlag@physx@@G@2@IPEIAUPxRaycastHit@2@@Z 000000018002c0d0 f   GuRaycastTests.obj
 0001:0002b700       ?raycast_sphere@@YAIAEBVPxGeometry@physx@@AEBVPxTransform@2@AEBVPxVec3@2@2MV?$PxFlags@W4Enum@PxHitFlag@physx@@G@2@IPEIAUPxRaycastHit@2@@Z 000000018002c700 f   GuRaycastTests.obj
 0001:0002b890       ?raycast_capsule@@YAIAEBVPxGeometry@physx@@AEBVPxTransform@2@AEBVPxVec3@2@2MV?$PxFlags@W4Enum@PxHitFlag@physx@@G@2@IPEIAUPxRaycastHit@2@@Z 000000018002c890 f   GuRaycastTests.obj
 0001:0002be00       ?raycast_plane@@YAIAEBVPxGeometry@physx@@AEBVPxTransform@2@AEBVPxVec3@2@2MV?$PxFlags@W4Enum@PxHitFlag@physx@@G@2@IPEIAUPxRaycastHit@2@@Z 000000018002ce00 f   GuRaycastTests.obj
 0001:0002bf80       ?raycast_convexMesh@@YAIAEBVPxGeometry@physx@@AEBVPxTransform@2@AEBVPxVec3@2@2MV?$PxFlags@W4Enum@PxHitFlag@physx@@G@2@IPEIAUPxRaycastHit@2@@Z 000000018002cf80 f   GuRaycastTests.obj
 0001:0002cab0       ?raycast_triangleMesh@@YAIAEBVPxGeometry@physx@@AEBVPxTransform@2@AEBVPxVec3@2@2MV?$PxFlags@W4Enum@PxHitFlag@physx@@G@2@IPEIAUPxRaycastHit@2@@Z 000000018002dab0 f   GuRaycastTests.obj
 0001:0002cb40       ?raycast_heightField@@YAIAEBVPxGeometry@physx@@AEBVPxTransform@2@AEBVPxVec3@2@2MV?$PxFlags@W4Enum@PxHitFlag@physx@@G@2@IPEIAUPxRaycastHit@2@@Z 000000018002db40 f   GuRaycastTests.obj
 0001:0002d2c0       ?registerHeightFields_Raycasts@@YAXXZ 000000018002e2c0 f   GuRaycastTests.obj
 0001:0002e530       ??Dphysx@@YA?AVMatrix34@Cm@0@AEBVPxMeshScale@0@AEBVPxTransform@0@@Z 000000018002f530 f i GuRaycastTests.obj
 0001:0002f170       ?readChunk@physx@@YAXAEAC000AEAVPxInputStream@1@@Z 0000000180030170 f   GuSerialize.obj
 0001:0002f200       ?readWord@physx@@YAG_NAEAVPxInputStream@1@@Z 0000000180030200 f   GuSerialize.obj
 0001:0002f250       ?readDword@physx@@YAI_NAEAVPxInputStream@1@@Z 0000000180030250 f   GuSerialize.obj
 0001:0002f2b0       ?readFloat@physx@@YAM_NAEAVPxInputStream@1@@Z 00000001800302b0 f   GuSerialize.obj
 0001:0002f310       ?writeWord@physx@@YAXG_NAEAVPxOutputStream@1@@Z 0000000180030310 f   GuSerialize.obj
 0001:0002f350       ?writeDword@physx@@YAXI_NAEAVPxOutputStream@1@@Z 0000000180030350 f   GuSerialize.obj
 0001:0002f3a0       ?writeFloat@physx@@YAXM_NAEAVPxOutputStream@1@@Z 00000001800303a0 f   GuSerialize.obj
 0001:0002f400       ?readFloatBuffer@physx@@YA_NPEAMI_NAEAVPxInputStream@1@@Z 0000000180030400 f   GuSerialize.obj
 0001:0002f480       ?writeFloatBuffer@physx@@YAXPEBMI_NAEAVPxOutputStream@1@@Z 0000000180030480 f   GuSerialize.obj
 0001:0002f530       ?writeWordBuffer@physx@@YAXPEBGI_NAEAVPxOutputStream@1@@Z 0000000180030530 f   GuSerialize.obj
 0001:0002f5c0       ?readWordBuffer@physx@@YAXPEAGI_NAEAVPxInputStream@1@@Z 00000001800305c0 f   GuSerialize.obj
 0001:0002f630       ?writeHeader@physx@@YA_NCCCCI_NAEAVPxOutputStream@1@@Z 0000000180030630 f   GuSerialize.obj
 0001:0002f760       ?readHeader@physx@@YA_NCCCCAEAIAEA_NAEAVPxInputStream@1@@Z 0000000180030760 f   GuSerialize.obj
 0001:0002f8c0       ?computeMaxIndex@physx@@YAIPEBII@Z 00000001800308c0 f   GuSerialize.obj
 0001:0002f8f0       ?computeMaxIndex@physx@@YAGPEBGI@Z 00000001800308f0 f   GuSerialize.obj
 0001:0002f930       ?storeIndices@physx@@YAXIIPEBIAEAVPxOutputStream@1@_N@Z 0000000180030930 f   GuSerialize.obj
 0001:0002fa20       ?readIndices@physx@@YAXIIPEAIAEAVPxInputStream@1@_N@Z 0000000180030a20 f   GuSerialize.obj
 0001:0002fb20       ?WriteHeader@Gu@physx@@YA_NEEEEI_NAEAVPxOutputStream@2@@Z 0000000180030b20 f   GuSerialize.obj
 0001:0002fc50       ?ReadHeader@Gu@physx@@YA_NEEEEAEAIAEA_NAEAVPxInputStream@2@@Z 0000000180030c50 f   GuSerialize.obj
 0001:0002fdc0       ?StoreIndices@Gu@physx@@YAXIIPEBIAEAVPxOutputStream@2@_N@Z 0000000180030dc0 f   GuSerialize.obj
 0001:0002fef0       ?ReadIndices@Gu@physx@@YAXIIPEAIAEAVPxInputStream@2@_N@Z 0000000180030ef0 f   GuSerialize.obj
 0001:00030160       ?StoreIndices@Gu@physx@@YAXGIPEBGAEAVPxOutputStream@2@_N@Z 0000000180031160 f   GuSerialize.obj
 0001:00030230       ?ReadIndices@Gu@physx@@YAXGIPEAGAEAVPxInputStream@2@_N@Z 0000000180031230 f   GuSerialize.obj
 0001:00030380       ?computeCapsule_TriangleMeshMTD@Gu@physx@@YA_NAEBVPxTriangleMeshGeometry@2@AEBVPxTransform@2@AEAVCapsuleV@12@M_NAEAUPxSweepHit@2@@Z 0000000180031380 f   GuSweepMTD.obj
 0001:00030c30       ?computeCapsule_HeightFieldMTD@Gu@physx@@YA_NAEBVPxHeightFieldGeometry@2@AEBVPxTransform@2@AEAVCapsuleV@12@M_NIAEAUPxSweepHit@2@@Z 0000000180031c30 f   GuSweepMTD.obj
 0001:00031450       ?computeBox_TriangleMeshMTD@Gu@physx@@YA_NAEBVPxTriangleMeshGeometry@2@AEBVPxTransform@2@AEBVBox@12@1M_NAEAUPxSweepHit@2@@Z 0000000180032450 f   GuSweepMTD.obj
 0001:00032090       ?computeBox_HeightFieldMTD@Gu@physx@@YA_NAEBVPxHeightFieldGeometry@2@AEBVPxTransform@2@AEBVBox@12@1M_NIAEAUPxSweepHit@2@@Z 0000000180033090 f   GuSweepMTD.obj
 0001:00032f10       ?computeConvex_TriangleMeshMTD@Gu@physx@@YA_NAEBVPxTriangleMeshGeometry@2@AEBVPxTransform@2@AEBVPxConvexMeshGeometry@2@1M_NAEAUPxSweepHit@2@@Z 0000000180033f10 f   GuSweepMTD.obj
 0001:00034140       ?computeConvex_HeightFieldMTD@Gu@physx@@YA_NAEBVPxHeightFieldGeometry@2@AEBVPxTransform@2@AEBVPxConvexMeshGeometry@2@1M_NIAEAUPxSweepHit@2@@Z 0000000180035140 f   GuSweepMTD.obj
 0001:000354b0       ?computeSphere_SphereMTD@Gu@physx@@YA_NAEBVSphere@12@0AEAUPxSweepHit@2@@Z 00000001800364b0 f   GuSweepMTD.obj
 0001:000355a0       ?computeSphere_CapsuleMTD@Gu@physx@@YA_NAEBVSphere@12@AEBVCapsule@12@AEAUPxSweepHit@2@@Z 00000001800365a0 f   GuSweepMTD.obj
 0001:00035750       ?computeCapsule_CapsuleMTD@Gu@physx@@YA_NAEBVCapsule@12@0AEAUPxSweepHit@2@@Z 0000000180036750 f   GuSweepMTD.obj
 0001:00035990       ?computePlane_CapsuleMTD@Gu@physx@@YA_NAEBVPxPlane@2@AEBVCapsule@12@AEAUPxSweepHit@2@@Z 0000000180036990 f   GuSweepMTD.obj
 0001:00035ac0       ?computePlane_BoxMTD@Gu@physx@@YA_NAEBVPxPlane@2@AEBVBox@12@AEAUPxSweepHit@2@@Z 0000000180036ac0 f   GuSweepMTD.obj
 0001:00035e00       ?computePlane_ConvexMTD@Gu@physx@@YA_NAEBVPxPlane@2@AEBVPxConvexMeshGeometry@2@AEBVPxTransform@2@AEAUPxSweepHit@2@@Z 0000000180036e00 f   GuSweepMTD.obj
 0001:00036970       ??0MTDTriangle@@QEAA@XZ    0000000180037970 f i GuSweepMTD.obj
 0001:00036980       ??1?$MeshHitCallback@UPxRaycastHit@physx@@@Gu@physx@@UEAA@XZ 0000000180037980 f i GuSweepMTD.obj
 0001:00036990       ??1MTDTriangle@@QEAA@XZ    0000000180037990 f i GuSweepMTD.obj
 0001:000369a0       ??Dphysx@@YA?AVMatrix34@Cm@0@AEBVPxTransform@0@AEBVPxMeshScale@0@@Z 00000001800379a0 f i GuSweepMTD.obj
 0001:00036ff0       ??_E?$MeshHitCallback@UPxRaycastHit@physx@@@Gu@physx@@UEAAPEAXI@Z 0000000180037ff0 f i GuSweepMTD.obj
 0001:00036ff0       ??_G?$MeshHitCallback@UPxRaycastHit@physx@@@Gu@physx@@UEAAPEAXI@Z 0000000180037ff0 f i GuSweepMTD.obj
 0001:00037020       ??_GMeshMTDGenerationCallback@@UEAAPEAXI@Z 0000000180038020 f i GuSweepMTD.obj
 0001:00037020       ??_EMeshMTDGenerationCallback@@UEAAPEAXI@Z 0000000180038020 f i GuSweepMTD.obj
 0001:00037050       ??_EMidPhaseQueryLocalReport@@UEAAPEAXI@Z 0000000180038050 f i GuSweepMTD.obj
 0001:00037050       ??_GMidPhaseQueryLocalReport@@UEAAPEAXI@Z 0000000180038050 f i GuSweepMTD.obj
 0001:00037080       ?allocate@?$ReflectionAllocator@I@shdfnd@physx@@QEAAPEAX_KPEBDH@Z 0000000180038080 f i GuSweepMTD.obj
 0001:00037120       ?getInverse@PxMat33@physx@@QEBA?BV12@XZ 0000000180038120 f i GuSweepMTD.obj
 0001:00037370       ?init@FastVertex2ShapeScaling@Cm@physx@@QEAAXAEBVPxVec3@3@AEBVPxQuat@3@@Z 0000000180038370 f i GuSweepMTD.obj
 0001:00037750       ?onEvent@MidPhaseQueryLocalReport@@UEAA_NIPEAI@Z 0000000180038750 f i GuSweepMTD.obj
 0001:000377c0       ?processHit@MeshMTDGenerationCallback@@UEAA_NAEBUPxRaycastHit@physx@@AEBVPxVec3@3@11AEAMPEBI@Z 00000001800387c0 f i GuSweepMTD.obj
 0001:00037810       ?recreate@?$Array@IV?$ReflectionAllocator@I@shdfnd@physx@@@shdfnd@physx@@IEAAXI@Z 0000000180038810 f i GuSweepMTD.obj
 0001:000378d0       ?sweepCapsuleTriangles@Gu@physx@@YA_NIPEBVPxTriangle@2@_NAEBVPxCapsuleGeometry@2@AEBVPxTransform@2@AEBVPxVec3@2@MAEAUPxSweepHit@2@PEBIMV?$PxFlags@W4Enum@PxHitFlag@physx@@G@2@@Z 00000001800388d0 f   GuSweepSharedTests.obj
 0001:00037ac0       ?sweepCapsule_SphereGeom@@YA_NAEBVPxGeometry@physx@@AEBVPxTransform@2@AEBVPxCapsuleGeometry@2@1AEBVCapsule@Gu@2@AEBVPxVec3@2@MAEAUPxSweepHit@2@V?$PxFlags@W4Enum@PxHitFlag@physx@@G@2@M@Z 0000000180038ac0 f   GuSweepSharedTests.obj
 0001:00037c60       ?sweepCapsule_PlaneGeom@@YA_NAEBVPxGeometry@physx@@AEBVPxTransform@2@AEBVPxCapsuleGeometry@2@1AEBVCapsule@Gu@2@AEBVPxVec3@2@MAEAUPxSweepHit@2@V?$PxFlags@W4Enum@PxHitFlag@physx@@G@2@M@Z 0000000180038c60 f   GuSweepSharedTests.obj
 0001:00037f60       ?sweepCapsule_CapsuleGeom@@YA_NAEBVPxGeometry@physx@@AEBVPxTransform@2@AEBVPxCapsuleGeometry@2@1AEBVCapsule@Gu@2@AEBVPxVec3@2@MAEAUPxSweepHit@2@V?$PxFlags@W4Enum@PxHitFlag@physx@@G@2@M@Z 0000000180038f60 f   GuSweepSharedTests.obj
 0001:00038140       ?sweepCapsule_ConvexGeom@@YA_NAEBVPxGeometry@physx@@AEBVPxTransform@2@AEBVPxCapsuleGeometry@2@1AEBVCapsule@Gu@2@AEBVPxVec3@2@MAEAUPxSweepHit@2@V?$PxFlags@W4Enum@PxHitFlag@physx@@G@2@M@Z 0000000180039140 f   GuSweepSharedTests.obj
 0001:00038ed0       ?sweepBox_PlaneGeom@@YA_NAEBVPxGeometry@physx@@AEBVPxTransform@2@AEBVPxBoxGeometry@2@1AEBVBox@Gu@2@AEBVPxVec3@2@MAEAUPxSweepHit@2@V?$PxFlags@W4Enum@PxHitFlag@physx@@G@2@M@Z 0000000180039ed0 f   GuSweepSharedTests.obj
 0001:00039380       ?sweepBox_ConvexGeom@@YA_NAEBVPxGeometry@physx@@AEBVPxTransform@2@AEBVPxBoxGeometry@2@1AEBVBox@Gu@2@AEBVPxVec3@2@MAEAUPxSweepHit@2@V?$PxFlags@W4Enum@PxHitFlag@physx@@G@2@M@Z 000000018003a380 f   GuSweepSharedTests.obj
 0001:0003a1a0       ?sweepConvex_SphereGeom@@YA_NAEBVPxGeometry@physx@@AEBVPxTransform@2@AEBVPxConvexMeshGeometry@2@1AEBVPxVec3@2@MAEAUPxSweepHit@2@V?$PxFlags@W4Enum@PxHitFlag@physx@@G@2@M@Z 000000018003b1a0 f   GuSweepSharedTests.obj
 0001:0003adc0       ?sweepConvex_PlaneGeom@@YA_NAEBVPxGeometry@physx@@AEBVPxTransform@2@AEBVPxConvexMeshGeometry@2@1AEBVPxVec3@2@MAEAUPxSweepHit@2@V?$PxFlags@W4Enum@PxHitFlag@physx@@G@2@M@Z 000000018003bdc0 f   GuSweepSharedTests.obj
 0001:0003b210       ?sweepConvex_CapsuleGeom@@YA_NAEBVPxGeometry@physx@@AEBVPxTransform@2@AEBVPxConvexMeshGeometry@2@1AEBVPxVec3@2@MAEAUPxSweepHit@2@V?$PxFlags@W4Enum@PxHitFlag@physx@@G@2@M@Z 000000018003c210 f   GuSweepSharedTests.obj
 0001:0003b440       ?sweepConvex_BoxGeom@@YA_NAEBVPxGeometry@physx@@AEBVPxTransform@2@AEBVPxConvexMeshGeometry@2@1AEBVPxVec3@2@MAEAUPxSweepHit@2@V?$PxFlags@W4Enum@PxHitFlag@physx@@G@2@M@Z 000000018003c440 f   GuSweepSharedTests.obj
 0001:0003b660       ?sweepConvex_ConvexGeom@@YA_NAEBVPxGeometry@physx@@AEBVPxTransform@2@AEBVPxConvexMeshGeometry@2@1AEBVPxVec3@2@MAEAUPxSweepHit@2@V?$PxFlags@W4Enum@PxHitFlag@physx@@G@2@M@Z 000000018003c660 f   GuSweepSharedTests.obj
 0001:0003c600       ??$gjkPenetration@U?$LocalConvex@VCapsuleV@Gu@physx@@@Gu@physx@@U?$LocalConvex@VConvexHullV@Gu@physx@@@23@@Gu@physx@@YA?AW4GjkStatus@01@AEBU?$LocalConvex@VCapsuleV@Gu@physx@@@01@AEBU?$LocalConvex@VConvexHullV@Gu@physx@@@01@AEBT__m128@@2_NPEIAE4AEAEAEAUGjkOutput@01@@Z 000000018003d600 f i GuSweepSharedTests.obj
 0001:0003dbd0       ??$gjkPenetration@U?$RelativeConvex@VBoxV@Gu@physx@@@Gu@physx@@U?$LocalConvex@VConvexHullV@Gu@physx@@@23@@Gu@physx@@YA?AW4GjkStatus@01@AEBU?$RelativeConvex@VBoxV@Gu@physx@@@01@AEBU?$LocalConvex@VConvexHullV@Gu@physx@@@01@AEBT__m128@@2_NPEIAE4AEAEAEAUGjkOutput@01@@Z 000000018003ebd0 f i GuSweepSharedTests.obj
 0001:0003f1c0       ??$gjkPenetration@U?$RelativeConvex@VConvexHullV@Gu@physx@@@Gu@physx@@U?$LocalConvex@VConvexHullV@Gu@physx@@@23@@Gu@physx@@YA?AW4GjkStatus@01@AEBU?$RelativeConvex@VConvexHullV@Gu@physx@@@01@AEBU?$LocalConvex@VConvexHullV@Gu@physx@@@01@AEBT__m128@@2_NPEIAE4AEAEAEAUGjkOutput@01@@Z 00000001800401c0 f i GuSweepSharedTests.obj
 0001:00040820       ??$gjkRaycast@U?$LocalConvex@VCapsuleV@Gu@physx@@@Gu@physx@@U?$LocalConvex@VConvexHullV@Gu@physx@@@23@@Gu@physx@@YA_NAEBU?$LocalConvex@VCapsuleV@Gu@physx@@@01@AEBU?$LocalConvex@VConvexHullV@Gu@physx@@@01@AEBT__m128@@222AEAT4@33M@Z 0000000180041820 f i GuSweepSharedTests.obj
 0001:00041570       ??$gjkRaycast@U?$RelativeConvex@VBoxV@Gu@physx@@@Gu@physx@@U?$LocalConvex@VConvexHullV@Gu@physx@@@23@@Gu@physx@@YA_NAEBU?$RelativeConvex@VBoxV@Gu@physx@@@01@AEBU?$LocalConvex@VConvexHullV@Gu@physx@@@01@AEBT__m128@@222AEAT4@33M@Z 0000000180042570 f i GuSweepSharedTests.obj
 0001:00042330       ??$gjkRaycast@U?$RelativeConvex@VConvexHullV@Gu@physx@@@Gu@physx@@U?$LocalConvex@VConvexHullV@Gu@physx@@@23@@Gu@physx@@YA_NAEBU?$RelativeConvex@VConvexHullV@Gu@physx@@@01@AEBU?$LocalConvex@VConvexHullV@Gu@physx@@@01@AEBT__m128@@222AEAT4@33M@Z 0000000180043330 f i GuSweepSharedTests.obj
 0001:000431c0       ??$gjkRaycastPenetration@U?$LocalConvex@VCapsuleV@Gu@physx@@@Gu@physx@@U?$LocalConvex@VConvexHullV@Gu@physx@@@23@@Gu@physx@@YA_NAEBU?$LocalConvex@VCapsuleV@Gu@physx@@@01@AEBU?$LocalConvex@VConvexHullV@Gu@physx@@@01@AEBT__m128@@222AEAT4@33M_N@Z 00000001800441c0 f i GuSweepSharedTests.obj
 0001:000433f0       ??$gjkRaycastPenetration@U?$RelativeConvex@VBoxV@Gu@physx@@@Gu@physx@@U?$LocalConvex@VConvexHullV@Gu@physx@@@23@@Gu@physx@@YA_NAEBU?$RelativeConvex@VBoxV@Gu@physx@@@01@AEBU?$LocalConvex@VConvexHullV@Gu@physx@@@01@AEBT__m128@@222AEAT4@33M_N@Z 00000001800443f0 f i GuSweepSharedTests.obj
 0001:00043670       ??$gjkRaycastPenetration@U?$RelativeConvex@VConvexHullV@Gu@physx@@@Gu@physx@@U?$LocalConvex@VConvexHullV@Gu@physx@@@23@@Gu@physx@@YA_NAEBU?$RelativeConvex@VConvexHullV@Gu@physx@@@01@AEBU?$LocalConvex@VConvexHullV@Gu@physx@@@01@AEBT__m128@@222AEAT4@33M_N@Z 0000000180044670 f i GuSweepSharedTests.obj
 0001:000442a0       ?getSweepFuncTable@Gu@physx@@YAAEBUGeomSweepFuncs@12@XZ 00000001800452a0 f   GuSweepTests.obj
 0001:000442b0       ?sweepBoxTriangles@Gu@physx@@YA_NIPEBVPxTriangle@2@_NAEBVPxBoxGeometry@2@AEBVPxTransform@2@AEBVPxVec3@2@MAEAUPxSweepHit@2@PEBIMV?$PxFlags@W4Enum@PxHitFlag@physx@@G@2@@Z 00000001800452b0 f   GuSweepTests.obj
 0001:00044d30       ?sweepCapsule_BoxGeom@@YA_NAEBVPxGeometry@physx@@AEBVPxTransform@2@AEBVPxCapsuleGeometry@2@1AEBVCapsule@Gu@2@AEBVPxVec3@2@MAEAUPxSweepHit@2@V?$PxFlags@W4Enum@PxHitFlag@physx@@G@2@M@Z 0000000180045d30 f   GuSweepTests.obj
 0001:00045620       ?sweepBox_SphereGeom@@YA_NAEBVPxGeometry@physx@@AEBVPxTransform@2@AEBVPxBoxGeometry@2@1AEBVBox@Gu@2@AEBVPxVec3@2@MAEAUPxSweepHit@2@V?$PxFlags@W4Enum@PxHitFlag@physx@@G@2@M@Z 0000000180046620 f   GuSweepTests.obj
 0001:00045cf0       ?sweepBox_CapsuleGeom@@YA_NAEBVPxGeometry@physx@@AEBVPxTransform@2@AEBVPxBoxGeometry@2@1AEBVBox@Gu@2@AEBVPxVec3@2@MAEAUPxSweepHit@2@V?$PxFlags@W4Enum@PxHitFlag@physx@@G@2@M@Z 0000000180046cf0 f   GuSweepTests.obj
 0001:00046600       ?sweepBox_BoxGeom@@YA_NAEBVPxGeometry@physx@@AEBVPxTransform@2@AEBVPxBoxGeometry@2@1AEBVBox@Gu@2@AEBVPxVec3@2@MAEAUPxSweepHit@2@V?$PxFlags@W4Enum@PxHitFlag@physx@@G@2@M@Z 0000000180047600 f   GuSweepTests.obj
 0001:00046fa0       ?registerHeightFields_Sweeps@@YAXXZ 0000000180047fa0 f   GuSweepTests.obj
 0001:00046fe0       ??$gjkPenetration@U?$LocalConvex@VCapsuleV@Gu@physx@@@Gu@physx@@U?$LocalConvex@VBoxV@Gu@physx@@@23@@Gu@physx@@YA?AW4GjkStatus@01@AEBU?$LocalConvex@VCapsuleV@Gu@physx@@@01@AEBU?$LocalConvex@VBoxV@Gu@physx@@@01@AEBT__m128@@2_NPEIAE4AEAEAEAUGjkOutput@01@@Z 0000000180047fe0 f i GuSweepTests.obj
 0001:00048500       ??$gjkPenetration@U?$LocalConvex@VTriangleV@Gu@physx@@@Gu@physx@@U?$LocalConvex@VBoxV@Gu@physx@@@23@@Gu@physx@@YA?AW4GjkStatus@01@AEBU?$LocalConvex@VTriangleV@Gu@physx@@@01@AEBU?$LocalConvex@VBoxV@Gu@physx@@@01@AEBT__m128@@2_NPEIAE4AEAEAEAUGjkOutput@01@@Z 0000000180049500 f i GuSweepTests.obj
 0001:00049a10       ??$gjkPenetration@U?$RelativeConvex@VBoxV@Gu@physx@@@Gu@physx@@U?$LocalConvex@VBoxV@Gu@physx@@@23@@Gu@physx@@YA?AW4GjkStatus@01@AEBU?$RelativeConvex@VBoxV@Gu@physx@@@01@AEBU?$LocalConvex@VBoxV@Gu@physx@@@01@AEBT__m128@@2_NPEIAE4AEAEAEAUGjkOutput@01@@Z 000000018004aa10 f i GuSweepTests.obj
 0001:0004af50       ??$gjkRaycast@U?$LocalConvex@VCapsuleV@Gu@physx@@@Gu@physx@@U?$LocalConvex@VBoxV@Gu@physx@@@23@@Gu@physx@@YA_NAEBU?$LocalConvex@VCapsuleV@Gu@physx@@@01@AEBU?$LocalConvex@VBoxV@Gu@physx@@@01@AEBT__m128@@222AEAT4@33M@Z 000000018004bf50 f i GuSweepTests.obj
 0001:0004bb30       ??$gjkRaycast@U?$LocalConvex@VTriangleV@Gu@physx@@@Gu@physx@@U?$LocalConvex@VBoxV@Gu@physx@@@23@@Gu@physx@@YA_NAEBU?$LocalConvex@VTriangleV@Gu@physx@@@01@AEBU?$LocalConvex@VBoxV@Gu@physx@@@01@AEBT__m128@@222AEAT4@33M@Z 000000018004cb30 f i GuSweepTests.obj
 0001:0004c780       ??$gjkRaycast@U?$RelativeConvex@VBoxV@Gu@physx@@@Gu@physx@@U?$LocalConvex@VBoxV@Gu@physx@@@23@@Gu@physx@@YA_NAEBU?$RelativeConvex@VBoxV@Gu@physx@@@01@AEBU?$LocalConvex@VBoxV@Gu@physx@@@01@AEBT__m128@@222AEAT4@33M@Z 000000018004d780 f i GuSweepTests.obj
 0001:0004d3c0       ??$gjkRaycastPenetration@U?$LocalConvex@VCapsuleV@Gu@physx@@@Gu@physx@@U?$LocalConvex@VBoxV@Gu@physx@@@23@@Gu@physx@@YA_NAEBU?$LocalConvex@VCapsuleV@Gu@physx@@@01@AEBU?$LocalConvex@VBoxV@Gu@physx@@@01@AEBT__m128@@222AEAT4@33M_N@Z 000000018004e3c0 f i GuSweepTests.obj
 0001:0004d5f0       ??$gjkRaycastPenetration@U?$LocalConvex@VTriangleV@Gu@physx@@@Gu@physx@@U?$LocalConvex@VBoxV@Gu@physx@@@23@@Gu@physx@@YA_NAEBU?$LocalConvex@VTriangleV@Gu@physx@@@01@AEBU?$LocalConvex@VBoxV@Gu@physx@@@01@AEBT__m128@@222AEAT4@33M_N@Z 000000018004e5f0 f i GuSweepTests.obj
 0001:0004d820       ??$gjkRaycastPenetration@U?$RelativeConvex@VBoxV@Gu@physx@@@Gu@physx@@U?$LocalConvex@VBoxV@Gu@physx@@@23@@Gu@physx@@YA_NAEBU?$RelativeConvex@VBoxV@Gu@physx@@@01@AEBU?$LocalConvex@VBoxV@Gu@physx@@@01@AEBT__m128@@222AEAT4@33M_N@Z 000000018004e820 f i GuSweepTests.obj
 0001:0004daa0       ??_G?$LocalConvex@VBoxV@Gu@physx@@@Gu@physx@@UEAAPEAXI@Z 000000018004eaa0 f i GuSweepTests.obj
 0001:0004daa0       ??_E?$LocalConvex@VBoxV@Gu@physx@@@Gu@physx@@UEAAPEAXI@Z 000000018004eaa0 f i GuSweepTests.obj
 0001:0004dad0       ??_E?$LocalConvex@VTriangleV@Gu@physx@@@Gu@physx@@UEAAPEAXI@Z 000000018004ead0 f i GuSweepTests.obj
 0001:0004dad0       ??_G?$LocalConvex@VTriangleV@Gu@physx@@@Gu@physx@@UEAAPEAXI@Z 000000018004ead0 f i GuSweepTests.obj
 0001:0004db00       ?getCenter@?$LocalConvex@VBoxV@Gu@physx@@@Gu@physx@@UEBA?AT__m128@@XZ 000000018004eb00 f i GuSweepTests.obj
 0001:0004db10       ?getCenter@?$LocalConvex@VTriangleV@Gu@physx@@@Gu@physx@@UEBA?AT__m128@@XZ 000000018004eb10 f i GuSweepTests.obj
 0001:0004db20       ?getSweepMargin@?$LocalConvex@VBoxV@Gu@physx@@@Gu@physx@@UEBA?AT__m128@@XZ 000000018004eb20 f i GuSweepTests.obj
 0001:0004db40       ?getSweepMargin@?$LocalConvex@VTriangleV@Gu@physx@@@Gu@physx@@UEBA?AT__m128@@XZ 000000018004eb40 f i GuSweepTests.obj
 0001:0004db50       ?support@?$LocalConvex@VBoxV@Gu@physx@@@Gu@physx@@UEBA?AT__m128@@AEBT4@@Z 000000018004eb50 f i GuSweepTests.obj
 0001:0004db80       ?support@?$LocalConvex@VBoxV@Gu@physx@@@Gu@physx@@UEBA?AT__m128@@AEBT4@AEAH@Z 000000018004eb80 f i GuSweepTests.obj
 0001:0004dbc0       ?support@?$LocalConvex@VTriangleV@Gu@physx@@@Gu@physx@@UEBA?AT__m128@@AEBT4@@Z 000000018004ebc0 f i GuSweepTests.obj
 0001:0004dc50       ?support@?$LocalConvex@VTriangleV@Gu@physx@@@Gu@physx@@UEBA?AT__m128@@AEBT4@AEAH@Z 000000018004ec50 f i GuSweepTests.obj
 0001:0004dd30       ?supportPoint@?$LocalConvex@VBoxV@Gu@physx@@@Gu@physx@@UEBA?AT__m128@@H@Z 000000018004ed30 f i GuSweepTests.obj
 0001:0004dd70       ?supportPoint@?$LocalConvex@VTriangleV@Gu@physx@@@Gu@physx@@UEBA?AT__m128@@H@Z 000000018004ed70 f i GuSweepTests.obj
 0001:0004dd90       ?subdivide@AABBTreeBuildNode@Gu@physx@@QEAAXAEBVAABBTreeBuildParams@23@AEAUBuildStats@23@AEAVNodeAllocator@23@QEAI@Z 000000018004ed90 f   GuAABBTreeBuild.obj
 0001:0004df80       ?_buildHierarchy@AABBTreeBuildNode@Gu@physx@@QEAAXAEAVAABBTreeBuildParams@23@AEAUBuildStats@23@AEAVNodeAllocator@23@QEAI@Z 000000018004ef80 f   GuAABBTreeBuild.obj
 0001:0004e010       ??0NodeAllocator@Gu@physx@@QEAA@XZ 000000018004f010 f   GuAABBTreeBuild.obj
 0001:0004e030       ??1NodeAllocator@Gu@physx@@QEAA@XZ 000000018004f030 f   GuAABBTreeBuild.obj
 0001:0004e080       ?release@NodeAllocator@Gu@physx@@QEAAXXZ 000000018004f080 f   GuAABBTreeBuild.obj
 0001:0004e130       ?init@NodeAllocator@Gu@physx@@QEAAXII@Z 000000018004f130 f   GuAABBTreeBuild.obj
 0001:0004e2a0       ?getBiNode@NodeAllocator@Gu@physx@@QEAAPEAVAABBTreeBuildNode@23@XZ 000000018004f2a0 f   GuAABBTreeBuild.obj
 0001:0004e3d0       ?initAABBTreeBuild@Gu@physx@@YA_NAEAVAABBTreeBuildParams@12@AEAVNodeAllocator@12@AEAUBuildStats@12@AEAPEAI@Z 000000018004f3d0 f   GuAABBTreeBuild.obj
 0001:0004e5e0       ?buildAABBTree@Gu@physx@@YA_NAEAVAABBTreeBuildParams@12@AEAVNodeAllocator@12@AEAUBuildStats@12@AEAPEAI@Z 000000018004f5e0 f   GuAABBTreeBuild.obj
 0001:0004e640       ??$copy@V?$ReflectionAllocator@USlab@NodeAllocator@Gu@physx@@@shdfnd@physx@@@?$Array@USlab@NodeAllocator@Gu@physx@@V?$ReflectionAllocator@USlab@NodeAllocator@Gu@physx@@@shdfnd@4@@shdfnd@physx@@IEAAXAEBV012@@Z 000000018004f640 f i GuAABBTreeBuild.obj
 0001:0004e6c0       ??0AABBTreeBuildNode@Gu@physx@@QEAA@AEBV012@@Z 000000018004f6c0 f i GuAABBTreeBuild.obj
 0001:0004e700       ??0AABBTreeBuildNode@Gu@physx@@QEAA@XZ 000000018004f700 f i GuAABBTreeBuild.obj
 0001:0004e710       ??0AABBTreeBuildParams@Gu@physx@@QEAA@IIPEBVPxBounds3@2@@Z 000000018004f710 f i GuAABBTreeBuild.obj
 0001:0004e730       ??0BuildStats@Gu@physx@@QEAA@XZ 000000018004f730 f i GuAABBTreeBuild.obj
 0001:0004e740       ??0NodeAllocator@Gu@physx@@QEAA@AEBV012@@Z 000000018004f740 f i GuAABBTreeBuild.obj
 0001:0004e780       ??1AABBTreeBuildNode@Gu@physx@@QEAA@XZ 000000018004f780 f i GuAABBTreeBuild.obj
 0001:0004e790       ??1AABBTreeBuildParams@Gu@physx@@QEAA@XZ 000000018004f790 f i GuAABBTreeBuild.obj
 0001:0004e7f0       ??4AABBTreeBuildNode@Gu@physx@@QEAAAEAV012@AEBV012@@Z 000000018004f7f0 f i GuAABBTreeBuild.obj
 0001:0004e830       ??4AABBTreeBuildParams@Gu@physx@@QEAAAEAV012@AEBV012@@Z 000000018004f830 f i GuAABBTreeBuild.obj
 0001:0004e850       ??4BuildStats@Gu@physx@@QEAAAEAU012@$$QEAU012@@Z 000000018004f850 f i GuAABBTreeBuild.obj
 0001:0004e860       ??4BuildStats@Gu@physx@@QEAAAEAU012@AEBU012@@Z 000000018004f860 f i GuAABBTreeBuild.obj
 0001:0004e870       ??4NodeAllocator@Gu@physx@@QEAAAEAV012@AEBV012@@Z 000000018004f870 f i GuAABBTreeBuild.obj
 0001:0004e920       ??_EAABBTreeBuildNode@Gu@physx@@QEAAPEAXI@Z 000000018004f920 f i GuAABBTreeBuild.obj
 0001:0004e9a0       ??_FAABBTreeBuildParams@Gu@physx@@QEAAXXZ 000000018004f9a0 f i GuAABBTreeBuild.obj
 0001:0004e9c0       ?allocate@?$Array@USlab@NodeAllocator@Gu@physx@@V?$ReflectionAllocator@USlab@NodeAllocator@Gu@physx@@@shdfnd@4@@shdfnd@physx@@IEAAPEAUSlab@NodeAllocator@Gu@3@I@Z 000000018004f9c0 f i GuAABBTreeBuild.obj
 0001:0004ea60       ?getAABB@AABBTreeBuildNode@Gu@physx@@QEBAAEBVPxBounds3@3@XZ 000000018004fa60 f i GuAABBTreeBuild.obj
 0001:0004ea70       ?getCount@BuildStats@Gu@physx@@QEBAIXZ 000000018004fa70 f i GuAABBTreeBuild.obj
 0001:0004ea80       ?getNbPrimitives@AABBTreeBuildNode@Gu@physx@@QEBAIXZ 000000018004fa80 f i GuAABBTreeBuild.obj
 0001:0004ea90       ?getNbRuntimePrimitives@AABBTreeBuildNode@Gu@physx@@QEBAIXZ 000000018004fa90 f i GuAABBTreeBuild.obj
 0001:0004eaa0       ?getNeg@AABBTreeBuildNode@Gu@physx@@QEBAPEBV123@XZ 000000018004faa0 f i GuAABBTreeBuild.obj
 0001:0004eac0       ?getPos@AABBTreeBuildNode@Gu@physx@@QEBAPEBV123@XZ 000000018004fac0 f i GuAABBTreeBuild.obj
 0001:0004ead0       ?getPrimitives@AABBTreeBuildNode@Gu@physx@@QEAAPEAIPEAI@Z 000000018004fad0 f i GuAABBTreeBuild.obj
 0001:0004eae0       ?getPrimitives@AABBTreeBuildNode@Gu@physx@@QEBAPEBIPEBI@Z 000000018004fae0 f i GuAABBTreeBuild.obj
 0001:0004eaf0       ?growAndPushBack@?$Array@USlab@NodeAllocator@Gu@physx@@V?$ReflectionAllocator@USlab@NodeAllocator@Gu@physx@@@shdfnd@4@@shdfnd@physx@@IEAAAEAUSlab@NodeAllocator@Gu@3@AEBU4563@@Z 000000018004faf0 f i GuAABBTreeBuild.obj
 0001:0004ebb0       ?increaseCount@BuildStats@Gu@physx@@QEAAXI@Z 000000018004fbb0 f i GuAABBTreeBuild.obj
 0001:0004ebc0       ?isLeaf@AABBTreeBuildNode@Gu@physx@@QEBA_NXZ 000000018004fbc0 f i GuAABBTreeBuild.obj
 0001:0004ebd0       ?recreate@?$Array@USlab@NodeAllocator@Gu@physx@@V?$ReflectionAllocator@USlab@NodeAllocator@Gu@physx@@@shdfnd@4@@shdfnd@physx@@IEAAXI@Z 000000018004fbd0 f i GuAABBTreeBuild.obj
 0001:0004ec80       ?reset@AABBTreeBuildParams@Gu@physx@@QEAAXXZ 000000018004fc80 f i GuAABBTreeBuild.obj
 0001:0004ece0       ?reset@BuildStats@Gu@physx@@QEAAXXZ 000000018004fce0 f i GuAABBTreeBuild.obj
 0001:0004ecf0       ?resize@?$Array@USlab@NodeAllocator@Gu@physx@@V?$ReflectionAllocator@USlab@NodeAllocator@Gu@physx@@@shdfnd@4@@shdfnd@physx@@QEAAXIAEBUSlab@NodeAllocator@Gu@3@@Z 000000018004fcf0 f i GuAABBTreeBuild.obj
 0001:0004ed70       ?setCount@BuildStats@Gu@physx@@QEAAXI@Z 000000018004fd70 f i GuAABBTreeBuild.obj
 0001:0004ed80       ?setNbRunTimePrimitives@AABBTreeBuildNode@Gu@physx@@QEAAXI@Z 000000018004fd80 f i GuAABBTreeBuild.obj
 0001:0004eef0       ??0BVHStructure@Gu@physx@@QEAA@PEAVGuMeshFactory@2@@Z 000000018004fef0 f   GuBVHStructure.obj
 0001:0004ef50       ??0BVHStructure@Gu@physx@@QEAA@PEAVGuMeshFactory@2@AEAUBVHStructureData@12@@Z 000000018004ff50 f   GuBVHStructure.obj
 0001:0004efd0       ??1BVHStructure@Gu@physx@@UEAA@XZ 000000018004ffd0 f   GuBVHStructure.obj
 0001:0004eff0       ?load@BVHStructure@Gu@physx@@QEAA_NAEAVPxInputStream@3@@Z 000000018004fff0 f   GuBVHStructure.obj
 0001:0004f1b0       ?release@BVHStructure@Gu@physx@@UEAAXXZ 00000001800501b0 f   GuBVHStructure.obj
 0001:0004f1f0       ?raycast@BVHStructure@Gu@physx@@UEBAIAEBVPxVec3@3@0MIPEIAI@Z 00000001800501f0 f   GuBVHStructure.obj
 0001:0004f2c0       ?sweep@BVHStructure@Gu@physx@@UEBAIAEBVPxBounds3@3@AEBVPxVec3@3@MIPEIAI@Z 00000001800502c0 f   GuBVHStructure.obj
 0001:0004f430       ?overlap@BVHStructure@Gu@physx@@UEBAIAEBVPxBounds3@3@IPEIAI@Z 0000000180050430 f   GuBVHStructure.obj
 0001:0004f580       ?onRefCountZero@BVHStructure@Gu@physx@@UEAAXXZ 0000000180050580 f   GuBVHStructure.obj
 0001:0004f6b0       ?createVolumes@BVHStructure@Gu@physx@@AEBAXXZ 00000001800506b0 f   GuBVHStructure.obj
 0001:0004f740       ??1PxBVHStructure@physx@@MEAA@XZ 0000000180050740 f i GuBVHStructure.obj
 0001:0004f750       ??R?$AABBTreeOverlap@UAABBAABBTest@Gu@physx@@UBVHTree@23@UBVHNode@23@IUBVHCallback@23@@Gu@physx@@QEAA_NPEBIPEBVPxBounds3@2@AEBUBVHTree@12@AEBUAABBAABBTest@12@AEAUBVHCallback@12@@Z 0000000180050750 f i GuBVHStructure.obj
 0001:0004f9d0       ??R?$AABBTreeRaycast@$00UBVHTree@Gu@physx@@UBVHNode@23@IUBVHCallback@23@@Gu@physx@@QEAA_NPEBIPEBVPxBounds3@2@AEBUBVHTree@12@AEBVPxVec3@2@3AEAM3AEAUBVHCallback@12@@Z 00000001800509d0 f i GuBVHStructure.obj
 0001:00050060       ??R?$AABBTreeRaycast@$0A@UBVHTree@Gu@physx@@UBVHNode@23@IUBVHCallback@23@@Gu@physx@@QEAA_NPEBIPEBVPxBounds3@2@AEBUBVHTree@12@AEBVPxVec3@2@3AEAM3AEAUBVHCallback@12@@Z 0000000180051060 f i GuBVHStructure.obj
 0001:000506a4       ??_EBVHStructure@Gu@physx@@WBA@EAAPEAXI@Z 00000001800516a4 f i GuBVHStructure.obj
 0001:000506b0       ??_EBVHStructure@Gu@physx@@UEAAPEAXI@Z 00000001800516b0 f i GuBVHStructure.obj
 0001:000506b0       ??_GBVHStructure@Gu@physx@@UEAAPEAXI@Z 00000001800516b0 f i GuBVHStructure.obj
 0001:00050710       ??_GPxBVHStructure@physx@@MEAAPEAXI@Z 0000000180051710 f i GuBVHStructure.obj
 0001:00050710       ??_EPxBVHStructure@physx@@MEAAPEAXI@Z 0000000180051710 f i GuBVHStructure.obj
 0001:00050740       ?allocate@?$Array@PEBUBVHNode@Gu@physx@@V?$InlineAllocator@$0IAA@V?$ReflectionAllocator@PEBUBVHNode@Gu@physx@@@shdfnd@physx@@@shdfnd@3@@shdfnd@physx@@IEAAPEAPEBUBVHNode@Gu@3@I@Z 0000000180051740 f i GuBVHStructure.obj
 0001:00050800       ?getBounds@BVHStructure@Gu@physx@@UEBAPEBVPxBounds3@3@XZ 0000000180051800 f i GuBVHStructure.obj
 0001:00050810       ?getConcreteTypeName@PxBVHStructure@physx@@UEBAPEBDXZ 0000000180051810 f i GuBVHStructure.obj
 0001:00050820       ?getNbBounds@BVHStructure@Gu@physx@@UEBAIXZ 0000000180051820 f i GuBVHStructure.obj
 0001:00050830       ?isKindOf@PxBVHStructure@physx@@MEBA_NPEBD@Z 0000000180051830 f i GuBVHStructure.obj
 0001:00050880       ?recreate@?$Array@PEBUBVHNode@Gu@physx@@V?$InlineAllocator@$0IAA@V?$ReflectionAllocator@PEBUBVHNode@Gu@physx@@@shdfnd@physx@@@shdfnd@3@@shdfnd@physx@@IEAAXI@Z 0000000180051880 f i GuBVHStructure.obj
 0001:00050930       ?resizeUninitialized@?$Array@PEBUBVHNode@Gu@physx@@V?$InlineAllocator@$0IAA@V?$ReflectionAllocator@PEBUBVHNode@Gu@physx@@@shdfnd@physx@@@shdfnd@3@@shdfnd@physx@@QEAAXI@Z 0000000180051930 f i GuBVHStructure.obj
 0001:00050980       ?SweepEstimateAnyShapeHeightfield@Gu@physx@@YAMAEBUCCDShape@12@0AEBVPxTransform@2@111MM@Z 0000000180051980 f   GuCCDSweepConvexMesh.obj
 0001:000511f0       ?SweepEstimateAnyShapeMesh@Gu@physx@@YAMAEBUCCDShape@12@0AEBVPxTransform@2@111MM@Z 00000001800521f0 f   GuCCDSweepConvexMesh.obj
 0001:00051630       ?SweepAnyShapeHeightfield@Gu@physx@@YAMAEBUCCDShape@12@0AEBVPxTransform@2@111MAEAVPxVec3@2@2MAEAIM@Z 0000000180052630 f   GuCCDSweepConvexMesh.obj
 0001:00052750       ?SweepAnyShapeMesh@Gu@physx@@YAMAEBUCCDShape@12@0AEBVPxTransform@2@111MAEAVPxVec3@2@2MAEAIM@Z 0000000180053750 f   GuCCDSweepConvexMesh.obj
 0001:00054f10       ?growAndPushBack@?$Array@IV?$InlineAllocator@$0BAA@V?$ReflectionAllocator@I@shdfnd@physx@@@shdfnd@physx@@@shdfnd@physx@@IEAAAEAIAEBI@Z 0000000180055f10 f i GuCCDSweepConvexMesh.obj
 0001:00055030       ?recreate@?$Array@IV?$InlineAllocator@$0BAA@V?$ReflectionAllocator@I@shdfnd@physx@@@shdfnd@physx@@@shdfnd@physx@@IEAAXI@Z 0000000180056030 f i GuCCDSweepConvexMesh.obj
 0001:00055110       ?resize@?$Array@IV?$InlineAllocator@$0BAA@V?$ReflectionAllocator@I@shdfnd@physx@@@shdfnd@physx@@@shdfnd@physx@@QEAAXIAEBI@Z 0000000180056110 f i GuCCDSweepConvexMesh.obj
 0001:000551e0       ?resize@?$Array@IV?$ReflectionAllocator@I@shdfnd@physx@@@shdfnd@physx@@QEAAXIAEBI@Z 00000001800561e0 f i GuCCDSweepConvexMesh.obj
 0001:000552a0       ?transformBoxOrthonormal@physx@@YA?AVBox@Gu@1@AEBV231@AEBVPxTransform@1@@Z 00000001800562a0 f i GuCCDSweepConvexMesh.obj
 0001:00055730       ?SweepShapeShape@Gu@physx@@YAMAEBUCCDShape@12@0AEBVPxTransform@2@111MAEAVPxVec3@2@2MAEAIM@Z 0000000180056730 f   GuCCDSweepPrimitives.obj
 0001:00055760       ?UnimplementedSweep@Gu@physx@@YAMAEBUCCDShape@12@0AEBVPxTransform@2@111MAEAVPxVec3@2@2MAEAIM@Z 0000000180056760 f   GuCCDSweepPrimitives.obj
 0001:00055770       ?UnimplementedTriangleSweep@Gu@physx@@YAMAEBVGeometryUnion@12@0AEBVPxTransform@2@111MAEAVPxVec3@2@2AEBVFastVertex2ShapeScaling@Cm@2@AEAVTriangleV@12@M@Z 0000000180056770 f   GuCCDSweepPrimitives.obj
 0001:00055780       ?SweepShapeTriangle@Gu@physx@@YAMAEBVGeometryUnion@12@0AEBVPxTransform@2@111MAEAVPxVec3@2@2AEBVFastVertex2ShapeScaling@Cm@2@AEAVTriangleV@12@M@Z 0000000180056780 f   GuCCDSweepPrimitives.obj
 0001:000557a0       ??$SweepGeomGeom@VCapsuleV@Gu@physx@@V123@@Gu@physx@@YAMAEBUCCDShape@01@0AEBVPxTransform@1@111MAEAVPxVec3@1@2MAEAIM@Z 00000001800567a0 f i GuCCDSweepPrimitives.obj
 0001:000558d0       ??$SweepGeomGeom@VCapsuleV@Gu@physx@@VBoxV@23@@Gu@physx@@YAMAEBUCCDShape@01@0AEBVPxTransform@1@111MAEAVPxVec3@1@2MAEAIM@Z 00000001800568d0 f i GuCCDSweepPrimitives.obj
 0001:00055a30       ??$SweepGeomGeom@VCapsuleV@Gu@physx@@VConvexHullV@23@@Gu@physx@@YAMAEBUCCDShape@01@0AEBVPxTransform@1@111MAEAVPxVec3@1@2MAEAIM@Z 0000000180056a30 f i GuCCDSweepPrimitives.obj
 0001:00055f90       ??$SweepGeomGeom@VBoxV@Gu@physx@@V123@@Gu@physx@@YAMAEBUCCDShape@01@0AEBVPxTransform@1@111MAEAVPxVec3@1@2MAEAIM@Z 0000000180056f90 f i GuCCDSweepPrimitives.obj
 0001:00056120       ??$SweepGeomGeom@VBoxV@Gu@physx@@VConvexHullV@23@@Gu@physx@@YAMAEBUCCDShape@01@0AEBVPxTransform@1@111MAEAVPxVec3@1@2MAEAIM@Z 0000000180057120 f i GuCCDSweepPrimitives.obj
 0001:000566a0       ??$SweepGeomGeom@VConvexHullV@Gu@physx@@V123@@Gu@physx@@YAMAEBUCCDShape@01@0AEBVPxTransform@1@111MAEAVPxVec3@1@2MAEAIM@Z 00000001800576a0 f i GuCCDSweepPrimitives.obj
 0001:00056fc0       ??$SweepGeomTriangles@VCapsuleV@Gu@physx@@@Gu@physx@@YAMAEBVGeometryUnion@01@0AEBVPxTransform@1@111MAEAVPxVec3@1@2AEBVFastVertex2ShapeScaling@Cm@1@AEAVTriangleV@01@M@Z 0000000180057fc0 f i GuCCDSweepPrimitives.obj
 0001:00057090       ??$SweepGeomTriangles@VBoxV@Gu@physx@@@Gu@physx@@YAMAEBVGeometryUnion@01@0AEBVPxTransform@1@111MAEAVPxVec3@1@2AEBVFastVertex2ShapeScaling@Cm@1@AEAVTriangleV@01@M@Z 0000000180058090 f i GuCCDSweepPrimitives.obj
 0001:00057190       ??$SweepGeomTriangles@VConvexHullV@Gu@physx@@@Gu@physx@@YAMAEBVGeometryUnion@01@0AEBVPxTransform@1@111MAEAVPxVec3@1@2AEBVFastVertex2ShapeScaling@Cm@1@AEAVTriangleV@01@M@Z 0000000180058190 f i GuCCDSweepPrimitives.obj
 0001:000576a0       ?supportPoint@?$RelativeConvex@VCapsuleV@Gu@physx@@@Gu@physx@@UEBA?AT__m128@@H@Z 00000001800586a0 f i GuCCDSweepPrimitives.obj
 0001:00057700       ?support@?$RelativeConvex@VCapsuleV@Gu@physx@@@Gu@physx@@UEBA?AT__m128@@AEBT4@@Z 0000000180058700 f i GuCCDSweepPrimitives.obj
 0001:000577b0       ?support@?$RelativeConvex@VCapsuleV@Gu@physx@@@Gu@physx@@UEBA?AT__m128@@AEBT4@AEAH@Z 00000001800587b0 f i GuCCDSweepPrimitives.obj
 0001:00057870       ?getCenter@?$RelativeConvex@VCapsuleV@Gu@physx@@@Gu@physx@@UEBA?AT__m128@@XZ 0000000180058870 f i GuCCDSweepPrimitives.obj
 0001:000578b0       ?getSweepMargin@?$RelativeConvex@VCapsuleV@Gu@physx@@@Gu@physx@@UEBA?AT__m128@@XZ 00000001800588b0 f i GuCCDSweepPrimitives.obj
 0001:000578c0       ??_E?$RelativeConvex@VCapsuleV@Gu@physx@@@Gu@physx@@UEAAPEAXI@Z 00000001800588c0 f i GuCCDSweepPrimitives.obj
 0001:000578c0       ??_G?$RelativeConvex@VCapsuleV@Gu@physx@@@Gu@physx@@UEAAPEAXI@Z 00000001800588c0 f i GuCCDSweepPrimitives.obj
 0001:000578f0       ?supportPoint@?$RelativeConvex@VTriangleV@Gu@physx@@@Gu@physx@@UEBA?AT__m128@@H@Z 00000001800588f0 f i GuCCDSweepPrimitives.obj
 0001:00057940       ?support@?$RelativeConvex@VTriangleV@Gu@physx@@@Gu@physx@@UEBA?AT__m128@@AEBT4@@Z 0000000180058940 f i GuCCDSweepPrimitives.obj
 0001:00057a40       ?support@?$RelativeConvex@VTriangleV@Gu@physx@@@Gu@physx@@UEBA?AT__m128@@AEBT4@AEAH@Z 0000000180058a40 f i GuCCDSweepPrimitives.obj
 0001:00057b80       ?getCenter@?$RelativeConvex@VTriangleV@Gu@physx@@@Gu@physx@@UEBA?AT__m128@@XZ 0000000180058b80 f i GuCCDSweepPrimitives.obj
 0001:00057bc0       ?getSweepMargin@?$RelativeConvex@VTriangleV@Gu@physx@@@Gu@physx@@UEBA?AT__m128@@XZ 0000000180058bc0 f i GuCCDSweepPrimitives.obj
 0001:00057bd0       ??_G?$RelativeConvex@VTriangleV@Gu@physx@@@Gu@physx@@UEAAPEAXI@Z 0000000180058bd0 f i GuCCDSweepPrimitives.obj
 0001:00057bd0       ??_E?$RelativeConvex@VTriangleV@Gu@physx@@@Gu@physx@@UEAAPEAXI@Z 0000000180058bd0 f i GuCCDSweepPrimitives.obj
 0001:0005b9e0       ??$gjkPenetration@U?$RelativeConvex@VCapsuleV@Gu@physx@@@Gu@physx@@U?$LocalConvex@VBoxV@Gu@physx@@@23@@Gu@physx@@YA?AW4GjkStatus@01@AEBU?$RelativeConvex@VCapsuleV@Gu@physx@@@01@AEBU?$LocalConvex@VBoxV@Gu@physx@@@01@AEBT__m128@@2_NPEIAE4AEAEAEAUGjkOutput@01@@Z 000000018005c9e0 f i GuCCDSweepPrimitives.obj
 0001:0005cf70       ??$gjkPenetration@U?$RelativeConvex@VCapsuleV@Gu@physx@@@Gu@physx@@U?$LocalConvex@VCapsuleV@Gu@physx@@@23@@Gu@physx@@YA?AW4GjkStatus@01@AEBU?$RelativeConvex@VCapsuleV@Gu@physx@@@01@AEBU?$LocalConvex@VCapsuleV@Gu@physx@@@01@AEBT__m128@@2_NPEIAE4AEAEAEAUGjkOutput@01@@Z 000000018005df70 f i GuCCDSweepPrimitives.obj
 0001:0005e500       ??$gjkPenetration@U?$RelativeConvex@VCapsuleV@Gu@physx@@@Gu@physx@@U?$LocalConvex@VConvexHullV@Gu@physx@@@23@@Gu@physx@@YA?AW4GjkStatus@01@AEBU?$RelativeConvex@VCapsuleV@Gu@physx@@@01@AEBU?$LocalConvex@VConvexHullV@Gu@physx@@@01@AEBT__m128@@2_NPEIAE4AEAEAEAUGjkOutput@01@@Z 000000018005f500 f i GuCCDSweepPrimitives.obj
 0001:0005fb10       ??$gjkPenetration@U?$RelativeConvex@VTriangleV@Gu@physx@@@Gu@physx@@U?$LocalConvex@VBoxV@Gu@physx@@@23@@Gu@physx@@YA?AW4GjkStatus@01@AEBU?$RelativeConvex@VTriangleV@Gu@physx@@@01@AEBU?$LocalConvex@VBoxV@Gu@physx@@@01@AEBT__m128@@2_NPEIAE4AEAEAEAUGjkOutput@01@@Z 0000000180060b10 f i GuCCDSweepPrimitives.obj
 0001:000610a0       ??$gjkPenetration@U?$RelativeConvex@VTriangleV@Gu@physx@@@Gu@physx@@U?$LocalConvex@VCapsuleV@Gu@physx@@@23@@Gu@physx@@YA?AW4GjkStatus@01@AEBU?$RelativeConvex@VTriangleV@Gu@physx@@@01@AEBU?$LocalConvex@VCapsuleV@Gu@physx@@@01@AEBT__m128@@2_NPEIAE4AEAEAEAUGjkOutput@01@@Z 00000001800620a0 f i GuCCDSweepPrimitives.obj
 0001:00062650       ??$gjkPenetration@U?$RelativeConvex@VTriangleV@Gu@physx@@@Gu@physx@@U?$LocalConvex@VConvexHullV@Gu@physx@@@23@@Gu@physx@@YA?AW4GjkStatus@01@AEBU?$RelativeConvex@VTriangleV@Gu@physx@@@01@AEBU?$LocalConvex@VConvexHullV@Gu@physx@@@01@AEBT__m128@@2_NPEIAE4AEAEAEAUGjkOutput@01@@Z 0000000180063650 f i GuCCDSweepPrimitives.obj
 0001:00063c80       ??$gjkRaycast@U?$RelativeConvex@VCapsuleV@Gu@physx@@@Gu@physx@@U?$LocalConvex@VBoxV@Gu@physx@@@23@@Gu@physx@@YA_NAEBU?$RelativeConvex@VCapsuleV@Gu@physx@@@01@AEBU?$LocalConvex@VBoxV@Gu@physx@@@01@AEBT__m128@@222AEAT4@33M@Z 0000000180064c80 f i GuCCDSweepPrimitives.obj
 0001:00064910       ??$gjkRaycast@U?$RelativeConvex@VCapsuleV@Gu@physx@@@Gu@physx@@U?$LocalConvex@VCapsuleV@Gu@physx@@@23@@Gu@physx@@YA_NAEBU?$RelativeConvex@VCapsuleV@Gu@physx@@@01@AEBU?$LocalConvex@VCapsuleV@Gu@physx@@@01@AEBT__m128@@222AEAT4@33M@Z 0000000180065910 f i GuCCDSweepPrimitives.obj
 0001:000655e0       ??$gjkRaycast@U?$RelativeConvex@VCapsuleV@Gu@physx@@@Gu@physx@@U?$LocalConvex@VConvexHullV@Gu@physx@@@23@@Gu@physx@@YA_NAEBU?$RelativeConvex@VCapsuleV@Gu@physx@@@01@AEBU?$LocalConvex@VConvexHullV@Gu@physx@@@01@AEBT__m128@@222AEAT4@33M@Z 00000001800665e0 f i GuCCDSweepPrimitives.obj
 0001:000663d0       ??$gjkRaycast@U?$RelativeConvex@VTriangleV@Gu@physx@@@Gu@physx@@U?$LocalConvex@VBoxV@Gu@physx@@@23@@Gu@physx@@YA_NAEBU?$RelativeConvex@VTriangleV@Gu@physx@@@01@AEBU?$LocalConvex@VBoxV@Gu@physx@@@01@AEBT__m128@@222AEAT4@33M@Z 00000001800673d0 f i GuCCDSweepPrimitives.obj
 0001:000670e0       ??$gjkRaycast@U?$RelativeConvex@VTriangleV@Gu@physx@@@Gu@physx@@U?$LocalConvex@VCapsuleV@Gu@physx@@@23@@Gu@physx@@YA_NAEBU?$RelativeConvex@VTriangleV@Gu@physx@@@01@AEBU?$LocalConvex@VCapsuleV@Gu@physx@@@01@AEBT__m128@@222AEAT4@33M@Z 00000001800680e0 f i GuCCDSweepPrimitives.obj
 0001:00067e40       ??$gjkRaycast@U?$RelativeConvex@VTriangleV@Gu@physx@@@Gu@physx@@U?$LocalConvex@VConvexHullV@Gu@physx@@@23@@Gu@physx@@YA_NAEBU?$RelativeConvex@VTriangleV@Gu@physx@@@01@AEBU?$LocalConvex@VConvexHullV@Gu@physx@@@01@AEBT__m128@@222AEAT4@33M@Z 0000000180068e40 f i GuCCDSweepPrimitives.obj
 0001:00068ce0       ??$gjkRaycastPenetration@U?$RelativeConvex@VCapsuleV@Gu@physx@@@Gu@physx@@U?$LocalConvex@VBoxV@Gu@physx@@@23@@Gu@physx@@YA_NAEBU?$RelativeConvex@VCapsuleV@Gu@physx@@@01@AEBU?$LocalConvex@VBoxV@Gu@physx@@@01@AEBT__m128@@222AEAT4@33M_N@Z 0000000180069ce0 f i GuCCDSweepPrimitives.obj
 0001:00068f60       ??$gjkRaycastPenetration@U?$RelativeConvex@VCapsuleV@Gu@physx@@@Gu@physx@@U?$LocalConvex@VCapsuleV@Gu@physx@@@23@@Gu@physx@@YA_NAEBU?$RelativeConvex@VCapsuleV@Gu@physx@@@01@AEBU?$LocalConvex@VCapsuleV@Gu@physx@@@01@AEBT__m128@@222AEAT4@33M_N@Z 0000000180069f60 f i GuCCDSweepPrimitives.obj
 0001:000691e0       ??$gjkRaycastPenetration@U?$RelativeConvex@VCapsuleV@Gu@physx@@@Gu@physx@@U?$LocalConvex@VConvexHullV@Gu@physx@@@23@@Gu@physx@@YA_NAEBU?$RelativeConvex@VCapsuleV@Gu@physx@@@01@AEBU?$LocalConvex@VConvexHullV@Gu@physx@@@01@AEBT__m128@@222AEAT4@33M_N@Z 000000018006a1e0 f i GuCCDSweepPrimitives.obj
 0001:00069460       ??$gjkRaycastPenetration@U?$RelativeConvex@VTriangleV@Gu@physx@@@Gu@physx@@U?$LocalConvex@VBoxV@Gu@physx@@@23@@Gu@physx@@YA_NAEBU?$RelativeConvex@VTriangleV@Gu@physx@@@01@AEBU?$LocalConvex@VBoxV@Gu@physx@@@01@AEBT__m128@@222AEAT4@33M_N@Z 000000018006a460 f i GuCCDSweepPrimitives.obj
 0001:000696e0       ??$gjkRaycastPenetration@U?$RelativeConvex@VTriangleV@Gu@physx@@@Gu@physx@@U?$LocalConvex@VCapsuleV@Gu@physx@@@23@@Gu@physx@@YA_NAEBU?$RelativeConvex@VTriangleV@Gu@physx@@@01@AEBU?$LocalConvex@VCapsuleV@Gu@physx@@@01@AEBT__m128@@222AEAT4@33M_N@Z 000000018006a6e0 f i GuCCDSweepPrimitives.obj
 0001:00069960       ??$gjkRaycastPenetration@U?$RelativeConvex@VTriangleV@Gu@physx@@@Gu@physx@@U?$LocalConvex@VConvexHullV@Gu@physx@@@23@@Gu@physx@@YA_NAEBU?$RelativeConvex@VTriangleV@Gu@physx@@@01@AEBU?$LocalConvex@VConvexHullV@Gu@physx@@@01@AEBT__m128@@222AEAT4@33M_N@Z 000000018006a960 f i GuCCDSweepPrimitives.obj
 0001:00069be0       ?barycentricCoordinates@Gu@physx@@YAXAEBT__m128@@00AEAT3@@Z 000000018006abe0 f   GuBarycentricCoordinates.obj
 0001:00069c50       ?barycentricCoordinates@Gu@physx@@YAXAEBT__m128@@000AEAT3@1@Z 000000018006ac50 f   GuBarycentricCoordinates.obj
 0001:00069da0       ?barycentricCoordinates@Gu@physx@@YAXAEBT__m128@@00AEAT3@1@Z 000000018006ada0 f   GuBarycentricCoordinates.obj
 0001:00069e90       ?addAxis@SeparatingAxes@Gu@physx@@QEAA_NAEBVPxVec3@3@@Z 000000018006ae90 f   GuSeparatingAxes.obj
 0001:00069f50       ?contactBoxBox@Gu@physx@@YA_NAEBVGeometryUnion@12@0AEBVPxTransform@2@1AEBUNarrowPhaseParams@12@AEAUCache@12@AEAVContactBuffer@12@PEAVRenderOutput@Cm@2@@Z 000000018006af50 f   GuContactBoxBox.obj
 0001:0006a240       ??0VertexInfo@@QEAA@XZ     000000018006b240 f i GuContactBoxBox.obj
 0001:0006cc20       ?contactCapsuleBox@Gu@physx@@YA_NAEBVGeometryUnion@12@0AEBVPxTransform@2@1AEBUNarrowPhaseParams@12@AEAUCache@12@AEAVContactBuffer@12@PEAVRenderOutput@Cm@2@@Z 000000018006dc20 f   GuContactCapsuleBox.obj
 0001:0006e9e0       ?contactCapsuleCapsule@Gu@physx@@YA_NAEBVGeometryUnion@12@0AEBVPxTransform@2@1AEBUNarrowPhaseParams@12@AEAUCache@12@AEAVContactBuffer@12@PEAVRenderOutput@Cm@2@@Z 000000018006f9e0 f   GuContactCapsuleCapsule.obj
 0001:0006f3a0       ??0Segment@Gu@physx@@QEAA@XZ 00000001800703a0 f i GuContactCapsuleCapsule.obj
 0001:0006f3b0       ??1Segment@Gu@physx@@QEAA@XZ 00000001800703b0 f i GuContactCapsuleCapsule.obj
 0001:0006f3c0       ?contactCapsuleConvex@Gu@physx@@YA_NAEBVGeometryUnion@12@0AEBVPxTransform@2@1AEBUNarrowPhaseParams@12@AEAUCache@12@AEAVContactBuffer@12@PEAVRenderOutput@Cm@2@@Z 00000001800703c0 f   GuContactCapsuleConvex.obj
 0001:00070260       ??0ConvexEdge@Gu@physx@@QEAA@XZ 0000000180071260 f i GuContactCapsuleConvex.obj
 0001:000721d0       ?contactCapsuleMesh@Gu@physx@@YA_NAEBVGeometryUnion@12@0AEBVPxTransform@2@1AEBUNarrowPhaseParams@12@AEAUCache@12@AEAVContactBuffer@12@PEAVRenderOutput@Cm@2@@Z 00000001800731d0 f   GuContactCapsuleMesh.obj
 0001:00072710       ?contactCapsuleHeightfield@Gu@physx@@YA_NAEBVGeometryUnion@12@0AEBVPxTransform@2@1AEBUNarrowPhaseParams@12@AEAUCache@12@AEAVContactBuffer@12@PEAVRenderOutput@Cm@2@@Z 0000000180073710 f   GuContactCapsuleMesh.obj
 0001:00074fa0       ?transformFast@PxBounds3@physx@@SA?AV12@AEBVPxTransform@2@AEBV12@@Z 0000000180075fa0 f i GuContactCapsuleMesh.obj
 0001:00075380       ?transformQueryBounds@FastVertex2ShapeScaling@Cm@physx@@QEBAXAEAVPxVec3@3@0AEAVPxMat33@3@@Z 0000000180076380 f i GuContactCapsuleMesh.obj
 0001:000755c0       ?contactBoxConvex@Gu@physx@@YA_NAEBVGeometryUnion@12@0AEBVPxTransform@2@1AEBUNarrowPhaseParams@12@AEAUCache@12@AEAVContactBuffer@12@PEAVRenderOutput@Cm@2@@Z 00000001800765c0 f   GuContactConvexConvex.obj
 0001:00075760       ?contactConvexConvex@Gu@physx@@YA_NAEBVGeometryUnion@12@0AEBVPxTransform@2@1AEBUNarrowPhaseParams@12@AEAUCache@12@AEAVContactBuffer@12@PEAVRenderOutput@Cm@2@@Z 0000000180076760 f   GuContactConvexConvex.obj
 0001:00079cb0       ?transformPlaneToShapeSpace@FastVertex2ShapeScaling@Cm@physx@@QEBAXAEBVPxVec3@3@MAEAV43@AEAM@Z 000000018007acb0 f i GuContactConvexConvex.obj
 0001:00079da0       ?contactBoxMesh@Gu@physx@@YA_NAEBVGeometryUnion@12@0AEBVPxTransform@2@1AEBUNarrowPhaseParams@12@AEAUCache@12@AEAVContactBuffer@12@PEAVRenderOutput@Cm@2@@Z 000000018007ada0 f   GuContactConvexMesh.obj
 0001:00079f60       ?contactConvexMesh@Gu@physx@@YA_NAEBVGeometryUnion@12@0AEBVPxTransform@2@1AEBUNarrowPhaseParams@12@AEAUCache@12@AEAVContactBuffer@12@PEAVRenderOutput@Cm@2@@Z 000000018007af60 f   GuContactConvexMesh.obj
 0001:0007a110       ?contactBoxHeightfield@Gu@physx@@YA_NAEBVGeometryUnion@12@0AEBVPxTransform@2@1AEBUNarrowPhaseParams@12@AEAUCache@12@AEAVContactBuffer@12@PEAVRenderOutput@Cm@2@@Z 000000018007b110 f   GuContactConvexMesh.obj
 0001:0007a270       ?contactConvexHeightfield@Gu@physx@@YA_NAEBVGeometryUnion@12@0AEBVPxTransform@2@1AEBUNarrowPhaseParams@12@AEAUCache@12@AEAVContactBuffer@12@PEAVRenderOutput@Cm@2@@Z 000000018007b270 f   GuContactConvexMesh.obj
 0001:0007a810       ??0?$CacheMap@UCachedEdge@Gu@physx@@$0IA@@Gu@physx@@QEAA@XZ 000000018007b810 f i GuContactConvexMesh.obj
 0001:0007a8d0       ??0?$CacheMap@UCachedVertex@Gu@physx@@$0IA@@Gu@physx@@QEAA@XZ 000000018007b8d0 f i GuContactConvexMesh.obj
 0001:0007a990       ??0CachedEdge@Gu@physx@@QEAA@XZ 000000018007b990 f i GuContactConvexMesh.obj
 0001:0007a9a0       ??0CachedVertex@Gu@physx@@QEAA@XZ 000000018007b9a0 f i GuContactConvexMesh.obj
 0001:0007aec0       ??_EConvexMeshContactGenerationCallback@@UEAAPEAXI@Z 000000018007bec0 f i GuContactConvexMesh.obj
 0001:0007aec0       ??_GConvexMeshContactGenerationCallback@@UEAAPEAXI@Z 000000018007bec0 f i GuContactConvexMesh.obj
 0001:0007aef0       ?addData@?$CacheMap@UCachedEdge@Gu@physx@@$0IA@@Gu@physx@@QEAA_NAEBUCachedEdge@23@@Z 000000018007bef0 f i GuContactConvexMesh.obj
 0001:0007afd0       ?addData@?$CacheMap@UCachedVertex@Gu@physx@@$0IA@@Gu@physx@@QEAA_NAEBUCachedVertex@23@@Z 000000018007bfd0 f i GuContactConvexMesh.obj
 0001:0007e500       ?processHit@ConvexMeshContactGenerationCallback@@UEAA_NAEBUPxRaycastHit@physx@@AEBVPxVec3@3@11AEAMPEBI@Z 000000018007f500 f i GuContactConvexMesh.obj
 0001:0007edd0       ?recreate@?$Array@IV?$InlineAllocator@$0BBAA@V?$ReflectionAllocator@I@shdfnd@physx@@@shdfnd@physx@@@shdfnd@physx@@IEAAXI@Z 000000018007fdd0 f i GuContactConvexMesh.obj
 0001:0007fe00       ?contactPlaneBox@Gu@physx@@YA_NAEBVGeometryUnion@12@0AEBVPxTransform@2@1AEBUNarrowPhaseParams@12@AEAUCache@12@AEAVContactBuffer@12@PEAVRenderOutput@Cm@2@@Z 0000000180080e00 f   GuContactPlaneBox.obj
 0001:00080a00       ?contactPlaneCapsule@Gu@physx@@YA_NAEBVGeometryUnion@12@0AEBVPxTransform@2@1AEBUNarrowPhaseParams@12@AEAUCache@12@AEAVContactBuffer@12@PEAVRenderOutput@Cm@2@@Z 0000000180081a00 f   GuContactPlaneCapsule.obj
 0001:00081010       ?contactPlaneConvex@Gu@physx@@YA_NAEBVGeometryUnion@12@0AEBVPxTransform@2@1AEBUNarrowPhaseParams@12@AEAUCache@12@AEAVContactBuffer@12@PEAVRenderOutput@Cm@2@@Z 0000000180082010 f   GuContactPlaneConvex.obj
 0001:00081940       ?findRotationMatrixFromZ@Gu@physx@@YA?AVPxMat33@2@AEBVPxVec3@2@@Z 0000000180082940 f   GuContactPolygonPolygon.obj
 0001:00081b80       ?contactPolygonPolygonExt@Gu@physx@@YA_NIPEBVPxVec3@2@PEBEAEBVMatrix34@Cm@2@AEBVPxPlane@2@AEBVPxMat33@2@I01234AEBV32@22IIAEAVContactBuffer@12@_N5M@Z 0000000180082b80 f   GuContactPolygonPolygon.obj
 0001:00084f90       ?contactSphereBox@Gu@physx@@YA_NAEBVGeometryUnion@12@0AEBVPxTransform@2@1AEBUNarrowPhaseParams@12@AEAUCache@12@AEAVContactBuffer@12@PEAVRenderOutput@Cm@2@@Z 0000000180085f90 f   GuContactSphereBox.obj
 0001:00085570       ?contactSphereCapsule@Gu@physx@@YA_NAEBVGeometryUnion@12@0AEBVPxTransform@2@1AEBUNarrowPhaseParams@12@AEAUCache@12@AEAVContactBuffer@12@PEAVRenderOutput@Cm@2@@Z 0000000180086570 f   GuContactSphereCapsule.obj
 0001:00085910       ?contactSphereMesh@Gu@physx@@YA_NAEBVGeometryUnion@12@0AEBVPxTransform@2@1AEBUNarrowPhaseParams@12@AEAUCache@12@AEAVContactBuffer@12@PEAVRenderOutput@Cm@2@@Z 0000000180086910 f   GuContactSphereMesh.obj
 0001:00086a60       ?contactSphereHeightfield@Gu@physx@@YA_NAEBVGeometryUnion@12@0AEBVPxTransform@2@1AEBUNarrowPhaseParams@12@AEAUCache@12@AEAVContactBuffer@12@PEAVRenderOutput@Cm@2@@Z 0000000180087a60 f   GuContactSphereMesh.obj
 0001:00087d20       ??0TriangleData@@QEAA@XZ   0000000180088d20 f i GuContactSphereMesh.obj
 0001:00089060       ?contactSpherePlane@Gu@physx@@YA_NAEBVGeometryUnion@12@0AEBVPxTransform@2@1AEBUNarrowPhaseParams@12@AEAUCache@12@AEAVContactBuffer@12@PEAVRenderOutput@Cm@2@@Z 000000018008a060 f   GuContactSpherePlane.obj
 0001:00089260       ?contactSphereSphere@Gu@physx@@YA_NAEBVGeometryUnion@12@0AEBVPxTransform@2@1AEBUNarrowPhaseParams@12@AEAUCache@12@AEAVContactBuffer@12@PEAVRenderOutput@Cm@2@@Z 000000018008a260 f   GuContactSphereSphere.obj
 0001:000893d0       ?selectNormal@Gu@physx@@YA_NEMM@Z 000000018008a3d0 f   GuFeatureCode.obj
 0001:00089450       ??0BigConvexData@physx@@QEAA@XZ 000000018008a450 f   GuBigConvexData.obj
 0001:00089480       ??1BigConvexData@physx@@QEAA@XZ 000000018008a480 f   GuBigConvexData.obj
 0001:00089510       ?Load@BigConvexData@physx@@QEAA_NAEAVPxInputStream@2@@Z 000000018008a510 f   GuBigConvexData.obj
 0001:00089630       ?ComputeOffset@BigConvexData@physx@@QEBAIAEBVPxVec3@2@@Z 000000018008a630 f   GuBigConvexData.obj
 0001:00089730       ?ComputeNearestOffset@BigConvexData@physx@@QEBAIAEBVPxVec3@2@@Z 000000018008a730 f   GuBigConvexData.obj
 0001:00089840       ?exportExtraData@BigConvexData@physx@@QEAAXAEAVPxSerializationContext@2@@Z 000000018008a840 f   GuBigConvexData.obj
 0001:000898c0       ?importExtraData@BigConvexData@physx@@QEAAXAEAVPxDeserializationContext@2@@Z 000000018008a8c0 f   GuBigConvexData.obj
 0001:00089940       ?CreateOffsets@BigConvexData@physx@@IEAAXXZ 000000018008a940 f   GuBigConvexData.obj
 0001:00089990       ?VLoad@BigConvexData@physx@@IEAA_NAEAVPxInputStream@2@@Z 000000018008a990 f   GuBigConvexData.obj
 0001:00089b30       ?getScaledConvex@Gu@physx@@YAXAEAPEAVPxVec3@2@AEAPEAEPEAV32@PEAE_NPEBV32@PEBEIAEBVFastVertex2ShapeScaling@Cm@2@@Z 000000018008ab30 f   GuConvexHelper.obj
 0001:00089c70       ?getConvexData@Gu@physx@@YA_NAEBVGeometryUnion@12@AEAVFastVertex2ShapeScaling@Cm@2@AEAVPxBounds3@2@AEAUPolygonalData@12@@Z 000000018008ac70 f   GuConvexHelper.obj
 0001:00089ef0       ?findUniqueConvexEdges@Gu@physx@@YAIIPEIAUConvexEdge@12@IPEIBUHullPolygonData@12@PEIBE@Z 000000018008aef0 f   GuConvexHelper.obj
 0001:0008a030       ?exportExtraData@ConvexMesh@Gu@physx@@UEAAXAEAVPxSerializationContext@3@@Z 000000018008b030 f   GuConvexMesh.obj
 0001:0008a100       ?importExtraData@ConvexMesh@Gu@physx@@QEAAXAEAVPxDeserializationContext@3@@Z 000000018008b100 f   GuConvexMesh.obj
 0001:0008a1c0       ?onRefCountZero@ConvexMesh@Gu@physx@@UEAAXXZ 000000018008b1c0 f   GuConvexMesh.obj
 0001:0008a2b0       ?createObject@ConvexMesh@Gu@physx@@SAPEAV123@AEAPEAEAEAVPxDeserializationContext@3@@Z 000000018008b2b0 f   GuConvexMesh.obj
 0001:0008a330       ??0ConvexMesh@Gu@physx@@QEAA@XZ 000000018008b330 f   GuConvexMesh.obj
 0001:0008a3e0       ??0ConvexMesh@Gu@physx@@QEAA@AEAVGuMeshFactory@2@AEAUConvexHullData@12@@Z 000000018008b3e0 f   GuConvexMesh.obj
 0001:0008a4e0       ?load@ConvexMesh@Gu@physx@@QEAA_NAEAVPxInputStream@3@@Z 000000018008b4e0 f   GuConvexMesh.obj
 0001:0008a790       ?release@ConvexMesh@Gu@physx@@UEAAXXZ 000000018008b790 f   GuConvexMesh.obj
 0001:0008a7d0       ?getPolygonData@ConvexMesh@Gu@physx@@UEBA_NIAEAUPxHullPolygon@3@@Z 000000018008b7d0 f   GuConvexMesh.obj
 0001:0008a820       ?isGpuCompatible@ConvexMesh@Gu@physx@@UEBA_NXZ 000000018008b820 f   GuConvexMesh.obj
 0001:0008a850       ?getReferenceCount@ConvexMesh@Gu@physx@@UEBAIXZ 000000018008b850 f   GuConvexMesh.obj
 0001:0008a860       ?acquireReference@ConvexMesh@Gu@physx@@UEAAXXZ 000000018008b860 f   GuConvexMesh.obj
 0001:0008a870       ?getMassInformation@ConvexMesh@Gu@physx@@UEBAXAEAMAEAVPxMat33@3@AEAVPxVec3@3@@Z 000000018008b870 f   GuConvexMesh.obj
 0001:0008a8f0       ?getLocalBounds@ConvexMesh@Gu@physx@@UEBA?AVPxBounds3@3@XZ 000000018008b8f0 f   GuConvexMesh.obj
 0001:0008a980       ??1ConvexMesh@Gu@physx@@UEAA@XZ 000000018008b980 f   GuConvexMesh.obj
 0001:0008aed0       ?computeHullOBB@Gu@physx@@YAXAEAVBox@12@AEBVPxBounds3@2@MAEBVMatrix34@Cm@2@2AEBVFastVertex2ShapeScaling@62@_N@Z 000000018008bed0 f   GuConvexUtilsInternal.obj
 0001:0008b390       ?computeVertexSpaceOBB@Gu@physx@@YAXAEAVBox@12@AEBV312@AEBVPxTransform@2@AEBVPxMeshScale@2@@Z 000000018008c390 f   GuConvexUtilsInternal.obj
 0001:0008b750       ?computeOBBAroundConvex@Gu@physx@@YAXAEAVBox@12@AEBVPxConvexMeshGeometry@2@PEBVPxConvexMesh@2@AEBVPxTransform@2@@Z 000000018008c750 f   GuConvexUtilsInternal.obj
 0001:0008c060       ??Dphysx@@YA?AVMatrix34@Cm@0@AEBVPxMeshScale@0@AEBV120@@Z 000000018008d060 f i GuConvexUtilsInternal.obj
 0001:0008c630       ?transform@physx@@YA?AVBox@Gu@1@AEBVMatrix34@Cm@1@AEBV231@@Z 000000018008d630 f i GuConvexUtilsInternal.obj
 0001:0008c880       ?localSearch@physx@@YAXAEAIAEBVPxVec3@1@PEBV21@PEBUBigConvexRawData@Gu@1@@Z 000000018008d880 f   GuHillClimbing.obj
 0001:0008c9b0       ??0PolygonalBox@Gu@physx@@QEAA@AEBVPxVec3@2@@Z 000000018008d9b0 f   GuShapeConvex.obj
 0001:0008cb80       ?getPolygonalData@PolygonalBox@Gu@physx@@QEBAXPEIAUPolygonalData@23@@Z 000000018008db80 f   GuShapeConvex.obj
 0001:0008cbf0       ?getPolygonalData_Convex@Gu@physx@@YAXPEIAUPolygonalData@12@PEIBUConvexHullData@12@AEBVFastVertex2ShapeScaling@Cm@2@@Z 000000018008dbf0 f   GuShapeConvex.obj
 0001:0008e080       ??0HullPolygonData@Gu@physx@@QEAA@XZ 000000018008f080 f i GuShapeConvex.obj
 0001:0008e090       ?distancePointBoxSquared@Gu@physx@@YAMAEBVPxVec3@2@00AEBVPxMat33@2@PEAV32@@Z 000000018008f090 f   GuDistancePointBox.obj
 0001:0008e1e0       ?closestPtPointTriangle@Gu@physx@@YA?AVPxVec3@2@AEBV32@000AEAM1@Z 000000018008f1e0 f   GuDistancePointTriangle.obj
 0001:0008e700       ?distancePointTriangleSquared@Gu@physx@@YA?AT__m128@@AEBT3@000AEAT3@11@Z 000000018008f700 f   GuDistancePointTriangle.obj
 0001:0008eb00       ?distanceSegmentBoxSquared@Gu@physx@@YAMAEBVPxVec3@2@000AEBVPxMat33@2@PEAMPEAV32@@Z 000000018008fb00 f   GuDistanceSegmentBox.obj
 0001:0008fcd0       ?distanceSegmentSegmentSquared@Gu@physx@@YAMAEBVPxVec3@2@0M00MPEAM1@Z 0000000180090cd0 f   GuDistanceSegmentSegment.obj
 0001:00090420       ?distanceSegmentSegmentSquared@Gu@physx@@YAMAEBVPxVec3@2@000PEAM1@Z 0000000180091420 f   GuDistanceSegmentSegment.obj
 0001:000906c0       ?distanceSegmentSegmentSquared@Gu@physx@@YA?AT__m128@@AEBT3@000AEAT3@1@Z 00000001800916c0 f   GuDistanceSegmentSegment.obj
 0001:00090890       ?distanceSegmentSegmentSquared4@Gu@physx@@YA?AT__m128@@AEBT3@000000000AEAT3@1@Z 0000000180091890 f   GuDistanceSegmentSegment.obj
 0001:00090bb0       ?distanceSegmentTriangleSquared@Gu@physx@@YAMAEBVPxVec3@2@0000PEAM11@Z 0000000180091bb0 f   GuDistanceSegmentTriangle.obj
 0001:00092240       ?distanceSegmentTriangleSquared@Gu@physx@@YA?AT__m128@@AEBT3@0000AEAT3@1@Z 0000000180093240 f   GuDistanceSegmentTriangle.obj
 0001:00092980       ?epaPenetration@Gu@physx@@YA?AW4GjkStatus@12@AEBUGjkConvex@12@0PEIBE1E_NT__m128@@AEAUGjkOutput@12@@Z 0000000180093980 f   GuEPA.obj
 0001:00092af0       ?isValid2@Facet@Gu@physx@@QEAA?AT__m128@@IIIPEIBT4@0AEBT4@@Z 0000000180093af0 f   GuEPA.obj
 0001:00092be0       ?silhouette@Facet@Gu@physx@@QEAAXAEBT__m128@@PEIBT4@1AEAVEdgeBuffer@23@AEAV?$InlineDeferredIDPool@$0EA@@Cm@3@@Z 0000000180093be0 f   GuEPA.obj
 0001:00092db0       ?PenetrationDepth@EPA@Gu@physx@@QEAA?AW4GjkStatus@23@AEBUGjkConvex@23@0PEIBT__m128@@1E_NT6@AEAUGjkOutput@23@@Z 0000000180093db0 f   GuEPA.obj
 0001:000938c0       ?expandPoint@EPA@Gu@physx@@QEAA_NAEBUGjkConvex@23@0AEAHAEBT__m128@@@Z 00000001800948c0 f   GuEPA.obj
 0001:000939b0       ?expandSegment@EPA@Gu@physx@@QEAA_NAEBUGjkConvex@23@0AEAHAEBT__m128@@@Z 00000001800949b0 f   GuEPA.obj
 0001:00093b40       ?expandTriangle@EPA@Gu@physx@@QEAA_NAEAHAEBT__m128@@@Z 0000000180094b40 f   GuEPA.obj
 0001:00093bf0       ?addFacet@EPA@Gu@physx@@QEAAPEAVFacet@23@IIIAEBT__m128@@@Z 0000000180094bf0 f   GuEPA.obj
 0001:00093dc0       ??0Edge@Gu@physx@@QEAA@XZ  0000000180094dc0 f i GuEPA.obj
 0001:00093dd0       ??0Facet@Gu@physx@@QEAA@XZ 0000000180094dd0 f i GuEPA.obj
 0001:00094060       ?closestPtPointTetrahedron@Gu@physx@@YA?AT__m128@@PEIAT3@00AEAI@Z 0000000180095060 f   GuGJKSimplex.obj
 0001:000947e0       ?closestPtPointTetrahedron@Gu@physx@@YA?AT__m128@@PEIAT3@00PEIAH1AEAI@Z 00000001800957e0 f   GuGJKSimplex.obj
 0001:00096290       ?testGjk@Gu@physx@@YA?AW4GjkStatus@12@AEAUGjkConvex@12@0AEBT__m128@@1AEAT5@222@Z 0000000180097290 f   GuGJKTest.obj
 0001:000962a0       ?testGjkPenetration@Gu@physx@@YA?AW4GjkStatus@12@AEAUGjkConvex@12@0AEBT__m128@@1PEAE2AEAEAEAUGjkOutput@12@@Z 00000001800972a0 f   GuGJKTest.obj
 0001:000962f0       ?testEpaPenetration@Gu@physx@@YA?AW4GjkStatus@12@AEAUGjkConvex@12@0PEBE1EAEAUGjkOutput@12@@Z 00000001800972f0 f   GuGJKTest.obj
 0001:00096340       ?testGjkRaycast@Gu@physx@@YA_NAEAUGjkConvex@12@0AEBT__m128@@111AEAT4@22M@Z 0000000180097340 f   GuGJKTest.obj
 0001:00096350       ??$gjk@UGjkConvex@Gu@physx@@U123@@Gu@physx@@YA?AW4GjkStatus@01@AEBUGjkConvex@01@0AEBT__m128@@1AEAT4@222@Z 0000000180097350 f i GuGJKTest.obj
 0001:00096f70       ??$gjkPenetration@UGjkConvex@Gu@physx@@U123@@Gu@physx@@YA?AW4GjkStatus@01@AEBUGjkConvex@01@0AEBT__m128@@1_NPEIAE3AEAEAEAUGjkOutput@01@@Z 0000000180097f70 f i GuGJKTest.obj
 0001:000983b0       ??$gjkRaycast@UGjkConvex@Gu@physx@@U123@@Gu@physx@@YA_NAEBUGjkConvex@01@0AEBT__m128@@111AEAT3@22M@Z 00000001800993b0 f i GuGJKTest.obj
 0001:00098f50       ?exportExtraData@HeightField@Gu@physx@@UEAAXAEAVPxSerializationContext@3@@Z 0000000180099f50 f   GuHeightField.obj
 0001:00098fb0       ?importExtraData@HeightField@Gu@physx@@QEAAXAEAVPxDeserializationContext@3@@Z 0000000180099fb0 f   GuHeightField.obj
 0001:00098fe0       ?createObject@HeightField@Gu@physx@@SAPEAV123@AEAPEAEAEAVPxDeserializationContext@3@@Z 0000000180099fe0 f   GuHeightField.obj
 0001:00099070       ??0HeightField@Gu@physx@@QEAA@PEAVGuMeshFactory@2@@Z 000000018009a070 f   GuHeightField.obj
 0001:000990e0       ??0HeightField@Gu@physx@@QEAA@AEAVGuMeshFactory@2@AEAUHeightFieldData@12@@Z 000000018009a0e0 f   GuHeightField.obj
 0001:000991b0       ?release@HeightField@Gu@physx@@UEAAXXZ 000000018009a1b0 f   GuHeightField.obj
 0001:000991f0       ?saveCells@HeightField@Gu@physx@@UEBAIPEAXI@Z 000000018009a1f0 f   GuHeightField.obj
 0001:00099230       ?modifySamples@HeightField@Gu@physx@@UEAA_NHHAEBVPxHeightFieldDesc@3@_N@Z 000000018009a230 f   GuHeightField.obj
 0001:000995a0       ?acquireReference@HeightField@Gu@physx@@UEAAXXZ 000000018009a5a0 f   GuHeightField.obj
 0001:000995b0       ?getReferenceCount@HeightField@Gu@physx@@UEBAIXZ 000000018009a5b0 f   GuHeightField.obj
 0001:000995c0       ?onRefCountZero@HeightField@Gu@physx@@UEAAXXZ 000000018009a5c0 f   GuHeightField.obj
 0001:00099660       ?loadFromDesc@HeightField@Gu@physx@@QEAA_NAEBVPxHeightFieldDesc@3@@Z 000000018009a660 f   GuHeightField.obj
 0001:00099880       ?load@HeightField@Gu@physx@@QEAA_NAEAVPxInputStream@3@@Z 000000018009a880 f   GuHeightField.obj
 0001:00099bf0       ?computeCellCoordinates@HeightField@Gu@physx@@QEBAIMMAEAM0@Z 000000018009abf0 f   GuHeightField.obj
 0001:00099d00       ?isSolidVertex@HeightField@Gu@physx@@QEBA_NIIIGAEA_N@Z 000000018009ad00 f   GuHeightField.obj
 0001:00099e80       ?isCollisionVertexPreca@HeightField@Gu@physx@@QEBA_NIIIG@Z 000000018009ae80 f   GuHeightField.obj
 0001:00099f20       ?parseTrianglesForCollisionVertices@HeightField@Gu@physx@@QEAAXG@Z 000000018009af20 f   GuHeightField.obj
 0001:0009a410       ?releaseMemory@HeightField@Gu@physx@@QEAAXXZ 000000018009b410 f   GuHeightField.obj
 0001:0009a460       ??1HeightField@Gu@physx@@UEAA@XZ 000000018009b460 f   GuHeightField.obj
 0001:0009a4e0       ?getVertexEdgeIndices@physx@@YAIAEBVHeightField@Gu@1@IIIQEAUEdgeData@1@@Z 000000018009b4e0 f   GuHeightField.obj
 0001:0009a6d0       ?getEdgeTriangleIndices@physx@@YAIAEBVHeightField@Gu@1@AEBUEdgeData@1@PEIAI@Z 000000018009b6d0 f   GuHeightField.obj
 0001:0009a800       ??0?$BitMapBase@VNonTrackingAllocator@shdfnd@physx@@@Cm@physx@@QEAA@XZ 000000018009b800 f i GuHeightField.obj
 0001:0009a810       ??1?$BitMapBase@VNonTrackingAllocator@shdfnd@physx@@@Cm@physx@@QEAA@XZ 000000018009b810 f i GuHeightField.obj
 0001:0009a870       ??_EHeightField@Gu@physx@@UEAAPEAXI@Z 000000018009b870 f i GuHeightField.obj
 0001:0009a9e8       ??_EHeightField@Gu@physx@@WBA@EAAPEAXI@Z 000000018009b9e8 f i GuHeightField.obj
 0001:0009aa00       ??_EPxHeightField@physx@@MEAAPEAXI@Z 000000018009ba00 f i GuHeightField.obj
 0001:0009aa90       ?isConvexVertex@HeightField@Gu@physx@@QEBA_NIII@Z 000000018009ba90 f i GuHeightField.obj
 0001:0009ab60       ?requiresObjects@HeightField@Gu@physx@@UEAAXAEAVPxProcessPxBaseCallback@3@@Z 000000018009bb60 f i GuHeightField.obj
 0001:0009ab70       ?resizeAndClear@?$BitMapBase@VNonTrackingAllocator@shdfnd@physx@@@Cm@physx@@QEAAXI@Z 000000018009bb70 f i GuHeightField.obj
 0001:0009ac30       ?computeLocalBounds@HeightFieldUtil@Gu@physx@@QEBAXAEAVPxBounds3@3@@Z 000000018009bc30 f   GuHeightFieldUtil.obj
 0001:0009ad00       ?getFaceIndexAtShapePoint@HeightFieldUtil@Gu@physx@@QEBAIMM@Z 000000018009bd00 f   GuHeightFieldUtil.obj
 0001:0009ae20       ?getVertexNormal@HeightFieldUtil@Gu@physx@@QEBA?AVPxVec3@3@III@Z 000000018009be20 f   GuHeightFieldUtil.obj
 0001:0009b170       ?getVertexFaceIndex@HeightFieldUtil@Gu@physx@@QEBAIIII@Z 000000018009c170 f   GuHeightFieldUtil.obj
 0001:0009b3c0       ?getEdge@HeightFieldUtil@Gu@physx@@QEBAXIIIIAEAVPxVec3@3@0@Z 000000018009c3c0 f   GuHeightFieldUtil.obj
 0001:0009b600       ?getEdgeFaceIndex@HeightFieldUtil@Gu@physx@@QEBAII@Z 000000018009c600 f   GuHeightFieldUtil.obj
 0001:0009b7f0       ?getEdgeFaceIndex@HeightFieldUtil@Gu@physx@@QEBAIIIII@Z 000000018009c7f0 f   GuHeightFieldUtil.obj
 0001:0009b9a0       ?getEdgeFaceIndex@HeightFieldUtil@Gu@physx@@QEBAIIIPEIBI@Z 000000018009c9a0 f   GuHeightFieldUtil.obj
 0001:0009ba40       ?findClosestPointsOnCell@HeightFieldUtil@Gu@physx@@QEBAIIIVPxVec3@3@PEIAV43@PEIAI_N33@Z 000000018009ca40 f   GuHeightFieldUtil.obj
 0001:0009c1c0       ?findProjectionOnTriangle@HeightFieldUtil@Gu@physx@@QEBA_NIIIAEBVPxVec3@3@AEAV43@@Z 000000018009d1c0 f   GuHeightFieldUtil.obj
 0001:0009c470       ?findClosestPointOnEdge@HeightFieldUtil@Gu@physx@@QEBAMIIIIAEBVPxVec3@3@AEAV43@@Z 000000018009d470 f   GuHeightFieldUtil.obj
 0001:0009c760       ?getTriangle@HeightFieldUtil@Gu@physx@@QEBAIAEBVPxTransform@3@AEAVPxTriangle@3@PEAI2I_N3@Z 000000018009d760 f   GuHeightFieldUtil.obj
 0001:0009d240       ?overlapAABBTriangles@HeightFieldUtil@Gu@physx@@QEBA_NAEBVPxTransform@3@AEBVPxBounds3@3@IPEAV?$EntityReport@I@23@@Z 000000018009e240 f   GuHeightFieldUtil.obj
 0001:0009d870       ?getTriangleAdjacencyIndices@HeightField@Gu@physx@@QEBAXIIIIAEAI00@Z 000000018009e870 f i GuHeightFieldUtil.obj
 0001:0009da50       ?getTriangleNormalInternal@HeightField@Gu@physx@@QEBA?AVPxVec3@3@I@Z 000000018009ea50 f i GuHeightFieldUtil.obj
 0001:0009dba0       ?getTriangleVertexIndices@HeightField@Gu@physx@@QEBAXIAEAI00@Z 000000018009eba0 f i GuHeightFieldUtil.obj
 0001:0009dc60       ?checkOverlapAABB_heightFieldGeom@Gu@physx@@YA_NAEBVPxGeometry@2@AEBVPxTransform@2@AEBVPxBounds3@2@@Z 000000018009ec60 f   GuOverlapTestsHF.obj
 0001:0009e0e0       ?GeomOverlapCallback_SphereHeightfield@@YA_NAEBVPxGeometry@physx@@AEBVPxTransform@2@01PEAUTriggerCache@Gu@2@@Z 000000018009f0e0 f   GuOverlapTestsHF.obj
 0001:0009e2c0       ?GeomOverlapCallback_CapsuleHeightfield@@YA_NAEBVPxGeometry@physx@@AEBVPxTransform@2@01PEAUTriggerCache@Gu@2@@Z 000000018009f2c0 f   GuOverlapTestsHF.obj
 0001:0009e500       ?GeomOverlapCallback_BoxHeightfield@@YA_NAEBVPxGeometry@physx@@AEBVPxTransform@2@01PEAUTriggerCache@Gu@2@@Z 000000018009f500 f   GuOverlapTestsHF.obj
 0001:0009e830       ?GeomOverlapCallback_ConvexHeightfield@@YA_NAEBVPxGeometry@physx@@AEBVPxTransform@2@01PEAUTriggerCache@Gu@2@@Z 000000018009f830 f   GuOverlapTestsHF.obj
 0001:0009e8a0       ??$traceSegment@UTriggerTraceSegmentCallback@Gu@physx@@$0A@$0A@@HeightFieldTraceUtil@Gu@physx@@QEBAXAEBVPxVec3@2@0MPEAUTriggerTraceSegmentCallback@12@AEBVPxBounds3@2@_NPEBV32@@Z 000000018009f8a0 f i GuOverlapTestsHF.obj
 0001:000a26b0       ?sweepCapsule_HeightFieldGeom@@YA_NAEBVPxGeometry@physx@@AEBVPxTransform@2@AEBVPxCapsuleGeometry@2@1AEBVCapsule@Gu@2@AEBVPxVec3@2@MAEAUPxSweepHit@2@V?$PxFlags@W4Enum@PxHitFlag@physx@@G@2@M@Z 00000001800a36b0 f   GuSweepsHF.obj
 0001:000a3010       ?sweepConvex_HeightFieldGeom@@YA_NAEBVPxGeometry@physx@@AEBVPxTransform@2@AEBVPxConvexMeshGeometry@2@1AEBVPxVec3@2@MAEAUPxSweepHit@2@V?$PxFlags@W4Enum@PxHitFlag@physx@@G@2@M@Z 00000001800a4010 f   GuSweepsHF.obj
 0001:000a39e0       ?sweepBox_HeightFieldGeom@@YA_NAEBVPxGeometry@physx@@AEBVPxTransform@2@AEBVPxBoxGeometry@2@1AEBVBox@Gu@2@AEBVPxVec3@2@MAEAUPxSweepHit@2@V?$PxFlags@W4Enum@PxHitFlag@physx@@G@2@M@Z 00000001800a49e0 f   GuSweepsHF.obj
 0001:000a4830       ??$gjkPenetration@U?$LocalConvex@VTriangleV@Gu@physx@@@Gu@physx@@U?$LocalConvex@VConvexHullV@Gu@physx@@@23@@Gu@physx@@YA?AW4GjkStatus@01@AEBU?$LocalConvex@VTriangleV@Gu@physx@@@01@AEBU?$LocalConvex@VConvexHullV@Gu@physx@@@01@AEBT__m128@@2_NPEIAE4AEAEAEAUGjkOutput@01@@Z 00000001800a5830 f i GuSweepsHF.obj
 0001:000a5de0       ??$gjkRaycast@U?$LocalConvex@VTriangleV@Gu@physx@@@Gu@physx@@U?$LocalConvex@VConvexHullV@Gu@physx@@@23@@Gu@physx@@YA_NAEBU?$LocalConvex@VTriangleV@Gu@physx@@@01@AEBU?$LocalConvex@VConvexHullV@Gu@physx@@@01@AEBT__m128@@222AEAT4@33M@Z 00000001800a6de0 f i GuSweepsHF.obj
 0001:000a6bb0       ??$gjkRaycastPenetration@U?$LocalConvex@VTriangleV@Gu@physx@@@Gu@physx@@U?$LocalConvex@VConvexHullV@Gu@physx@@@23@@Gu@physx@@YA_NAEBU?$LocalConvex@VTriangleV@Gu@physx@@@01@AEBU?$LocalConvex@VConvexHullV@Gu@physx@@@01@AEBT__m128@@222AEAT4@33M_N@Z 00000001800a7bb0 f i GuSweepsHF.obj
 0001:000a6de0       ??$traceSegment@VBoxTraceSegmentReport@@$0A@$00@HeightFieldTraceUtil@Gu@physx@@QEBAXAEBVPxVec3@2@0MPEAVBoxTraceSegmentReport@@AEBVPxBounds3@2@_NPEBV32@@Z 00000001800a7de0 f i GuSweepsHF.obj
 0001:000a7800       ??$traceSegment@VCapsuleTraceSegmentReport@@$0A@$00@HeightFieldTraceUtil@Gu@physx@@QEBAXAEBVPxVec3@2@0MPEAVCapsuleTraceSegmentReport@@AEBVPxBounds3@2@_NPEBV32@@Z 00000001800a8800 f i GuSweepsHF.obj
 0001:000a8220       ??$traceSegment@VConvexTraceSegmentReport@@$0A@$00@HeightFieldTraceUtil@Gu@physx@@QEBAXAEBVPxVec3@2@0MPEAVConvexTraceSegmentReport@@AEBVPxBounds3@2@_NPEBV32@@Z 00000001800a9220 f i GuSweepsHF.obj
 0001:000a8c40       ??0ConvexTraceSegmentReport@@QEAA@AEBVHeightFieldUtil@Gu@physx@@AEBUConvexHullData@23@AEBVPxMeshScale@3@AEBVPxTransform@3@3AEBVPxVec3@3@MV?$PxFlags@W4Enum@PxHitFlag@physx@@G@3@M@Z 00000001800a9c40 f i GuSweepsHF.obj
 0001:000a95e0       ??_EBoxTraceSegmentReport@@UEAAPEAXI@Z 00000001800aa5e0 f i GuSweepsHF.obj
 0001:000a95e0       ??_GBoxTraceSegmentReport@@UEAAPEAXI@Z 00000001800aa5e0 f i GuSweepsHF.obj
 0001:000a9610       ??_ECapsuleTraceSegmentReport@@UEAAPEAXI@Z 00000001800aa610 f i GuSweepsHF.obj
 0001:000a9610       ??_GCapsuleTraceSegmentReport@@UEAAPEAXI@Z 00000001800aa610 f i GuSweepsHF.obj
 0001:000a9640       ??_GConvexTraceSegmentReport@@UEAAPEAXI@Z 00000001800aa640 f i GuSweepsHF.obj
 0001:000a9640       ??_EConvexTraceSegmentReport@@UEAAPEAXI@Z 00000001800aa640 f i GuSweepsHF.obj
 0001:000a9670       ??_GHeightFieldTraceSegmentReport@@UEAAPEAXI@Z 00000001800aa670 f i GuSweepsHF.obj
 0001:000a9670       ??_EHeightFieldTraceSegmentReport@@UEAAPEAXI@Z 00000001800aa670 f i GuSweepsHF.obj
 0001:000a96a0       ?finalizeHit@ConvexTraceSegmentReport@@QEAA_NAEAUPxSweepHit@physx@@AEBVPxHeightFieldGeometry@3@AEBVPxTransform@3@AEBVPxConvexMeshGeometry@3@2AEBVPxVec3@3@M@Z 00000001800aa6a0 f i GuSweepsHF.obj
 0001:000a98f0       ?onEvent@BoxTraceSegmentReport@@UEAA_NIPEAI@Z 00000001800aa8f0 f i GuSweepsHF.obj
 0001:000a9d60       ?onEvent@CapsuleTraceSegmentReport@@UEAA_NIPEAI@Z 00000001800aad60 f i GuSweepsHF.obj
 0001:000a9f90       ?onEvent@ConvexTraceSegmentReport@@UEAA_NIPEAI@Z 00000001800aaf90 f i GuSweepsHF.obj
 0001:000aa550       ?prepare@?$OverlapTraceSegment@VBoxTraceSegmentReport@@@HeightFieldTraceUtil@Gu@physx@@QEAAXAEBVPxVec3@4@00AEAM1@Z 00000001800ab550 f i GuSweepsHF.obj
 0001:000aa7f0       ?prepare@?$OverlapTraceSegment@VCapsuleTraceSegmentReport@@@HeightFieldTraceUtil@Gu@physx@@QEAAXAEBVPxVec3@4@00AEAM1@Z 00000001800ab7f0 f i GuSweepsHF.obj
 0001:000aaa90       ?prepare@?$OverlapTraceSegment@VConvexTraceSegmentReport@@@HeightFieldTraceUtil@Gu@physx@@QEAAXAEBVPxVec3@4@00AEAM1@Z 00000001800aba90 f i GuSweepsHF.obj
 0001:000aad30       ?testVertexIndex@?$OverlapTraceSegment@VBoxTraceSegmentReport@@@HeightFieldTraceUtil@Gu@physx@@QEAA_NI@Z 00000001800abd30 f i GuSweepsHF.obj
 0001:000aae80       ?testVertexIndex@?$OverlapTraceSegment@VCapsuleTraceSegmentReport@@@HeightFieldTraceUtil@Gu@physx@@QEAA_NI@Z 00000001800abe80 f i GuSweepsHF.obj
 0001:000aafd0       ?testVertexIndex@?$OverlapTraceSegment@VConvexTraceSegmentReport@@@HeightFieldTraceUtil@Gu@physx@@QEAA_NI@Z 00000001800abfd0 f i GuSweepsHF.obj
 0001:000ab120       ?intersectOBBOBB@Gu@physx@@YA_NAEBVPxVec3@2@0AEBVPxMat33@2@001_N@Z 00000001800ac120 f   GuIntersectionBoxBox.obj
 0001:000ab780       ?intersectCapsuleTriangle@Gu@physx@@YA_NAEBVPxVec3@2@000AEBVCapsule@12@AEBUCapsuleTriangleOverlapData@12@@Z 00000001800ac780 f   GuIntersectionCapsuleTriangle.obj
 0001:000ac310       ?intersectEdgeEdge@Gu@physx@@YA_NAEBVPxVec3@2@0000AEAMAEAV32@@Z 00000001800ad310 f   GuIntersectionEdgeEdge.obj
 0001:000ac640       ?rayAABBIntersect@Gu@physx@@YA_NAEBVPxVec3@2@000AEAV32@@Z 00000001800ad640 f   GuIntersectionRayBox.obj
 0001:000ac850       ?rayAABBIntersect2@Gu@physx@@YAIAEBVPxVec3@2@000AEAV32@AEAM@Z 00000001800ad850 f   GuIntersectionRayBox.obj
 0001:000aca70       ?intersectRayAABB@Gu@physx@@YAHAEBVPxVec3@2@000AEAM1@Z 00000001800ada70 f   GuIntersectionRayBox.obj
 0001:000acba0       ?intersectRayAABB@Gu@physx@@YAHAEBVPxVec3@2@0000AEAM1@Z 00000001800adba0 f   GuIntersectionRayBox.obj
 0001:000acda0       ?intersectRayAABB2@Gu@physx@@YA_NAEBVPxVec3@2@000MAEAM1@Z 00000001800adda0 f   GuIntersectionRayBox.obj
 0001:000acf50       ?intersectRayAABB2@Gu@physx@@YA_NAEBT__m128@@0000AEAT3@1@Z 00000001800adf50 f   GuIntersectionRayBox.obj
 0001:000ad010       ?intersectRayCapsuleInternal@Gu@physx@@YAIAEBVPxVec3@2@000MQEAM@Z 00000001800ae010 f   GuIntersectionRayCapsule.obj
 0001:000ad8a0       ?intersectRaySphereBasic@Gu@physx@@YA_NAEBVPxVec3@2@0M0MAEAMPEAV32@@Z 00000001800ae8a0 f   GuIntersectionRaySphere.obj
 0001:000ada00       ?intersectRaySphere@Gu@physx@@YA_NAEBVPxVec3@2@0M0MAEAMPEAV32@@Z 00000001800aea00 f   GuIntersectionRaySphere.obj
 0001:000adaf0       ?intersectSphereBox@Gu@physx@@YA_NAEBVSphere@12@AEBVBox@12@@Z 00000001800aeaf0 f   GuIntersectionSphereBox.obj
 0001:000add20       ?intersectTriangleBox_ReferenceCode@Gu@physx@@YAHAEBVPxVec3@2@0000@Z 00000001800aed20 f   GuIntersectionTriangleBox.obj
 0001:000ae590       ?intersectTriangleBox_Unsafe@Gu@physx@@YAHAEBVPxVec3@2@0000@Z 00000001800af590 f   GuIntersectionTriangleBox.obj
 0001:000ae970       ?intersectTriangleBox@Gu@physx@@YAHAEBVBoxPadded@12@AEBVPxVec3@2@11@Z 00000001800af970 f   GuIntersectionTriangleBox.obj
 0001:000aef50       ?intersectTriangleBoxBV4@@YAHAEBVPxVec3@physx@@00AEBVPxMat33@2@00@Z 00000001800aff50 f   GuIntersectionTriangleBox.obj
 0001:000af390       ??0SourceMeshBase@Gu@physx@@QEAA@XZ 00000001800b0390 f   GuBV4.obj
 0001:000af3b0       ??1SourceMeshBase@Gu@physx@@QEAA@XZ 00000001800b03b0 f   GuBV4.obj
 0001:000af410       ??0SourceMesh@Gu@physx@@QEAA@XZ 00000001800b0410 f   GuBV4.obj
 0001:000af440       ??1SourceMesh@Gu@physx@@QEAA@XZ 00000001800b0440 f   GuBV4.obj
 0001:000af4a0       ?reset@SourceMesh@Gu@physx@@QEAAXXZ 00000001800b04a0 f   GuBV4.obj
 0001:000af4c0       ??4SourceMesh@Gu@physx@@QEAAXAEAV012@@Z 00000001800b04c0 f   GuBV4.obj
 0001:000af510       ?remapTopology@SourceMesh@Gu@physx@@QEAAXPEBI@Z 00000001800b0510 f   GuBV4.obj
 0001:000af7d0       ?isValid@SourceMesh@Gu@physx@@QEBA_NXZ 00000001800b07d0 f   GuBV4.obj
 0001:000af800       ??0BV4Tree@Gu@physx@@QEAA@W4PxEMPTY@2@@Z 00000001800b0800 f   GuBV4.obj
 0001:000af810       ?exportExtraData@BV4Tree@Gu@physx@@QEAAXAEAVPxSerializationContext@3@@Z 00000001800b0810 f   GuBV4.obj
 0001:000af860       ?importExtraData@BV4Tree@Gu@physx@@QEAAXAEAVPxDeserializationContext@3@@Z 00000001800b0860 f   GuBV4.obj
 0001:000af890       ??0BV4Tree@Gu@physx@@QEAA@XZ 00000001800b0890 f   GuBV4.obj
 0001:000af8d0       ??0BV4Tree@Gu@physx@@QEAA@PEAVSourceMesh@12@AEBVPxBounds3@2@@Z 00000001800b08d0 f   GuBV4.obj
 0001:000af9a0       ??1BV4Tree@Gu@physx@@QEAA@XZ 00000001800b09a0 f   GuBV4.obj
 0001:000afa00       ?load@BV4Tree@Gu@physx@@QEAA_NAEAVPxInputStream@3@_N@Z 00000001800b0a00 f   GuBV4.obj
 0001:000afc20       ?reset@BV4Tree@Gu@physx@@QEAAXXZ 00000001800b0c20 f   GuBV4.obj
 0001:000afc50       ??4BV4Tree@Gu@physx@@QEAAXAEAV012@@Z 00000001800b0c50 f   GuBV4.obj
 0001:000afce0       ?init@BV4Tree@Gu@physx@@QEAA_NPEAVSourceMesh@23@AEBVPxBounds3@3@@Z 00000001800b0ce0 f   GuBV4.obj
 0001:000afd80       ?release@BV4Tree@Gu@physx@@QEAAXXZ 00000001800b0d80 f   GuBV4.obj
 0001:000afde0       ?refit@BV4Tree@Gu@physx@@QEAAXM@Z 00000001800b0de0 f   GuBV4.obj
 0001:000afdf0       ??0IndTri16@Gu@physx@@QEAA@XZ 00000001800b0df0 f i GuBV4.obj
 0001:000afe00       ??0IndTri32@Gu@physx@@QEAA@XZ 00000001800b0e00 f i GuBV4.obj
 0001:000afe10       ??1IndTri16@Gu@physx@@QEAA@XZ 00000001800b0e10 f i GuBV4.obj
 0001:000afe20       ??1IndTri32@Gu@physx@@QEAA@XZ 00000001800b0e20 f i GuBV4.obj
 0001:000afe30       ??_EIndTri16@Gu@physx@@QEAAPEAXI@Z 00000001800b0e30 f i GuBV4.obj
 0001:000afeb0       ??_EIndTri32@Gu@physx@@QEAAPEAXI@Z 00000001800b0eb0 f i GuBV4.obj
 0001:000aff30       ??0AABBTree@Gu@physx@@QEAA@XZ 00000001800b0f30 f   GuBV4Build.obj
 0001:000aff50       ??1AABBTree@Gu@physx@@QEAA@XZ 00000001800b0f50 f   GuBV4Build.obj
 0001:000aff60       ?buildFromMesh@AABBTree@Gu@physx@@QEAA_NAEAVSourceMesh@23@I@Z 00000001800b0f60 f   GuBV4Build.obj
 0001:000b0380       ?release@AABBTree@Gu@physx@@QEAAXXZ 00000001800b1380 f   GuBV4Build.obj
 0001:000b0430       ?walk@AABBTree@Gu@physx@@QEBAIP6A_NPEBVAABBTreeNode@23@IPEAX@Z1@Z 00000001800b1430 f   GuBV4Build.obj
 0001:000b04f0       ?BuildBV4Ex@Gu@physx@@YA_NAEAVBV4Tree@12@AEAVSourceMesh@12@MI@Z 00000001800b14f0 f   GuBV4Build.obj
 0001:000b0850       ??0BVData@@QEAA@XZ         00000001800b1850 f   GuBV4Build.obj
 0001:000b0890       ??1BV4BuildParams@@QEAA@XZ 00000001800b1890 f   GuBV4Build.obj
 0001:000b08a0       ?allocateNode@BV4BuildParams@@QEAAPEAUBV4Node@@XZ 00000001800b18a0 f   GuBV4Build.obj
 0001:000b09c0       ?releaseNodes@BV4BuildParams@@QEAAXXZ 00000001800b19c0 f   GuBV4Build.obj
 0001:000b0a80       ??0AABBTreeNode@Gu@physx@@QEAA@XZ 00000001800b1a80 f i GuBV4Build.obj
 0001:000b0aa0       ??0BV4Node@@QEAA@XZ        00000001800b1aa0 f i GuBV4Build.obj
 0001:000b0b50       ??1AABBTreeNode@Gu@physx@@QEAA@XZ 00000001800b1b50 f i GuBV4Build.obj
 0001:000b0b60       ??1BV4Node@@QEAA@XZ        00000001800b1b60 f i GuBV4Build.obj
 0001:000b0b70       ??1BVData@@QEAA@XZ         00000001800b1b70 f i GuBV4Build.obj
 0001:000b0b80       ??_EAABBTreeNode@Gu@physx@@QEAAPEAXI@Z 00000001800b1b80 f i GuBV4Build.obj
 0001:000b2790       ?Sweep_AABB_BV4@@YAHAEBVBox@Gu@physx@@AEBVPxVec3@3@MAEBVBV4Tree@23@PEIAVSweepHit@23@I@Z 00000001800b3790 f   GuBV4_AABBSweep.obj
 0001:000b2ce0       ?Sweep_AABB_BV4_CB@@YAXAEBVBox@Gu@physx@@AEBVPxVec3@3@MAEBVBV4Tree@23@PEIBVPxMat44@3@P6A_NPEAXAEBVSweepHit@23@@Z4I_N@Z 00000001800b3ce0 f   GuBV4_AABBSweep.obj
 0001:000b2e80       ?GenericSweep_AABB_CB@@YAXAEBVBox@Gu@physx@@AEBVPxVec3@3@MAEBVBV4Tree@23@P6A_NPEAX111IAEAM@Z3I@Z 00000001800b3e80 f   GuBV4_AABBSweep.obj
 0001:000b9d50       ?transform@PxMat44@physx@@QEBA?BVPxVec4@2@AEBV32@@Z 00000001800bad50 f i GuBV4_AABBSweep.obj
 0001:000baa40       ?BV4_OverlapBoxAny@@YAHAEBVBox@Gu@physx@@AEBVBV4Tree@23@PEIBVPxMat44@3@@Z 00000001800bba40 f   GuBV4_BoxOverlap.obj
 0001:000bb200       ?BV4_OverlapBoxAll@@YAIAEBVBox@Gu@physx@@AEBVBV4Tree@23@PEIBVPxMat44@3@PEAIIAEA_N@Z 00000001800bc200 f   GuBV4_BoxOverlap.obj
 0001:000bba10       ?BV4_OverlapBoxCB@@YAXAEBVBox@Gu@physx@@AEBVBV4Tree@23@P6A_NPEAXAEBVPxVec3@3@33IPEBI@Z2@Z 00000001800bca10 f   GuBV4_BoxOverlap.obj
 0001:000bbed0       ?BV4_OverlapCapsuleAny@@YAHAEBVCapsule@Gu@physx@@AEBVBV4Tree@23@PEIBVPxMat44@3@@Z 00000001800bced0 f   GuBV4_BoxOverlap.obj
 0001:000bc580       ?BV4_OverlapCapsuleAll@@YAIAEBVCapsule@Gu@physx@@AEBVBV4Tree@23@PEIBVPxMat44@3@PEAIIAEA_N@Z 00000001800bd580 f   GuBV4_BoxOverlap.obj
 0001:000bcc90       ?BV4_OverlapCapsuleCB@@YAXAEBVCapsule@Gu@physx@@AEBVBV4Tree@23@PEIBVPxMat44@3@P6A_NPEAXAEBVPxVec3@3@44IPEBI@Z3@Z 00000001800bdc90 f   GuBV4_BoxOverlap.obj
 0001:000c1310       ?BV4_CapsuleSweepSingle@@YAHAEBVCapsule@Gu@physx@@AEBVPxVec3@3@MAEBVBV4Tree@23@PEIAVSweepHit@23@I@Z 00000001800c2310 f   GuBV4_CapsuleSweep.obj
 0001:000c1960       ?BV4_CapsuleSweepCB@@YAXAEBVCapsule@Gu@physx@@AEBVPxVec3@3@MAEBVBV4Tree@23@PEIBVPxMat44@3@P6A_NPEAXAEBVSweepHit@23@@Z4I_N@Z 00000001800c2960 f   GuBV4_CapsuleSweep.obj
 0001:000c8ca0       ?transform@PxMat44@physx@@QEBA?BVPxVec3@2@AEBV32@@Z 00000001800c9ca0 f i GuBV4_CapsuleSweep.obj
 0001:000c9ac0       ?BV4_CapsuleSweepSingleAA@@YAHAEBVCapsule@Gu@physx@@AEBVPxVec3@3@MAEBVBV4Tree@23@PEIAVSweepHit@23@I@Z 00000001800caac0 f   GuBV4_CapsuleSweepAA.obj
 0001:000ccb30       ?Sweep_OBB_BV4@@YAHAEBVBox@Gu@physx@@AEBVPxVec3@3@MAEBVBV4Tree@23@PEIAVSweepHit@23@I@Z 00000001800cdb30 f   GuBV4_OBBSweep.obj
 0001:000cd080       ?Sweep_OBB_BV4_CB@@YAXAEBVBox@Gu@physx@@AEBVPxVec3@3@MAEBVBV4Tree@23@PEIBVPxMat44@3@P6A_NPEAXAEBVSweepHit@23@@Z4I_N@Z 00000001800ce080 f   GuBV4_OBBSweep.obj
 0001:000cd200       ?GenericSweep_OBB_CB@@YAXAEBVBox@Gu@physx@@AEBVPxVec3@3@MAEBVBV4Tree@23@P6A_NPEAX111IAEAM@Z3I@Z 00000001800ce200 f   GuBV4_OBBSweep.obj
 0001:000cd2f0       ?BV4_BoxSweepSingle@@YAHAEBVBox@Gu@physx@@AEBVPxVec3@3@MAEBVBV4Tree@23@PEIBVPxMat44@3@PEIAVSweepHit@23@I@Z 00000001800ce2f0 f   GuBV4_OBBSweep.obj
 0001:000cda20       ?BV4_BoxSweepCB@@YAXAEBVBox@Gu@physx@@AEBVPxVec3@3@MAEBVBV4Tree@23@PEIBVPxMat44@3@P6A_NPEAXAEBVSweepHit@23@@Z4I_N@Z 00000001800cea20 f   GuBV4_OBBSweep.obj
 0001:000ce2c0       ?BV4_GenericSweepCB@@YAXAEBVBox@Gu@physx@@AEBVPxVec3@3@MAEBVBV4Tree@23@P6A_NPEAX111IAEAM@Z3_N@Z 00000001800cf2c0 f   GuBV4_OBBSweep.obj
 0001:000d5520       ??DPxMat33@physx@@QEBA?BVPxVec3@1@AEBV21@@Z 00000001800d6520 f i GuBV4_OBBSweep.obj
 0001:000d6dc0       ?BV4_RaycastSingle@@YAHAEBVPxVec3@physx@@0AEBVBV4Tree@Gu@2@PEIBVPxMat44@2@PEIAUPxRaycastHit@2@MMIV?$PxFlags@W4Enum@PxHitFlag@physx@@G@2@@Z 00000001800d7dc0 f   GuBV4_Raycast.obj
 0001:000d7320       ?BV4_RaycastCB@@YAXAEBVPxVec3@physx@@0AEBVBV4Tree@Gu@2@PEIBVPxMat44@2@MMIP6A?AW4HitCode@42@PEAX000IMMM@Z3@Z 00000001800d8320 f   GuBV4_Raycast.obj
 0001:000d7750       ?BV4_RaycastAll@@YAIAEBVPxVec3@physx@@0AEBVBV4Tree@Gu@2@PEIBVPxMat44@2@PEIAUPxRaycastHit@2@IMMIV?$PxFlags@W4Enum@PxHitFlag@physx@@G@2@@Z 00000001800d8750 f   GuBV4_Raycast.obj
 0001:000da0a0       ?BV4_OverlapSphereAny@@YAHAEBVSphere@Gu@physx@@AEBVBV4Tree@23@PEIBVPxMat44@3@@Z 00000001800db0a0 f   GuBV4_SphereOverlap.obj
 0001:000da360       ?BV4_OverlapSphereAll@@YAIAEBVSphere@Gu@physx@@AEBVBV4Tree@23@PEIBVPxMat44@3@PEAIIAEA_N@Z 00000001800db360 f   GuBV4_SphereOverlap.obj
 0001:000da680       ?BV4_OverlapSphereCB@@YAXAEBVSphere@Gu@physx@@AEBVBV4Tree@23@PEIBVPxMat44@3@P6A_NPEAXAEBVPxVec3@3@44IPEBI@Z3@Z 00000001800db680 f   GuBV4_SphereOverlap.obj
 0001:000dd610       ?BV4_SphereSweepSingle@@YAHAEBVSphere@Gu@physx@@AEBVPxVec3@3@MAEBVBV4Tree@23@PEIBVPxMat44@3@PEIAVSweepHit@23@I@Z 00000001800de610 f   GuBV4_SphereSweep.obj
 0001:000ddd00       ?BV4_SphereSweepCB@@YAXAEBVSphere@Gu@physx@@AEBVPxVec3@3@MAEBVBV4Tree@23@PEIBVPxMat44@3@P6A_NPEAXAEBVSweepHit@23@@Z4I_N@Z 00000001800ded00 f   GuBV4_SphereSweep.obj
 0001:000de0e0       ?BV4_GenericSweepCB_Old@@YAXAEBVPxVec3@physx@@00MAEBVBV4Tree@Gu@2@PEIBVPxMat44@2@P6A_NPEAX000IAEAM@Z3@Z 00000001800df0e0 f   GuBV4_SphereSweep.obj
 0001:000e2dd0       ?raycast_triangleMesh_BV4@Gu@physx@@YAIPEBVTriangleMesh@12@AEBVPxTriangleMeshGeometry@2@AEBVPxTransform@2@AEBVPxVec3@2@3MV?$PxFlags@W4Enum@PxHitFlag@physx@@G@2@IPEIAUPxRaycastHit@2@@Z 00000001800e3dd0 f   GuMidphaseBV4.obj
 0001:000e3be0       ?intersectSphereVsMesh_BV4@Gu@physx@@YA_NAEBVSphere@12@AEBVTriangleMesh@12@AEBVPxTransform@2@AEBVPxMeshScale@2@PEAULimitedResults@12@@Z 00000001800e4be0 f   GuMidphaseBV4.obj
 0001:000e4320       ?intersectBoxVsMesh_BV4@Gu@physx@@YA_NAEBVBox@12@AEBVTriangleMesh@12@AEBVPxTransform@2@AEBVPxMeshScale@2@PEAULimitedResults@12@@Z 00000001800e5320 f   GuMidphaseBV4.obj
 0001:000e4e40       ?intersectCapsuleVsMesh_BV4@Gu@physx@@YA_NAEBVCapsule@12@AEBVTriangleMesh@12@AEBVPxTransform@2@AEBVPxMeshScale@2@PEAULimitedResults@12@@Z 00000001800e5e40 f   GuMidphaseBV4.obj
 0001:000e5680       ?intersectOBB_BV4@Gu@physx@@YAXPEBVTriangleMesh@12@AEBVBox@12@AEAU?$MeshHitCallback@UPxRaycastHit@physx@@@12@_N3@Z 00000001800e6680 f   GuMidphaseBV4.obj
 0001:000e56b0       ?sweepCapsule_MeshGeom_BV4@Gu@physx@@YA_NPEBVTriangleMesh@12@AEBVPxTriangleMeshGeometry@2@AEBVPxTransform@2@AEBVCapsule@12@AEBVPxVec3@2@MAEAUPxSweepHit@2@V?$PxFlags@W4Enum@PxHitFlag@physx@@G@2@M@Z 00000001800e66b0 f   GuMidphaseBV4.obj
 0001:000e61b0       ?sweepBox_MeshGeom_BV4@Gu@physx@@YA_NPEBVTriangleMesh@12@AEBVPxTriangleMeshGeometry@2@AEBVPxTransform@2@AEBVBox@12@AEBVPxVec3@2@MAEAUPxSweepHit@2@V?$PxFlags@W4Enum@PxHitFlag@physx@@G@2@M@Z 00000001800e71b0 f   GuMidphaseBV4.obj
 0001:000e78d0       ?sweepConvex_MeshGeom_BV4@Gu@physx@@YAXPEBVTriangleMesh@12@AEBVBox@12@AEBVPxVec3@2@MAEAUSweepConvexMeshHitCallback@12@_N@Z 00000001800e88d0 f   GuMidphaseBV4.obj
 0001:000e8a40       ??1SweepBoxMeshHitCallback@Gu@physx@@UEAA@XZ 00000001800e9a40 f i GuMidphaseBV4.obj
 0001:000e9260       ?computeSweepData@physx@@YAMAEBVPxTriangleMeshGeometry@1@AEAVPxVec3@1@11M@Z 00000001800ea260 f i GuMidphaseBV4.obj
 0001:000e95f0       ?transform@PxMeshScale@physx@@QEBA?AVPxVec3@2@AEBV32@@Z 00000001800ea5f0 f i GuMidphaseBV4.obj
 0001:000e9830       ?getTriangle@PxMeshQuery@physx@@SAXAEBVPxTriangleMeshGeometry@2@AEBVPxTransform@2@IAEAVPxTriangle@2@PEAI3@Z 00000001800ea830 f   GuMeshQuery.obj
 0001:000e9bf0       ?getTriangle@PxMeshQuery@physx@@SAXAEBVPxHeightFieldGeometry@2@AEBVPxTransform@2@IAEAVPxTriangle@2@PEAI3@Z 00000001800eabf0 f   GuMeshQuery.obj
 0001:000e9c70       ?findOverlapTriangleMesh@PxMeshQuery@physx@@SAIAEBVPxGeometry@2@AEBVPxTransform@2@AEBVPxTriangleMeshGeometry@2@1PEAIIIAEA_N@Z 00000001800eac70 f   GuMeshQuery.obj
 0001:000e9f80       ?findOverlapHeightField@PxMeshQuery@physx@@SAIAEBVPxGeometry@2@AEBVPxTransform@2@AEBVPxHeightFieldGeometry@2@1PEAIIIAEA_N@Z 00000001800eaf80 f   GuMeshQuery.obj
 0001:000ea680       ?sweep@PxMeshQuery@physx@@SA_NAEBVPxVec3@2@MAEBVPxGeometry@2@AEBVPxTransform@2@IPEBVPxTriangle@2@AEAUPxSweepHit@2@V?$PxFlags@W4Enum@PxHitFlag@physx@@G@2@PEBIM_N@Z 00000001800eb680 f   GuMeshQuery.obj
 0001:000eaa80       ?raycast_triangleMesh_RTREE@Gu@physx@@YAIPEBVTriangleMesh@12@AEBVPxTriangleMeshGeometry@2@AEBVPxTransform@2@AEBVPxVec3@2@3MV?$PxFlags@W4Enum@PxHitFlag@physx@@G@2@IPEIAUPxRaycastHit@2@@Z 00000001800eba80 f   GuMidphaseRTree.obj
 0001:000eb220       ?intersectSphereVsMesh_RTREE@Gu@physx@@YA_NAEBVSphere@12@AEBVTriangleMesh@12@AEBVPxTransform@2@AEBVPxMeshScale@2@PEAULimitedResults@12@@Z 00000001800ec220 f   GuMidphaseRTree.obj
 0001:000eb250       ?intersectBoxVsMesh_RTREE@Gu@physx@@YA_NAEBVBox@12@AEBVTriangleMesh@12@AEBVPxTransform@2@AEBVPxMeshScale@2@PEAULimitedResults@12@@Z 00000001800ec250 f   GuMidphaseRTree.obj
 0001:000eb2d0       ?intersectCapsuleVsMesh_RTREE@Gu@physx@@YA_NAEBVCapsule@12@AEBVTriangleMesh@12@AEBVPxTransform@2@AEBVPxMeshScale@2@PEAULimitedResults@12@@Z 00000001800ec2d0 f   GuMidphaseRTree.obj
 0001:000eb350       ?intersectOBB_RTREE@Gu@physx@@YAXPEBVTriangleMesh@12@AEBVBox@12@AEAU?$MeshHitCallback@UPxRaycastHit@physx@@@12@_N3@Z 00000001800ec350 f   GuMidphaseRTree.obj
 0001:000eb380       ?sweepCapsule_MeshGeom_RTREE@Gu@physx@@YA_NPEBVTriangleMesh@12@AEBVPxTriangleMeshGeometry@2@AEBVPxTransform@2@AEBVCapsule@12@AEBVPxVec3@2@MAEAUPxSweepHit@2@V?$PxFlags@W4Enum@PxHitFlag@physx@@G@2@M@Z 00000001800ec380 f   GuMidphaseRTree.obj
 0001:000ebb80       ?sweepBox_MeshGeom_RTREE@Gu@physx@@YA_NPEBVTriangleMesh@12@AEBVPxTriangleMeshGeometry@2@AEBVPxTransform@2@AEBVBox@12@AEBVPxVec3@2@MAEAUPxSweepHit@2@V?$PxFlags@W4Enum@PxHitFlag@physx@@G@2@M@Z 00000001800ecb80 f   GuMidphaseRTree.obj
 0001:000ed0e0       ?sweepConvex_MeshGeom_RTREE@Gu@physx@@YAXPEBVTriangleMesh@12@AEBVBox@12@AEBVPxVec3@2@MAEAUSweepConvexMeshHitCallback@12@_N@Z 00000001800ee0e0 f   GuMidphaseRTree.obj
 0001:000ed140       ?collideOBB@MeshRayCollider@@SAXAEBVBox@Gu@physx@@_NPEBVRTreeTriangleMesh@34@AEAU?$MeshHitCallback@UPxRaycastHit@physx@@@34@1@Z 00000001800ee140 f   GuMidphaseRTree.obj
 0001:000ee4f0       ??$collide@$00$00@MeshRayCollider@@SAXAEBVPxVec3@physx@@0M_NPEBVRTreeTriangleMesh@Gu@2@AEAU?$MeshHitCallback@UPxRaycastHit@physx@@@42@PEBV12@@Z 00000001800ef4f0 f i GuMidphaseRTree.obj
 0001:000ee870       ??$collide@$00$0A@@MeshRayCollider@@SAXAEBVPxVec3@physx@@0M_NPEBVRTreeTriangleMesh@Gu@2@AEAU?$MeshHitCallback@UPxRaycastHit@physx@@@42@PEBV12@@Z 00000001800ef870 f i GuMidphaseRTree.obj
 0001:000eeab0       ??$collide@$0A@$00@MeshRayCollider@@SAXAEBVPxVec3@physx@@0M_NPEBVRTreeTriangleMesh@Gu@2@AEAU?$MeshHitCallback@UPxRaycastHit@physx@@@42@PEBV12@@Z 00000001800efab0 f i GuMidphaseRTree.obj
 0001:000eee50       ??$collide@$0A@$0A@@MeshRayCollider@@SAXAEBVPxVec3@physx@@0M_NPEBVRTreeTriangleMesh@Gu@2@AEAU?$MeshHitCallback@UPxRaycastHit@physx@@@42@PEBV12@@Z 00000001800efe50 f i GuMidphaseRTree.obj
 0001:000f1200       ??0?$RayRTreeCallback@$00$0A@@@QEAA@MAEAU?$MeshHitCallback@UPxRaycastHit@physx@@@Gu@physx@@HPEBXPEBVPxVec3@3@AEBV43@3M_N2@Z 00000001800f2200 f i GuMidphaseRTree.obj
 0001:000f1330       ??1?$RayRTreeCallback@$00$00@@UEAA@XZ 00000001800f2330 f i GuMidphaseRTree.obj
 0001:000f13c0       ??1?$RayRTreeCallback@$00$0A@@@UEAA@XZ 00000001800f23c0 f i GuMidphaseRTree.obj
 0001:000f1450       ??1?$RayRTreeCallback@$0A@$00@@UEAA@XZ 00000001800f2450 f i GuMidphaseRTree.obj
 0001:000f14e0       ??1?$RayRTreeCallback@$0A@$0A@@@UEAA@XZ 00000001800f24e0 f i GuMidphaseRTree.obj
 0001:000f1570       ??1Callback@RTree@Gu@physx@@UEAA@XZ 00000001800f2570 f i GuMidphaseRTree.obj
 0001:000f1580       ??1CallbackRaycast@RTree@Gu@physx@@UEAA@XZ 00000001800f2580 f i GuMidphaseRTree.obj
 0001:000f158c       ??_E?$RayRTreeCallback@$00$00@@W7EAAPEAXI@Z 00000001800f258c f i GuMidphaseRTree.obj
 0001:000f1598       ??_E?$RayRTreeCallback@$00$0A@@@W7EAAPEAXI@Z 00000001800f2598 f i GuMidphaseRTree.obj
 0001:000f15a4       ??_E?$RayRTreeCallback@$0A@$00@@W7EAAPEAXI@Z 00000001800f25a4 f i GuMidphaseRTree.obj
 0001:000f15b0       ??_E?$RayRTreeCallback@$0A@$0A@@@W7EAAPEAXI@Z 00000001800f25b0 f i GuMidphaseRTree.obj
 0001:000f15c0       ??_E?$RayRTreeCallback@$00$00@@UEAAPEAXI@Z 00000001800f25c0 f i GuMidphaseRTree.obj
 0001:000f15c0       ??_G?$RayRTreeCallback@$00$00@@UEAAPEAXI@Z 00000001800f25c0 f i GuMidphaseRTree.obj
 0001:000f1600       ??_G?$RayRTreeCallback@$00$0A@@@UEAAPEAXI@Z 00000001800f2600 f i GuMidphaseRTree.obj
 0001:000f1600       ??_E?$RayRTreeCallback@$00$0A@@@UEAAPEAXI@Z 00000001800f2600 f i GuMidphaseRTree.obj
 0001:000f1640       ??_G?$RayRTreeCallback@$0A@$00@@UEAAPEAXI@Z 00000001800f2640 f i GuMidphaseRTree.obj
 0001:000f1640       ??_E?$RayRTreeCallback@$0A@$00@@UEAAPEAXI@Z 00000001800f2640 f i GuMidphaseRTree.obj
 0001:000f1680       ??_G?$RayRTreeCallback@$0A@$0A@@@UEAAPEAXI@Z 00000001800f2680 f i GuMidphaseRTree.obj
 0001:000f1680       ??_E?$RayRTreeCallback@$0A@$0A@@@UEAAPEAXI@Z 00000001800f2680 f i GuMidphaseRTree.obj
 0001:000f16c0       ??_GCallback@RTree@Gu@physx@@UEAAPEAXI@Z 00000001800f26c0 f i GuMidphaseRTree.obj
 0001:000f16c0       ??_ECallback@RTree@Gu@physx@@UEAAPEAXI@Z 00000001800f26c0 f i GuMidphaseRTree.obj
 0001:000f16f0       ??_ECallbackRaycast@RTree@Gu@physx@@UEAAPEAXI@Z 00000001800f26f0 f i GuMidphaseRTree.obj
 0001:000f16f0       ??_GCallbackRaycast@RTree@Gu@physx@@UEAAPEAXI@Z 00000001800f26f0 f i GuMidphaseRTree.obj
 0001:000f1720       ??_GRayMeshColliderCallback@@UEAAPEAXI@Z 00000001800f2720 f i GuMidphaseRTree.obj
 0001:000f1720       ??_ERayMeshColliderCallback@@UEAAPEAXI@Z 00000001800f2720 f i GuMidphaseRTree.obj
 0001:000f1950       ?processHit@RayMeshColliderCallback@@UEAA_NAEBUPxRaycastHit@physx@@AEBVPxVec3@3@11AEAMPEBI@Z 00000001800f2950 f i GuMidphaseRTree.obj
 0001:000f20e0       ?processResults@?$RayRTreeCallback@$00$00@@UEAA_NIPEAI@Z 00000001800f30e0 f i GuMidphaseRTree.obj
 0001:000f2490       ?processResults@?$RayRTreeCallback@$00$00@@UEAA_NIPEAIAEAM@Z 00000001800f3490 f i GuMidphaseRTree.obj
 0001:000f2820       ?processResults@?$RayRTreeCallback@$00$0A@@@UEAA_NIPEAI@Z 00000001800f3820 f i GuMidphaseRTree.obj
 0001:000f2ab0       ?processResults@?$RayRTreeCallback@$00$0A@@@UEAA_NIPEAIAEAM@Z 00000001800f3ab0 f i GuMidphaseRTree.obj
 0001:000f2d50       ?processResults@?$RayRTreeCallback@$0A@$00@@UEAA_NIPEAI@Z 00000001800f3d50 f i GuMidphaseRTree.obj
 0001:000f33b0       ?processResults@?$RayRTreeCallback@$0A@$00@@UEAA_NIPEAIAEAM@Z 00000001800f43b0 f i GuMidphaseRTree.obj
 0001:000f3a20       ?processResults@?$RayRTreeCallback@$0A@$0A@@@UEAA_NIPEAI@Z 00000001800f4a20 f i GuMidphaseRTree.obj
 0001:000f3cb0       ?processResults@?$RayRTreeCallback@$0A@$0A@@@UEAA_NIPEAIAEAM@Z 00000001800f4cb0 f i GuMidphaseRTree.obj
 0001:000f3f50       ?profile@Callback@RTree@Gu@physx@@UEAAXXZ 00000001800f4f50 f i GuMidphaseRTree.obj
 0001:000f3f60       ?checkOverlapAABB_triangleGeom@Gu@physx@@YA_NAEBVPxGeometry@2@AEBVPxTransform@2@AEBVPxBounds3@2@@Z 00000001800f4f60 f   GuOverlapTestsMesh.obj
 0001:000f4070       ?GeomOverlapCallback_SphereMesh@@YA_NAEBVPxGeometry@physx@@AEBVPxTransform@2@01PEAUTriggerCache@Gu@2@@Z 00000001800f5070 f   GuOverlapTestsMesh.obj
 0001:000f40e0       ?GeomOverlapCallback_CapsuleMesh@@YA_NAEBVPxGeometry@physx@@AEBVPxTransform@2@01PEAUTriggerCache@Gu@2@@Z 00000001800f50e0 f   GuOverlapTestsMesh.obj
 0001:000f4200       ?GeomOverlapCallback_BoxMesh@@YA_NAEBVPxGeometry@physx@@AEBVPxTransform@2@01PEAUTriggerCache@Gu@2@@Z 00000001800f5200 f   GuOverlapTestsMesh.obj
 0001:000f4310       ?GeomOverlapCallback_ConvexMesh@@YA_NAEBVPxGeometry@physx@@AEBVPxTransform@2@01PEAUTriggerCache@Gu@2@@Z 00000001800f5310 f   GuOverlapTestsMesh.obj
 0001:000f4900       ??$gjk@U?$RelativeConvex@VTriangleV@Gu@physx@@@Gu@physx@@U?$LocalConvex@VConvexHullV@Gu@physx@@@23@@Gu@physx@@YA?AW4GjkStatus@01@AEBU?$RelativeConvex@VTriangleV@Gu@physx@@@01@AEBU?$LocalConvex@VConvexHullV@Gu@physx@@@01@AEBT__m128@@2AEAT5@333@Z 00000001800f5900 f i GuOverlapTestsMesh.obj
 0001:000f5790       ??0ConvexVsMeshOverlapCallback@@QEAA@AEBVConvexMesh@Gu@physx@@AEBVPxMeshScale@3@AEBVFastVertex2ShapeScaling@Cm@3@AEBVPxTransform@3@3_NAEBVBox@23@@Z 00000001800f6790 f i GuOverlapTestsMesh.obj
 0001:000f6020       ??1ConvexVsMeshOverlapCallback@@UEAA@XZ 00000001800f7020 f i GuOverlapTestsMesh.obj
 0001:000f6030       ??_GConvexVsMeshOverlapCallback@@UEAAPEAXI@Z 00000001800f7030 f i GuOverlapTestsMesh.obj
 0001:000f6030       ??_EConvexVsMeshOverlapCallback@@UEAAPEAXI@Z 00000001800f7030 f i GuOverlapTestsMesh.obj
 0001:000f6060       ?processHit@ConvexVsMeshOverlapCallback@@UEAA_NAEBUPxRaycastHit@physx@@AEBVPxVec3@3@11AEAMPEBI@Z 00000001800f7060 f i GuOverlapTestsMesh.obj
 0001:000f63e0       ??0RTree@Gu@physx@@QEAA@W4PxEMPTY@2@@Z 00000001800f73e0 f   GuRTree.obj
 0001:000f63f0       ?exportExtraData@RTree@Gu@physx@@QEAAXAEAVPxSerializationContext@3@@Z 00000001800f73f0 f   GuRTree.obj
 0001:000f6440       ?importExtraData@RTree@Gu@physx@@QEAAXAEAVPxDeserializationContext@3@@Z 00000001800f7440 f   GuRTree.obj
 0001:000f6470       ?load@RTree@Gu@physx@@QEAA_NAEAVPxInputStream@3@I_N@Z 00000001800f7470 f   GuRTree.obj
 0001:000f6770       ?refitAllStaticTree@RTree@Gu@physx@@QEAAXAEAUCallbackRefit@123@PEAVPxBounds3@3@@Z 00000001800f7770 f   GuRTree.obj
 0001:000f6cd0       ?validate@RTree@Gu@physx@@QEAAXPEAUCallbackRefit@123@@Z 00000001800f7cd0 f   GuRTree.obj
 0001:000f6e30       ?computeBottomLevelCount@RTree@Gu@physx@@QEBAII@Z 00000001800f7e30 f   GuRTree.obj
 0001:000f6f20       ?validateRecursive@RTree@Gu@physx@@IEAAXIURTreeNodeQ@23@PEAURTreePage@23@PEAUCallbackRefit@123@@Z 00000001800f7f20 f   GuRTree.obj
 0001:000f7050       ?traverseAABB@RTree@Gu@physx@@QEBAXAEBVPxVec3@3@0IPEAIPEAUCallback@123@@Z 00000001800f8050 f   GuRTreeQueries.obj
 0001:000f7210       ?traverseOBB@RTree@Gu@physx@@QEBAXAEBVBox@23@IPEAIPEAUCallback@123@@Z 00000001800f8210 f   GuRTreeQueries.obj
 0001:000f7af0       ??$traverseRay@$00@RTree@Gu@physx@@QEBAXAEBVPxVec3@2@0IPEAIPEAUCallbackRaycast@012@PEBV32@M@Z 00000001800f8af0 f i GuRTreeQueries.obj
 0001:000f7e90       ??$traverseRay@$0A@@RTree@Gu@physx@@QEBAXAEBVPxVec3@2@0IPEAIPEAUCallbackRaycast@012@PEBV32@M@Z 00000001800f8e90 f i GuRTreeQueries.obj
 0001:000f81e0       ??0SweepShapeMeshHitCallback@Gu@physx@@QEAA@W4Enum@CallbackMode@12@AEBV?$PxFlags@W4Enum@PxHitFlag@physx@@G@2@_NM@Z 00000001800f91e0 f   GuSweepsMesh.obj
 0001:000f8220       ??0SweepCapsuleMeshHitCallback@Gu@physx@@QEAA@AEAUPxSweepHit@2@AEBVMatrix34@Cm@2@M_NAEBVCapsule@12@AEBVPxVec3@2@AEBV?$PxFlags@W4Enum@PxHitFlag@physx@@G@2@2M@Z 00000001800f9220 f   GuSweepsMesh.obj
 0001:000f82f0       ?processHit@SweepCapsuleMeshHitCallback@Gu@physx@@UEAA_NAEBUPxRaycastHit@3@AEBVPxVec3@3@11AEAMPEBI@Z 00000001800f92f0 f   GuSweepsMesh.obj
 0001:000f8830       ?finalizeHit@SweepCapsuleMeshHitCallback@Gu@physx@@QEBA_NAEAUPxSweepHit@3@AEBVCapsule@23@AEBVPxTriangleMeshGeometry@3@AEBVPxTransform@3@_N@Z 00000001800f9830 f   GuSweepsMesh.obj
 0001:000f89d0       ??0SweepBoxMeshHitCallback@Gu@physx@@QEAA@W4Enum@CallbackMode@12@AEBVMatrix34Padded@12@M_NAEBVBox@12@AEBVPxVec3@2@44AEBV?$PxFlags@W4Enum@PxHitFlag@physx@@G@2@M2M@Z 00000001800f99d0 f   GuSweepsMesh.obj
 0001:000f8ae0       ?processHit@SweepBoxMeshHitCallback@Gu@physx@@UEAA_NAEBUPxRaycastHit@3@AEBVPxVec3@3@11AEAMPEBI@Z 00000001800f9ae0 f   GuSweepsMesh.obj
 0001:000f92f0       ?finalizeHit@SweepBoxMeshHitCallback@Gu@physx@@QEBA_NAEAUPxSweepHit@3@AEBVPxTriangleMeshGeometry@3@AEBVPxTransform@3@2AEBVPxVec3@3@_N4@Z 00000001800fa2f0 f   GuSweepsMesh.obj
 0001:000f99c0       ??0SweepConvexMeshHitCallback@Gu@physx@@QEAA@AEBUConvexHullData@12@AEBVPxMeshScale@2@AEBVFastVertex2ShapeScaling@Cm@2@AEBVPxTransform@2@3AEBVPxVec3@2@MV?$PxFlags@W4Enum@PxHitFlag@physx@@G@2@_NM6M@Z 00000001800fa9c0 f   GuSweepsMesh.obj
 0001:000fa340       ?processHit@SweepConvexMeshHitCallback@Gu@physx@@UEAA_NAEBUPxRaycastHit@3@AEBVPxVec3@3@11AEAMPEBI@Z 00000001800fb340 f   GuSweepsMesh.obj
 0001:000faaa0       ?finalizeHit@SweepConvexMeshHitCallback@Gu@physx@@QEAA_NAEAUPxSweepHit@3@AEBVPxTriangleMeshGeometry@3@AEBVPxTransform@3@AEBVPxConvexMeshGeometry@3@2AEBVPxVec3@3@M_N555@Z 00000001800fbaa0 f   GuSweepsMesh.obj
 0001:000faf90       ?sweepCapsule_MeshGeom@@YA_NAEBVPxGeometry@physx@@AEBVPxTransform@2@AEBVPxCapsuleGeometry@2@1AEBVCapsule@Gu@2@AEBVPxVec3@2@MAEAUPxSweepHit@2@V?$PxFlags@W4Enum@PxHitFlag@physx@@G@2@M@Z 00000001800fbf90 f   GuSweepsMesh.obj
 0001:000fb030       ?sweepBox_MeshGeom@@YA_NAEBVPxGeometry@physx@@AEBVPxTransform@2@AEBVPxBoxGeometry@2@1AEBVBox@Gu@2@AEBVPxVec3@2@MAEAUPxSweepHit@2@V?$PxFlags@W4Enum@PxHitFlag@physx@@G@2@M@Z 00000001800fc030 f   GuSweepsMesh.obj
 0001:000fb0d0       ?sweepConvex_MeshGeom@@YA_NAEBVPxGeometry@physx@@AEBVPxTransform@2@AEBVPxConvexMeshGeometry@2@1AEBVPxVec3@2@MAEAUPxSweepHit@2@V?$PxFlags@W4Enum@PxHitFlag@physx@@G@2@M@Z 00000001800fc0d0 f   GuSweepsMesh.obj
 0001:000fba30       ??1SweepConvexMeshHitCallback@Gu@physx@@UEAA@XZ 00000001800fca30 f i GuSweepsMesh.obj
 0001:000fba40       ??_ESweepBoxMeshHitCallback@Gu@physx@@UEAAPEAXI@Z 00000001800fca40 f i GuSweepsMesh.obj
 0001:000fba40       ??_GSweepBoxMeshHitCallback@Gu@physx@@UEAAPEAXI@Z 00000001800fca40 f i GuSweepsMesh.obj
 0001:000fba70       ??_ESweepCapsuleMeshHitCallback@Gu@physx@@UEAAPEAXI@Z 00000001800fca70 f i GuSweepsMesh.obj
 0001:000fba70       ??_GSweepCapsuleMeshHitCallback@Gu@physx@@UEAAPEAXI@Z 00000001800fca70 f i GuSweepsMesh.obj
 0001:000fbaa0       ??_ESweepConvexMeshHitCallback@Gu@physx@@UEAAPEAXI@Z 00000001800fcaa0 f i GuSweepsMesh.obj
 0001:000fbaa0       ??_GSweepConvexMeshHitCallback@Gu@physx@@UEAAPEAXI@Z 00000001800fcaa0 f i GuSweepsMesh.obj
 0001:000fbad0       ??_ESweepShapeMeshHitCallback@Gu@physx@@UEAAPEAXI@Z 00000001800fcad0 f i GuSweepsMesh.obj
 0001:000fbad0       ??_GSweepShapeMeshHitCallback@Gu@physx@@UEAAPEAXI@Z 00000001800fcad0 f i GuSweepsMesh.obj
 0001:000fbde0       ?exportExtraData@TriangleMesh@Gu@physx@@UEAAXAEAVPxSerializationContext@3@@Z 00000001800fcde0 f   GuTriangleMesh.obj
 0001:000fbf20       ?importExtraData@TriangleMesh@Gu@physx@@QEAAXAEAVPxDeserializationContext@3@@Z 00000001800fcf20 f   GuTriangleMesh.obj
 0001:000fc030       ?release@TriangleMesh@Gu@physx@@UEAAXXZ 00000001800fd030 f   GuTriangleMesh.obj
 0001:000fc070       ?onRefCountZero@TriangleMesh@Gu@physx@@UEAAXXZ 00000001800fd070 f   GuTriangleMesh.obj
 0001:000fc110       ??0TriangleMesh@Gu@physx@@QEAA@AEAVGuMeshFactory@2@AEAVTriangleMeshData@12@@Z 00000001800fd110 f   GuTriangleMesh.obj
 0001:000fc2b0       ??1TriangleMesh@Gu@physx@@UEAA@XZ 00000001800fd2b0 f   GuTriangleMesh.obj
 0001:000fc460       ?getVerticesForModification@TriangleMesh@Gu@physx@@UEAAPEAVPxVec3@3@XZ 00000001800fd460 f   GuTriangleMesh.obj
 0001:000fc4a0       ?refitBVH@TriangleMesh@Gu@physx@@UEAA?AVPxBounds3@3@XZ 00000001800fd4a0 f   GuTriangleMesh.obj
 0001:000fc560       ??1PxTriangleMesh@physx@@MEAA@XZ 00000001800fd560 f i GuTriangleMesh.obj
 0001:000fc56c       ??_ETriangleMesh@Gu@physx@@WBA@EAAPEAXI@Z 00000001800fd56c f i GuTriangleMesh.obj
 0001:000fc580       ??_EPxTriangleMesh@physx@@MEAAPEAXI@Z 00000001800fd580 f i GuTriangleMesh.obj
 0001:000fc580       ??_GPxTriangleMesh@physx@@MEAAPEAXI@Z 00000001800fd580 f i GuTriangleMesh.obj
 0001:000fc5b0       ??_ETriangleMesh@Gu@physx@@UEAAPEAXI@Z 00000001800fd5b0 f i GuTriangleMesh.obj
 0001:000fc5b0       ??_GTriangleMesh@Gu@physx@@UEAAPEAXI@Z 00000001800fd5b0 f i GuTriangleMesh.obj
 0001:000fc610       ?acquireReference@TriangleMesh@Gu@physx@@UEAAXXZ 00000001800fd610 f i GuTriangleMesh.obj
 0001:000fc620       ?getLocalBounds@TriangleMesh@Gu@physx@@UEBA?AVPxBounds3@3@XZ 00000001800fd620 f i GuTriangleMesh.obj
 0001:000fc6b0       ?getNbTriangles@TriangleMesh@Gu@physx@@UEBAIXZ 00000001800fd6b0 f i GuTriangleMesh.obj
 0001:000fc6c0       ?getNbVertices@TriangleMesh@Gu@physx@@UEBAIXZ 00000001800fd6c0 f i GuTriangleMesh.obj
 0001:000fc6d0       ?getReferenceCount@TriangleMesh@Gu@physx@@UEBAIXZ 00000001800fd6d0 f i GuTriangleMesh.obj
 0001:000fc6e0       ?getTriangleMaterialIndex@TriangleMesh@Gu@physx@@UEBAGI@Z 00000001800fd6e0 f i GuTriangleMesh.obj
 0001:000fc700       ?getTriangleMeshFlags@TriangleMesh@Gu@physx@@UEBA?AV?$PxFlags@W4Enum@PxTriangleMeshFlag@physx@@E@3@XZ 00000001800fd700 f i GuTriangleMesh.obj
 0001:000fc710       ?getTriangles@TriangleMesh@Gu@physx@@UEBAPEBXXZ 00000001800fd710 f i GuTriangleMesh.obj
 0001:000fc720       ?getTrianglesRemap@TriangleMesh@Gu@physx@@UEBAPEBIXZ 00000001800fd720 f i GuTriangleMesh.obj
 0001:000fc730       ?getVertices@TriangleMesh@Gu@physx@@UEBAPEBVPxVec3@3@XZ 00000001800fd730 f i GuTriangleMesh.obj
 0001:000fc740       ?isKindOf@PxTriangleMesh@physx@@MEBA_NPEBD@Z 00000001800fd740 f i GuTriangleMesh.obj
 0001:000fc790       ?requiresObjects@TriangleMesh@Gu@physx@@UEAAXAEAVPxProcessPxBaseCallback@3@@Z 00000001800fd790 f i GuTriangleMesh.obj
 0001:000fc7a0       ?exportExtraData@BV4TriangleMesh@Gu@physx@@UEAAXAEAVPxSerializationContext@3@@Z 00000001800fd7a0 f   GuTriangleMeshBV4.obj
 0001:000fc7e0       ?importExtraData@BV4TriangleMesh@Gu@physx@@QEAAXAEAVPxDeserializationContext@3@@Z 00000001800fd7e0 f   GuTriangleMeshBV4.obj
 0001:000fc860       ?createObject@BV4TriangleMesh@Gu@physx@@SAPEAVTriangleMesh@23@AEAPEAEAEAVPxDeserializationContext@3@@Z 00000001800fd860 f   GuTriangleMeshBV4.obj
 0001:000fc970       ??0BV4TriangleMesh@Gu@physx@@QEAA@AEAVGuMeshFactory@2@AEAVTriangleMeshData@12@@Z 00000001800fd970 f   GuTriangleMeshBV4.obj
 0001:000fca10       ??1BV4TriangleMesh@Gu@physx@@UEAA@XZ 00000001800fda10 f i GuTriangleMeshBV4.obj
 0001:000fca54       ??_EBV4TriangleMesh@Gu@physx@@WBA@EAAPEAXI@Z 00000001800fda54 f i GuTriangleMeshBV4.obj
 0001:000fca60       ??_EBV4TriangleMesh@Gu@physx@@UEAAPEAXI@Z 00000001800fda60 f i GuTriangleMeshBV4.obj
 0001:000fca60       ??_GBV4TriangleMesh@Gu@physx@@UEAAPEAXI@Z 00000001800fda60 f i GuTriangleMeshBV4.obj
 0001:000fcaf0       ?getConcreteTypeName@BV4TriangleMesh@Gu@physx@@UEBAPEBDXZ 00000001800fdaf0 f i GuTriangleMeshBV4.obj
 0001:000fcb00       ?getMidphaseID@BV4TriangleMesh@Gu@physx@@UEBA?AW4Enum@PxMeshMidPhase@3@XZ 00000001800fdb00 f i GuTriangleMeshBV4.obj
 0001:000fcb10       ?exportExtraData@RTreeTriangleMesh@Gu@physx@@UEAAXAEAVPxSerializationContext@3@@Z 00000001800fdb10 f   GuTriangleMeshRTree.obj
 0001:000fcb50       ?importExtraData@RTreeTriangleMesh@Gu@physx@@QEAAXAEAVPxDeserializationContext@3@@Z 00000001800fdb50 f   GuTriangleMeshRTree.obj
 0001:000fcb90       ?createObject@RTreeTriangleMesh@Gu@physx@@SAPEAVTriangleMesh@23@AEAPEAEAEAVPxDeserializationContext@3@@Z 00000001800fdb90 f   GuTriangleMeshRTree.obj
 0001:000fcc50       ??0RTreeTriangleMesh@Gu@physx@@QEAA@AEAVGuMeshFactory@2@AEAVTriangleMeshData@12@@Z 00000001800fdc50 f   GuTriangleMeshRTree.obj
 0001:000fcdd0       ?getVerticesForModification@RTreeTriangleMesh@Gu@physx@@UEAAPEAVPxVec3@3@XZ 00000001800fddd0 f   GuTriangleMeshRTree.obj
 0001:000fcde0       ?refitBVH@RTreeTriangleMesh@Gu@physx@@UEAA?AVPxBounds3@3@XZ 00000001800fdde0 f   GuTriangleMeshRTree.obj
 0001:000fd000       ??1CallbackRefit@RTree@Gu@physx@@UEAA@XZ 00000001800fe000 f i GuTriangleMeshRTree.obj
 0001:000fd010       ??1RTreeTriangleMesh@Gu@physx@@UEAA@XZ 00000001800fe010 f i GuTriangleMeshRTree.obj
 0001:000fd080       ??_ERTreeTriangleMesh@Gu@physx@@WBA@EAAPEAXI@Z 00000001800fe080 f i GuTriangleMeshRTree.obj
 0001:000fd090       ??_E?$RefitCallback@G@physx@@UEAAPEAXI@Z 00000001800fe090 f i GuTriangleMeshRTree.obj
 0001:000fd090       ??_G?$RefitCallback@G@physx@@UEAAPEAXI@Z 00000001800fe090 f i GuTriangleMeshRTree.obj
 0001:000fd0c0       ??_E?$RefitCallback@I@physx@@UEAAPEAXI@Z 00000001800fe0c0 f i GuTriangleMeshRTree.obj
 0001:000fd0c0       ??_G?$RefitCallback@I@physx@@UEAAPEAXI@Z 00000001800fe0c0 f i GuTriangleMeshRTree.obj
 0001:000fd0f0       ??_ECallbackRefit@RTree@Gu@physx@@UEAAPEAXI@Z 00000001800fe0f0 f i GuTriangleMeshRTree.obj
 0001:000fd0f0       ??_GCallbackRefit@RTree@Gu@physx@@UEAAPEAXI@Z 00000001800fe0f0 f i GuTriangleMeshRTree.obj
 0001:000fd120       ??_GRTreeTriangleMesh@Gu@physx@@UEAAPEAXI@Z 00000001800fe120 f i GuTriangleMeshRTree.obj
 0001:000fd120       ??_ERTreeTriangleMesh@Gu@physx@@UEAAPEAXI@Z 00000001800fe120 f i GuTriangleMeshRTree.obj
 0001:000fd1e0       ?getConcreteTypeName@RTreeTriangleMesh@Gu@physx@@UEBAPEBDXZ 00000001800fe1e0 f i GuTriangleMeshRTree.obj
 0001:000fd1f0       ?getMidphaseID@RTreeTriangleMesh@Gu@physx@@UEBA?AW4Enum@PxMeshMidPhase@3@XZ 00000001800fe1f0 f i GuTriangleMeshRTree.obj
 0001:000fd200       ?recomputeBounds@?$RefitCallback@G@physx@@UEAAXIAEAT__m128@@0@Z 00000001800fe200 f i GuTriangleMeshRTree.obj
 0001:000fd530       ?recomputeBounds@?$RefitCallback@I@physx@@UEAAXIAEAT__m128@@0@Z 00000001800fe530 f i GuTriangleMeshRTree.obj
 0001:000fd850       ??0BV32Tree@Gu@physx@@QEAA@W4PxEMPTY@2@@Z 00000001800fe850 f   GuBV32.obj
 0001:000fd870       ?exportExtraData@BV32Tree@Gu@physx@@QEAAXAEAVPxSerializationContext@3@@Z 00000001800fe870 f   GuBV32.obj
 0001:000fd8c0       ?importExtraData@BV32Tree@Gu@physx@@QEAAXAEAVPxDeserializationContext@3@@Z 00000001800fe8c0 f   GuBV32.obj
 0001:000fd8f0       ??0BV32Tree@Gu@physx@@QEAA@XZ 00000001800fe8f0 f   GuBV32.obj
 0001:000fd920       ??0BV32Tree@Gu@physx@@QEAA@PEAVSourceMesh@12@AEBVPxBounds3@2@@Z 00000001800fe920 f   GuBV32.obj
 0001:000fd9e0       ??1BV32Tree@Gu@physx@@QEAA@XZ 00000001800fe9e0 f   GuBV32.obj
 0001:000fd9f0       ?load@BV32Tree@Gu@physx@@QEAA_NAEAVPxInputStream@3@_N@Z 00000001800fe9f0 f   GuBV32.obj
 0001:000fdc10       ?calculateLeafNode@BV32Tree@Gu@physx@@QEAAXAEAUBV32Data@23@@Z 00000001800fec10 f   GuBV32.obj
 0001:000fde50       ?createSOAformatNode@BV32Tree@Gu@physx@@QEAAXAEAUBV32DataPacked@23@AEBUBV32Data@23@IAEAI2@Z 00000001800fee50 f   GuBV32.obj
 0001:000fe2a0       ?reset@BV32Tree@Gu@physx@@QEAAXXZ 00000001800ff2a0 f   GuBV32.obj
 0001:000fe2c0       ??4BV32Tree@Gu@physx@@QEAAXAEAV012@@Z 00000001800ff2c0 f   GuBV32.obj
 0001:000fe320       ?init@BV32Tree@Gu@physx@@QEAA_NPEAVSourceMesh@23@AEBVPxBounds3@3@@Z 00000001800ff320 f   GuBV32.obj
 0001:000fe3c0       ?release@BV32Tree@Gu@physx@@QEAAXXZ 00000001800ff3c0 f   GuBV32.obj
 0001:000fe450       ?BuildBV32Ex@Gu@physx@@YA_NAEAVBV32Tree@12@AEAVSourceMesh@12@MI@Z 00000001800ff450 f   GuBV32Build.obj
 0001:000fe610       ??0BV32Data@Gu@physx@@QEAA@XZ 00000001800ff610 f i GuBV32Build.obj
 0001:000fe640       ??0BV32Node@@QEAA@XZ       00000001800ff640 f i GuBV32Build.obj
 0001:000ff6b0       ?pcmContactBoxBox@Gu@physx@@YA_NAEBVGeometryUnion@12@0AEBVPxTransform@2@1AEBUNarrowPhaseParams@12@AEAUCache@12@AEAVContactBuffer@12@PEAVRenderOutput@Cm@2@@Z 00000001801006b0 f   GuPCMContactBoxBox.obj
 0001:00102e00       ?pcmContactBoxConvex@Gu@physx@@YA_NAEBVGeometryUnion@12@0AEBVPxTransform@2@1AEBUNarrowPhaseParams@12@AEAUCache@12@AEAVContactBuffer@12@PEAVRenderOutput@Cm@2@@Z 0000000180103e00 f   GuPCMContactBoxConvex.obj
 0001:00103b00       ??$gjkPenetration@U?$RelativeConvex@VBoxV@Gu@physx@@@Gu@physx@@U?$LocalConvex@VConvexHullNoScaleV@Gu@physx@@@23@@Gu@physx@@YA?AW4GjkStatus@01@AEBU?$RelativeConvex@VBoxV@Gu@physx@@@01@AEBU?$LocalConvex@VConvexHullNoScaleV@Gu@physx@@@01@AEBT__m128@@2_NPEIAE4AEAEAEAUGjkOutput@01@@Z 0000000180104b00 f i GuPCMContactBoxConvex.obj
 0001:00105070       ??_G?$LocalConvex@VConvexHullNoScaleV@Gu@physx@@@Gu@physx@@UEAAPEAXI@Z 0000000180106070 f i GuPCMContactBoxConvex.obj
 0001:00105070       ??_E?$LocalConvex@VConvexHullNoScaleV@Gu@physx@@@Gu@physx@@UEAAPEAXI@Z 0000000180106070 f i GuPCMContactBoxConvex.obj
 0001:00105720       ?getCenter@?$LocalConvex@VConvexHullNoScaleV@Gu@physx@@@Gu@physx@@UEBA?AT__m128@@XZ 0000000180106720 f i GuPCMContactBoxConvex.obj
 0001:00105730       ?getSweepMargin@?$LocalConvex@VConvexHullNoScaleV@Gu@physx@@@Gu@physx@@UEBA?AT__m128@@XZ 0000000180106730 f i GuPCMContactBoxConvex.obj
 0001:00105750       ?support@?$LocalConvex@VConvexHullNoScaleV@Gu@physx@@@Gu@physx@@UEBA?AT__m128@@AEBT4@@Z 0000000180106750 f i GuPCMContactBoxConvex.obj
 0001:001057a0       ?support@?$LocalConvex@VConvexHullNoScaleV@Gu@physx@@@Gu@physx@@UEBA?AT__m128@@AEBT4@AEAH@Z 00000001801067a0 f i GuPCMContactBoxConvex.obj
 0001:00105800       ?supportPoint@?$LocalConvex@VConvexHullNoScaleV@Gu@physx@@@Gu@physx@@UEBA?AT__m128@@H@Z 0000000180106800 f i GuPCMContactBoxConvex.obj
 0001:00105830       ?pcmContactCapsuleBox@Gu@physx@@YA_NAEBVGeometryUnion@12@0AEBVPxTransform@2@1AEBUNarrowPhaseParams@12@AEAUCache@12@AEAVContactBuffer@12@PEAVRenderOutput@Cm@2@@Z 0000000180106830 f   GuPCMContactCapsuleBox.obj
 0001:00106770       ?pcmContactCapsuleCapsule@Gu@physx@@YA_NAEBVGeometryUnion@12@0AEBVPxTransform@2@1AEBUNarrowPhaseParams@12@AEAUCache@12@AEAVContactBuffer@12@PEAVRenderOutput@Cm@2@@Z 0000000180107770 f   GuPCMContactCapsuleCapsule.obj
 0001:00106ff0       ?pcmContactCapsuleConvex@Gu@physx@@YA_NAEBVGeometryUnion@12@0AEBVPxTransform@2@1AEBUNarrowPhaseParams@12@AEAUCache@12@AEAVContactBuffer@12@PEAVRenderOutput@Cm@2@@Z 0000000180107ff0 f   GuPCMContactCapsuleConvex.obj
 0001:00108200       ??$gjkPenetration@U?$LocalConvex@VCapsuleV@Gu@physx@@@Gu@physx@@U?$LocalConvex@VConvexHullNoScaleV@Gu@physx@@@23@@Gu@physx@@YA?AW4GjkStatus@01@AEBU?$LocalConvex@VCapsuleV@Gu@physx@@@01@AEBU?$LocalConvex@VConvexHullNoScaleV@Gu@physx@@@01@AEBT__m128@@2_NPEIAE4AEAEAEAUGjkOutput@01@@Z 0000000180109200 f i GuPCMContactCapsuleConvex.obj
 0001:00109960       ?pcmContactCapsuleHeightField@Gu@physx@@YA_NAEBVGeometryUnion@12@0AEBVPxTransform@2@1AEBUNarrowPhaseParams@12@AEAUCache@12@AEAVContactBuffer@12@PEAVRenderOutput@Cm@2@@Z 000000018010a960 f   GuPCMContactCapsuleHeightField.obj
 0001:0010a680       ??0PCMContactPatch@Gu@physx@@QEAA@XZ 000000018010b680 f i GuPCMContactCapsuleHeightField.obj
 0001:0010a6a0       ??0PCMMeshContactGeneration@Gu@physx@@QEAA@AEBT__m128@@0AEBVPsTransformV@aos@shdfnd@2@1AEAVMultiplePersistentContactManifold@12@AEAVContactBuffer@12@PEAV?$InlineArray@I$0EEA@V?$ReflectionAllocator@I@shdfnd@physx@@@62@PEAVRenderOutput@Cm@2@@Z 000000018010b6a0 f i GuPCMContactCapsuleHeightField.obj
 0001:0010afb0       ??_G?$PCMHeightfieldContactGenerationCallback@UPCMCapsuleVsHeightfieldContactGenerationCallback@physx@@@Gu@physx@@UEAAPEAXI@Z 000000018010bfb0 f i GuPCMContactCapsuleHeightField.obj
 0001:0010afb0       ??_E?$PCMHeightfieldContactGenerationCallback@UPCMCapsuleVsHeightfieldContactGenerationCallback@physx@@@Gu@physx@@UEAAPEAXI@Z 000000018010bfb0 f i GuPCMContactCapsuleHeightField.obj
 0001:0010afe0       ??_GPCMCapsuleVsHeightfieldContactGenerationCallback@physx@@UEAAPEAXI@Z 000000018010bfe0 f i GuPCMContactCapsuleHeightField.obj
 0001:0010afe0       ??_EPCMCapsuleVsHeightfieldContactGenerationCallback@physx@@UEAAPEAXI@Z 000000018010bfe0 f i GuPCMContactCapsuleHeightField.obj
 0001:0010b010       ?onEvent@?$PCMHeightfieldContactGenerationCallback@UPCMCapsuleVsHeightfieldContactGenerationCallback@physx@@@Gu@physx@@UEAA_NIPEAI@Z 000000018010c010 f i GuPCMContactCapsuleHeightField.obj
 0001:0010b5d0       ?pcmContactCapsuleMesh@Gu@physx@@YA_NAEBVGeometryUnion@12@0AEBVPxTransform@2@1AEBUNarrowPhaseParams@12@AEAUCache@12@AEAVContactBuffer@12@PEAVRenderOutput@Cm@2@@Z 000000018010c5d0 f   GuPCMContactCapsuleMesh.obj
 0001:0010c4e0       ??$processTriangleCache@$0BA@@PCMCapsuleVsMeshContactGenerationCallback@physx@@QEAAXAEAU?$TriangleCache@$0BA@@Gu@1@@Z 000000018010d4e0 f i GuPCMContactCapsuleMesh.obj
 0001:0010c570       ??_G?$PCMMeshContactGenerationCallback@UPCMCapsuleVsMeshContactGenerationCallback@physx@@@Gu@physx@@UEAAPEAXI@Z 000000018010d570 f i GuPCMContactCapsuleMesh.obj
 0001:0010c570       ??_E?$PCMMeshContactGenerationCallback@UPCMCapsuleVsMeshContactGenerationCallback@physx@@@Gu@physx@@UEAAPEAXI@Z 000000018010d570 f i GuPCMContactCapsuleMesh.obj
 0001:0010c5a0       ??_GPCMCapsuleVsMeshContactGenerationCallback@physx@@UEAAPEAXI@Z 000000018010d5a0 f i GuPCMContactCapsuleMesh.obj
 0001:0010c5a0       ??_EPCMCapsuleVsMeshContactGenerationCallback@physx@@UEAAPEAXI@Z 000000018010d5a0 f i GuPCMContactCapsuleMesh.obj
 0001:0010c5d0       ?processHit@?$PCMMeshContactGenerationCallback@UPCMCapsuleVsMeshContactGenerationCallback@physx@@@Gu@physx@@UEAA_NAEBUPxRaycastHit@3@AEBVPxVec3@3@11AEAMPEBI@Z 000000018010d5d0 f i GuPCMContactCapsuleMesh.obj
 0001:0010c990       ?generateLastContacts@PCMConvexVsMeshContactGeneration@Gu@physx@@QEAAXXZ 000000018010d990 f   GuPCMContactConvexCommon.obj
 0001:0010ced0       ?addContactsToPatch@PCMConvexVsMeshContactGeneration@Gu@physx@@QEAAXAEBT__m128@@I@Z 000000018010ded0 f   GuPCMContactConvexCommon.obj
 0001:0010d800       ?processTriangle@PCMConvexVsMeshContactGeneration@Gu@physx@@QEAA_NPEBVPxVec3@3@IEPEBI@Z 000000018010e800 f   GuPCMContactConvexCommon.obj
 0001:0010dd70       ?processTriangle@PCMConvexVsMeshContactGeneration@Gu@physx@@SA_NAEBUPolygonalData@23@PEAVSupportLocal@23@PEBVPxVec3@3@IEAEBT__m128@@_NAEBVPsTransformV@aos@shdfnd@3@AEBVPsMatTransformV@9shdfnd@3@PEAVMeshPersistentContact@23@AEAI@Z 000000018010ed70 f   GuPCMContactConvexCommon.obj
 0001:0010dff0       ?processTriangle@PCMSphereVsMeshContactGeneration@Gu@physx@@QEAA_NPEBVPxVec3@3@IEPEBI@Z 000000018010eff0 f   GuPCMContactConvexCommon.obj
 0001:0010e410       ?generateLastContacts@PCMSphereVsMeshContactGeneration@Gu@physx@@QEAAXXZ 000000018010f410 f   GuPCMContactConvexCommon.obj
 0001:0010e880       ?addToPatch@PCMSphereVsMeshContactGeneration@Gu@physx@@QEAAXAEBT__m128@@0T4@I@Z 000000018010f880 f   GuPCMContactConvexCommon.obj
 0001:0010ef20       ?generateEEContacts@PCMCapsuleVsMeshContactGeneration@Gu@physx@@QEAAXAEBT__m128@@000I000PEAVMeshPersistentContact@23@AEAI@Z 000000018010ff20 f   GuPCMContactConvexCommon.obj
 0001:0010f050       ?generateEE@PCMCapsuleVsMeshContactGeneration@Gu@physx@@QEAAXAEBT__m128@@000I00PEAVMeshPersistentContact@23@AEAI@Z 0000000180110050 f   GuPCMContactConvexCommon.obj
 0001:0010f2e0       ?generateContacts@PCMCapsuleVsMeshContactGeneration@Gu@physx@@SA_NAEBT__m128@@0000I000PEAVMeshPersistentContact@23@AEAI@Z 00000001801102e0 f   GuPCMContactConvexCommon.obj
 0001:0010f770       ?generateEEContactsMTD@PCMCapsuleVsMeshContactGeneration@Gu@physx@@SAXAEBT__m128@@000I000PEAVMeshPersistentContact@23@AEAI@Z 0000000180110770 f   GuPCMContactConvexCommon.obj
 0001:0010f890       ?generateEEMTD@PCMCapsuleVsMeshContactGeneration@Gu@physx@@SAXAEBT__m128@@000I00PEAVMeshPersistentContact@23@AEAI@Z 0000000180110890 f   GuPCMContactConvexCommon.obj
 0001:0010fae0       ?processTriangle@PCMCapsuleVsMeshContactGeneration@Gu@physx@@QEAA_NPEBVPxVec3@3@IEPEBI@Z 0000000180110ae0 f   GuPCMContactConvexCommon.obj
 0001:00110680       ?processTriangle@PCMCapsuleVsMeshContactGeneration@Gu@physx@@SA_NAEBVTriangleV@23@IAEBVCapsuleV@23@AEBT__m128@@EPEAVMeshPersistentContact@23@AEAI@Z 0000000180111680 f   GuPCMContactConvexCommon.obj
 0001:001109c0       ?pcmDistanceSegmentTriangleSquared@Gu@physx@@YA?AT__m128@@AEBT3@0000AEAT3@11@Z 00000001801119c0 f   GuPCMContactConvexCommon.obj
 0001:00111300       ??$sort@USortedTriangle@Gu@physx@@U?$Less@USortedTriangle@Gu@physx@@@shdfnd@3@@shdfnd@physx@@YAXPEAUSortedTriangle@Gu@1@IAEBU?$Less@USortedTriangle@Gu@physx@@@01@@Z 0000000180112300 f i GuPCMContactConvexCommon.obj
 0001:00111320       ??$sort@USortedTriangle@Gu@physx@@U?$Less@USortedTriangle@Gu@physx@@@shdfnd@3@V?$ReflectionAllocator@USortedTriangle@Gu@physx@@@53@@shdfnd@physx@@YAXPEAUSortedTriangle@Gu@1@IAEBU?$Less@USortedTriangle@Gu@physx@@@01@AEBV?$ReflectionAllocator@USortedTriangle@Gu@physx@@@01@I@Z 0000000180112320 f i GuPCMContactConvexCommon.obj
 0001:00111850       ??_G?$SupportLocalImpl@VTriangleV@Gu@physx@@@Gu@physx@@UEAAPEAXI@Z 0000000180112850 f i GuPCMContactConvexCommon.obj
 0001:00111850       ??_E?$SupportLocalImpl@VTriangleV@Gu@physx@@@Gu@physx@@UEAAPEAXI@Z 0000000180112850 f i GuPCMContactConvexCommon.obj
 0001:00111880       ?allocate@?$ReflectionAllocator@USortedTriangle@Gu@physx@@@shdfnd@physx@@QEAAPEAX_KPEBDH@Z 0000000180112880 f i GuPCMContactConvexCommon.obj
 0001:00111920       ?doSupport@?$SupportLocalImpl@VTriangleV@Gu@physx@@@Gu@physx@@UEBA?AT__m128@@AEBT4@@Z 0000000180112920 f i GuPCMContactConvexCommon.obj
 0001:001119b0       ?doSupport@?$SupportLocalImpl@VTriangleV@Gu@physx@@@Gu@physx@@UEBAXAEBT__m128@@AEAT4@1@Z 00000001801129b0 f i GuPCMContactConvexCommon.obj
 0001:00111a20       ?growAndPushBack@?$Array@USortedTriangle@Gu@physx@@V?$InlineAllocator@$0IAA@V?$ReflectionAllocator@USortedTriangle@Gu@physx@@@shdfnd@physx@@@shdfnd@3@@shdfnd@physx@@IEAAAEAUSortedTriangle@Gu@3@AEBU453@@Z 0000000180112a20 f i GuPCMContactConvexCommon.obj
 0001:001120a0       ?populateVerts@?$SupportLocalImpl@VTriangleV@Gu@physx@@@Gu@physx@@UEBAXPEBEIPEBVPxVec3@3@PEAT__m128@@@Z 00000001801130a0 f i GuPCMContactConvexCommon.obj
 0001:001121e0       ?pcmContactConvexConvex@Gu@physx@@YA_NAEBVGeometryUnion@12@0AEBVPxTransform@2@1AEBUNarrowPhaseParams@12@AEAUCache@12@AEAVContactBuffer@12@PEAVRenderOutput@Cm@2@@Z 00000001801131e0 f   GuPCMContactConvexConvex.obj
 0001:001131b0       ??$gjkPenetration@U?$RelativeConvex@VConvexHullNoScaleV@Gu@physx@@@Gu@physx@@U?$LocalConvex@VConvexHullNoScaleV@Gu@physx@@@23@@Gu@physx@@YA?AW4GjkStatus@01@AEBU?$RelativeConvex@VConvexHullNoScaleV@Gu@physx@@@01@AEBU?$LocalConvex@VConvexHullNoScaleV@Gu@physx@@@01@AEBT__m128@@2_NPEIAE4AEAEAEAUGjkOutput@01@@Z 00000001801141b0 f i GuPCMContactConvexConvex.obj
 0001:00114720       ??$gjkPenetration@U?$RelativeConvex@VConvexHullNoScaleV@Gu@physx@@@Gu@physx@@U?$LocalConvex@VConvexHullV@Gu@physx@@@23@@Gu@physx@@YA?AW4GjkStatus@01@AEBU?$RelativeConvex@VConvexHullNoScaleV@Gu@physx@@@01@AEBU?$LocalConvex@VConvexHullV@Gu@physx@@@01@AEBT__m128@@2_NPEIAE4AEAEAEAUGjkOutput@01@@Z 0000000180115720 f i GuPCMContactConvexConvex.obj
 0001:00115d00       ??$gjkPenetration@U?$RelativeConvex@VConvexHullV@Gu@physx@@@Gu@physx@@U?$LocalConvex@VConvexHullNoScaleV@Gu@physx@@@23@@Gu@physx@@YA?AW4GjkStatus@01@AEBU?$RelativeConvex@VConvexHullV@Gu@physx@@@01@AEBU?$LocalConvex@VConvexHullNoScaleV@Gu@physx@@@01@AEBT__m128@@2_NPEIAE4AEAEAEAUGjkOutput@01@@Z 0000000180116d00 f i GuPCMContactConvexConvex.obj
 0001:001172d0       ??_G?$RelativeConvex@VConvexHullNoScaleV@Gu@physx@@@Gu@physx@@UEAAPEAXI@Z 00000001801182d0 f i GuPCMContactConvexConvex.obj
 0001:001172d0       ??_E?$RelativeConvex@VConvexHullNoScaleV@Gu@physx@@@Gu@physx@@UEAAPEAXI@Z 00000001801182d0 f i GuPCMContactConvexConvex.obj
 0001:00117d00       ?getCenter@?$RelativeConvex@VConvexHullNoScaleV@Gu@physx@@@Gu@physx@@UEBA?AT__m128@@XZ 0000000180118d00 f i GuPCMContactConvexConvex.obj
 0001:00117d40       ?getSweepMargin@?$RelativeConvex@VConvexHullNoScaleV@Gu@physx@@@Gu@physx@@UEBA?AT__m128@@XZ 0000000180118d40 f i GuPCMContactConvexConvex.obj
 0001:00117d60       ?support@?$RelativeConvex@VConvexHullNoScaleV@Gu@physx@@@Gu@physx@@UEBA?AT__m128@@AEBT4@@Z 0000000180118d60 f i GuPCMContactConvexConvex.obj
 0001:00117e10       ?support@?$RelativeConvex@VConvexHullNoScaleV@Gu@physx@@@Gu@physx@@UEBA?AT__m128@@AEBT4@AEAH@Z 0000000180118e10 f i GuPCMContactConvexConvex.obj
 0001:00117ed0       ?supportPoint@?$RelativeConvex@VConvexHullNoScaleV@Gu@physx@@@Gu@physx@@UEBA?AT__m128@@H@Z 0000000180118ed0 f i GuPCMContactConvexConvex.obj
 0001:00117f30       ?pcmContactBoxHeightField@Gu@physx@@YA_NAEBVGeometryUnion@12@0AEBVPxTransform@2@1AEBUNarrowPhaseParams@12@AEAUCache@12@AEAVContactBuffer@12@PEAVRenderOutput@Cm@2@@Z 0000000180118f30 f   GuPCMContactConvexHeightField.obj
 0001:001181b0       ?pcmContactConvexHeightField@Gu@physx@@YA_NAEBVGeometryUnion@12@0AEBVPxTransform@2@1AEBUNarrowPhaseParams@12@AEAUCache@12@AEAVContactBuffer@12@PEAVRenderOutput@Cm@2@@Z 00000001801191b0 f   GuPCMContactConvexHeightField.obj
 0001:00118860       ?PCMContactConvexHeightfield@Gu@physx@@YA_NAEBUPolygonalData@12@PEAVSupportLocal@12@AEBT__m128@@AEBVPxBounds3@2@AEBVPxHeightFieldGeometry@2@AEBVPxTransform@2@5MAEAVContactBuffer@12@AEBVFastVertex2ShapeScaling@Cm@2@_NAEAVMultiplePersistentContactManifold@12@PEAVRenderOutput@Cm@2@@Z 0000000180119860 f   GuPCMContactConvexHeightField.obj
 0001:00119310       ??_E?$PCMHeightfieldContactGenerationCallback@UPCMConvexVsHeightfieldContactGenerationCallback@physx@@@Gu@physx@@UEAAPEAXI@Z 000000018011a310 f i GuPCMContactConvexHeightField.obj
 0001:00119310       ??_G?$PCMHeightfieldContactGenerationCallback@UPCMConvexVsHeightfieldContactGenerationCallback@physx@@@Gu@physx@@UEAAPEAXI@Z 000000018011a310 f i GuPCMContactConvexHeightField.obj
 0001:00119340       ??_EPCMConvexVsHeightfieldContactGenerationCallback@physx@@UEAAPEAXI@Z 000000018011a340 f i GuPCMContactConvexHeightField.obj
 0001:00119340       ??_GPCMConvexVsHeightfieldContactGenerationCallback@physx@@UEAAPEAXI@Z 000000018011a340 f i GuPCMContactConvexHeightField.obj
 0001:00119370       ?onEvent@?$PCMHeightfieldContactGenerationCallback@UPCMConvexVsHeightfieldContactGenerationCallback@physx@@@Gu@physx@@UEAA_NIPEAI@Z 000000018011a370 f i GuPCMContactConvexHeightField.obj
 0001:00119930       ?pcmContactBoxMesh@Gu@physx@@YA_NAEBVGeometryUnion@12@0AEBVPxTransform@2@1AEBUNarrowPhaseParams@12@AEAUCache@12@AEAVContactBuffer@12@PEAVRenderOutput@Cm@2@@Z 000000018011a930 f   GuPCMContactConvexMesh.obj
 0001:00119c60       ?pcmContactConvexMesh@Gu@physx@@YA_NAEBVGeometryUnion@12@0AEBVPxTransform@2@1AEBUNarrowPhaseParams@12@AEAUCache@12@AEAVContactBuffer@12@PEAVRenderOutput@Cm@2@@Z 000000018011ac60 f   GuPCMContactConvexMesh.obj
 0001:0011a420       ?PCMContactConvexMesh@Gu@physx@@YA_NAEBUPolygonalData@12@PEAVSupportLocal@12@AEBT__m128@@AEBVPxBounds3@2@AEBUPxTriangleMeshGeometryLL@2@AEBVPxTransform@2@5MAEAVContactBuffer@12@AEBVFastVertex2ShapeScaling@Cm@2@7_N8AEAVMultiplePersistentContactManifold@12@PEAVRenderOutput@Cm@2@@Z 000000018011b420 f   GuPCMContactConvexMesh.obj
 0001:0011afd0       ??$processTriangleCache@$0BA@@PCMConvexVsMeshContactGenerationCallback@physx@@QEAAXAEAU?$TriangleCache@$0BA@@Gu@1@@Z 000000018011bfd0 f i GuPCMContactConvexMesh.obj
 0001:0011b060       ??_E?$PCMMeshContactGenerationCallback@UPCMConvexVsMeshContactGenerationCallback@physx@@@Gu@physx@@UEAAPEAXI@Z 000000018011c060 f i GuPCMContactConvexMesh.obj
 0001:0011b060       ??_G?$PCMMeshContactGenerationCallback@UPCMConvexVsMeshContactGenerationCallback@physx@@@Gu@physx@@UEAAPEAXI@Z 000000018011c060 f i GuPCMContactConvexMesh.obj
 0001:0011b090       ??_EPCMConvexVsMeshContactGenerationCallback@physx@@UEAAPEAXI@Z 000000018011c090 f i GuPCMContactConvexMesh.obj
 0001:0011b090       ??_GPCMConvexVsMeshContactGenerationCallback@physx@@UEAAPEAXI@Z 000000018011c090 f i GuPCMContactConvexMesh.obj
 0001:0011b0c0       ?processHit@?$PCMMeshContactGenerationCallback@UPCMConvexVsMeshContactGenerationCallback@physx@@@Gu@physx@@UEAA_NAEBUPxRaycastHit@3@AEBVPxVec3@3@11AEAMPEBI@Z 000000018011c0c0 f i GuPCMContactConvexMesh.obj
 0001:0011b4f0       ?generateFullContactManifold@Gu@physx@@YA_NAEAUPolygonalData@12@0PEAVSupportLocal@12@1PEAVPersistentContact@12@AEAIAEBT__m128@@444MM_NPEAVRenderOutput@Cm@2@M@Z 000000018011c4f0 f   GuPCMContactGenBoxConvex.obj
 0001:0011cd00       ?addGJKEPAContacts@Gu@physx@@YA_NPEBUGjkConvex@12@0AEBVPsMatTransformV@aos@shdfnd@2@W4GjkStatus@12@PEAVPersistentContact@12@T__m128@@4AEAUGjkOutput@12@AEAVPersistentContactManifold@12@@Z 000000018011dd00 f   GuPCMContactGenBoxConvex.obj
 0001:0011cf10       ?computeMTD@Gu@physx@@YA_NAEAUPolygonalData@12@0PEAVSupportLocal@12@1AEAT__m128@@2@Z 000000018011df10 f   GuPCMContactGenBoxConvex.obj
 0001:0011d570       ?buildPartialHull@Gu@physx@@YAXAEBUPolygonalData@12@PEAVSupportLocal@12@AEAVSeparatingAxes@12@AEBT__m128@@3@Z 000000018011e570 f   GuPCMContactGenBoxConvex.obj
 0001:0011d830       ?generatedContacts@Gu@physx@@YAXAEAUPolygonalData@12@0AEBUHullPolygonData@12@1PEAVSupportLocal@12@2AEBVPsMatTransformV@aos@shdfnd@2@PEAVPersistentContact@12@AEAIAEBT__m128@@PEAVRenderOutput@Cm@2@@Z 000000018011e830 f   GuPCMContactGenBoxConvex.obj
 0001:0011ef30       ?generateFullContactManifold@Gu@physx@@YA_NAEBVCapsuleV@12@AEAUPolygonalData@12@PEAVSupportLocal@12@AEBVPsMatTransformV@aos@shdfnd@2@PEAVPersistentContact@12@AEAIAEBT__m128@@AEAT__m128@@6M_NM@Z 000000018011ff30 f   GuPCMContactGenSphereCapsule.obj
 0001:0011f820       ?generateCapsuleBoxFullContactManifold@Gu@physx@@YA_NAEBVCapsuleV@12@AEAUPolygonalData@12@PEAVSupportLocal@12@AEBVPsMatTransformV@aos@shdfnd@2@PEAVPersistentContact@12@AEAIAEBT__m128@@AEAT__m128@@6M_NM@Z 0000000180120820 f   GuPCMContactGenSphereCapsule.obj
 0001:00120080       ?computeMTD@Gu@physx@@YA_NAEBVCapsuleV@12@AEAUPolygonalData@12@PEAVSupportLocal@12@AEAT__m128@@3@Z 0000000180121080 f   GuPCMContactGenSphereCapsule.obj
 0001:00120170       ?generateSphereFullContactManifold@Gu@physx@@YA_NAEBVCapsuleV@12@AEAUPolygonalData@12@PEAVSupportLocal@12@PEAVPersistentContact@12@AEAIAEBT__m128@@AEAT7@_N@Z 0000000180121170 f   GuPCMContactGenSphereCapsule.obj
 0001:001205d0       ?generatedCapsuleBoxFaceContacts@Gu@physx@@YAXAEBVCapsuleV@12@AEAUPolygonalData@12@AEBUHullPolygonData@12@PEAVSupportLocal@12@AEBVPsMatTransformV@aos@shdfnd@2@PEAVPersistentContact@12@AEAIAEBT__m128@@7@Z 00000001801215d0 f   GuPCMContactGenSphereCapsule.obj
 0001:00120d80       ?generatedContactsEEContacts@Gu@physx@@YAXAEBVCapsuleV@12@AEAUPolygonalData@12@AEBUHullPolygonData@12@PEAVSupportLocal@12@AEBVPsMatTransformV@aos@shdfnd@2@PEAVPersistentContact@12@AEAIAEBT__m128@@7@Z 0000000180121d80 f   GuPCMContactGenSphereCapsule.obj
 0001:001219f0       ?pcmContactPlaneBox@Gu@physx@@YA_NAEBVGeometryUnion@12@0AEBVPxTransform@2@1AEBUNarrowPhaseParams@12@AEAUCache@12@AEAVContactBuffer@12@PEAVRenderOutput@Cm@2@@Z 00000001801229f0 f   GuPCMContactPlaneBox.obj
 0001:001225a0       ?pcmContactPlaneCapsule@Gu@physx@@YA_NAEBVGeometryUnion@12@0AEBVPxTransform@2@1AEBUNarrowPhaseParams@12@AEAUCache@12@AEAVContactBuffer@12@PEAVRenderOutput@Cm@2@@Z 00000001801235a0 f   GuPCMContactPlaneCapsule.obj
 0001:00122d40       ?pcmContactPlaneConvex@Gu@physx@@YA_NAEBVGeometryUnion@12@0AEBVPxTransform@2@1AEBUNarrowPhaseParams@12@AEAUCache@12@AEAVContactBuffer@12@PEAVRenderOutput@Cm@2@@Z 0000000180123d40 f   GuPCMContactPlaneConvex.obj
 0001:001236a0       ?pcmContactSphereBox@Gu@physx@@YA_NAEBVGeometryUnion@12@0AEBVPxTransform@2@1AEBUNarrowPhaseParams@12@AEAUCache@12@AEAVContactBuffer@12@PEAVRenderOutput@Cm@2@@Z 00000001801246a0 f   GuPCMContactSphereBox.obj
 0001:00123b10       ?pcmContactSphereCapsule@Gu@physx@@YA_NAEBVGeometryUnion@12@0AEBVPxTransform@2@1AEBUNarrowPhaseParams@12@AEAUCache@12@AEAVContactBuffer@12@PEAVRenderOutput@Cm@2@@Z 0000000180124b10 f   GuPCMContactSphereCapsule.obj
 0001:00123d50       ?pcmContactSphereConvex@Gu@physx@@YA_NAEBVGeometryUnion@12@0AEBVPxTransform@2@1AEBUNarrowPhaseParams@12@AEAUCache@12@AEAVContactBuffer@12@PEAVRenderOutput@Cm@2@@Z 0000000180124d50 f   GuPCMContactSphereConvex.obj
 0001:00124c50       ?pcmContactSphereHeightField@Gu@physx@@YA_NAEBVGeometryUnion@12@0AEBVPxTransform@2@1AEBUNarrowPhaseParams@12@AEAUCache@12@AEAVContactBuffer@12@PEAVRenderOutput@Cm@2@@Z 0000000180125c50 f   GuPCMContactSphereHeightField.obj
 0001:001256f0       ??1?$Array@USortedTriangle@Gu@physx@@V?$InlineAllocator@$0IAA@V?$ReflectionAllocator@USortedTriangle@Gu@physx@@@shdfnd@physx@@@shdfnd@3@@shdfnd@physx@@QEAA@XZ 00000001801266f0 f i GuPCMContactSphereHeightField.obj
 0001:00125760       ??_E?$PCMHeightfieldContactGenerationCallback@UPCMSphereVsHeightfieldContactGenerationCallback@physx@@@Gu@physx@@UEAAPEAXI@Z 0000000180126760 f i GuPCMContactSphereHeightField.obj
 0001:00125760       ??_G?$PCMHeightfieldContactGenerationCallback@UPCMSphereVsHeightfieldContactGenerationCallback@physx@@@Gu@physx@@UEAAPEAXI@Z 0000000180126760 f i GuPCMContactSphereHeightField.obj
 0001:00125790       ??_EPCMSphereVsHeightfieldContactGenerationCallback@physx@@UEAAPEAXI@Z 0000000180126790 f i GuPCMContactSphereHeightField.obj
 0001:00125790       ??_GPCMSphereVsHeightfieldContactGenerationCallback@physx@@UEAAPEAXI@Z 0000000180126790 f i GuPCMContactSphereHeightField.obj
 0001:001257e0       ?onEvent@?$PCMHeightfieldContactGenerationCallback@UPCMSphereVsHeightfieldContactGenerationCallback@physx@@@Gu@physx@@UEAA_NIPEAI@Z 00000001801267e0 f i GuPCMContactSphereHeightField.obj
 0001:00125da0       ?pcmContactSphereMesh@Gu@physx@@YA_NAEBVGeometryUnion@12@0AEBVPxTransform@2@1AEBUNarrowPhaseParams@12@AEAUCache@12@AEAVContactBuffer@12@PEAVRenderOutput@Cm@2@@Z 0000000180126da0 f   GuPCMContactSphereMesh.obj
 0001:00126990       ??$processTriangleCache@$0BA@@PCMSphereVsMeshContactGenerationCallback@physx@@QEAAXAEAU?$TriangleCache@$0BA@@Gu@1@@Z 0000000180127990 f i GuPCMContactSphereMesh.obj
 0001:00126a20       ??_E?$PCMMeshContactGenerationCallback@UPCMSphereVsMeshContactGenerationCallback@physx@@@Gu@physx@@UEAAPEAXI@Z 0000000180127a20 f i GuPCMContactSphereMesh.obj
 0001:00126a20       ??_G?$PCMMeshContactGenerationCallback@UPCMSphereVsMeshContactGenerationCallback@physx@@@Gu@physx@@UEAAPEAXI@Z 0000000180127a20 f i GuPCMContactSphereMesh.obj
 0001:00126a50       ??_EPCMSphereVsMeshContactGenerationCallback@physx@@UEAAPEAXI@Z 0000000180127a50 f i GuPCMContactSphereMesh.obj
 0001:00126a50       ??_GPCMSphereVsMeshContactGenerationCallback@physx@@UEAAPEAXI@Z 0000000180127a50 f i GuPCMContactSphereMesh.obj
 0001:00126aa0       ?processHit@?$PCMMeshContactGenerationCallback@UPCMSphereVsMeshContactGenerationCallback@physx@@@Gu@physx@@UEAA_NAEBUPxRaycastHit@3@AEBVPxVec3@3@11AEAMPEBI@Z 0000000180127aa0 f i GuPCMContactSphereMesh.obj
 0001:00126e60       ?pcmContactSpherePlane@Gu@physx@@YA_NAEBVGeometryUnion@12@0AEBVPxTransform@2@1AEBUNarrowPhaseParams@12@AEAUCache@12@AEAVContactBuffer@12@PEAVRenderOutput@Cm@2@@Z 0000000180127e60 f   GuPCMContactSpherePlane.obj
 0001:00126ff0       ?pcmContactSphereSphere@Gu@physx@@YA_NAEBVGeometryUnion@12@0AEBVPxTransform@2@1AEBUNarrowPhaseParams@12@AEAUCache@12@AEAVContactBuffer@12@PEAVRenderOutput@Cm@2@@Z 0000000180127ff0 f   GuPCMContactSphereSphere.obj
 0001:001270d0       ??0PCMPolygonalBox@Gu@physx@@QEAA@AEBVPxVec3@2@@Z 00000001801280d0 f   GuPCMShapeConvex.obj
 0001:001272a0       ?getPolygonalData@PCMPolygonalBox@Gu@physx@@QEBAXPEIAUPolygonalData@23@@Z 00000001801282a0 f   GuPCMShapeConvex.obj
 0001:001272f0       ?getPCMConvexData@Gu@physx@@YAXAEBVConvexHullV@12@_NAEAUPolygonalData@12@@Z 00000001801282f0 f   GuPCMShapeConvex.obj
 0001:00127450       ?getPCMConvexData@Gu@physx@@YA_NAEBVGeometryUnion@12@AEAVFastVertex2ShapeScaling@Cm@2@AEAVPxBounds3@2@AEAUPolygonalData@12@@Z 0000000180128450 f   GuPCMShapeConvex.obj
 0001:00127810       ?generateTriangleFullContactManifold@PCMConvexVsMeshContactGeneration@Gu@physx@@QEAA_NAEAVTriangleV@23@IPEBIEAEBUPolygonalData@23@PEAV?$SupportLocalImpl@VTriangleV@Gu@physx@@@23@PEAVSupportLocal@23@PEAVMeshPersistentContact@23@AEAIAEBT__m128@@AEAT9@@Z 0000000180128810 f   GuPCMTriangleContactGen.obj
 0001:00128120       ?generatePolyDataContactManifold@PCMConvexVsMeshContactGeneration@Gu@physx@@QEAA_NAEAVTriangleV@23@IIEPEAVMeshPersistentContact@23@AEAIAEBT__m128@@AEAT6@@Z 0000000180129120 f   GuPCMTriangleContactGen.obj
 0001:00128250       ?generateTriangleFullContactManifold@PCMConvexVsMeshContactGeneration@Gu@physx@@SA_NAEAVTriangleV@23@IEAEBUPolygonalData@23@PEAV?$SupportLocalImpl@VTriangleV@Gu@physx@@@23@PEAVSupportLocal@23@PEAVMeshPersistentContact@23@AEAIAEBT__m128@@AEAT9@PEAVRenderOutput@Cm@3@@Z 0000000180129250 f   GuPCMTriangleContactGen.obj
 0001:0012a970       ?findRotationMatrixFromZAxis@Gu@physx@@YA?AUMat33V@aos@shdfnd@2@AEBT__m128@@@Z 000000018012b970 f   GuPersistentContactManifold.obj
 0001:0012ac00       ?replaceManifoldPoint@PersistentContactManifold@Gu@physx@@QEAA_NAEBT__m128@@000@Z 000000018012bc00 f   GuPersistentContactManifold.obj
 0001:0012acd0       ?addManifoldPoint@PersistentContactManifold@Gu@physx@@QEAAIAEBT__m128@@000@Z 000000018012bcd0 f   GuPersistentContactManifold.obj
 0001:0012ada0       ?addManifoldPoint2@PersistentContactManifold@Gu@physx@@QEAAIAEBT__m128@@000@Z 000000018012bda0 f   GuPersistentContactManifold.obj
 0001:0012aee0       ?addBatchManifoldContactsCluster@PersistentContactManifold@Gu@physx@@QEAAXPEBVPersistentContact@23@I@Z 000000018012bee0 f   GuPersistentContactManifold.obj
 0001:0012af60       ?addBatchManifoldContacts2@PersistentContactManifold@Gu@physx@@QEAAXPEBVPersistentContact@23@I@Z 000000018012bf60 f   GuPersistentContactManifold.obj
 0001:0012afe0       ?addBatchManifoldContacts@PersistentContactManifold@Gu@physx@@QEAAXPEBVPersistentContact@23@IM@Z 000000018012bfe0 f   GuPersistentContactManifold.obj
 0001:0012b060       ?reduceBatchContactsCluster@PersistentContactManifold@Gu@physx@@QEAAXPEBVPersistentContact@23@I@Z 000000018012c060 f   GuPersistentContactManifold.obj
 0001:0012b500       ?reduceBatchContacts2@PersistentContactManifold@Gu@physx@@QEAAXPEBVPersistentContact@23@I@Z 000000018012c500 f   GuPersistentContactManifold.obj
 0001:0012b700       ?reduceBatchContacts@PersistentContactManifold@Gu@physx@@QEAAXPEBVPersistentContact@23@IM@Z 000000018012c700 f   GuPersistentContactManifold.obj
 0001:0012bbd0       ?reduceContactsForPCM@PersistentContactManifold@Gu@physx@@QEAAIAEBT__m128@@00@Z 000000018012cbd0 f   GuPersistentContactManifold.obj
 0001:0012c170       ?reduceContactSegment@PersistentContactManifold@Gu@physx@@QEAAIAEBT__m128@@00@Z 000000018012d170 f   GuPersistentContactManifold.obj
 0001:0012c210       ?addManifoldContactsToContactBuffer@PersistentContactManifold@Gu@physx@@QEAAXAEAVContactBuffer@23@AEBT__m128@@AEBVPsMatTransformV@aos@shdfnd@3@@Z 000000018012d210 f   GuPersistentContactManifold.obj
 0001:0012c2c0       ?addManifoldContactsToContactBuffer@PersistentContactManifold@Gu@physx@@QEAAXAEAVContactBuffer@23@AEBT__m128@@AEBVPsTransformV@aos@shdfnd@3@1@Z 000000018012d2c0 f   GuPersistentContactManifold.obj
 0001:0012c420       ?addManifoldContactsToContactBuffer@PersistentContactManifold@Gu@physx@@QEAAXAEAVContactBuffer@23@AEBT__m128@@1AEBVPsTransformV@aos@shdfnd@3@11@Z 000000018012d420 f   GuPersistentContactManifold.obj
 0001:0012c5c0       ?recordWarmStart@PersistentContactManifold@Gu@physx@@QEAAXPEAE0AEAE@Z 000000018012d5c0 f   GuPersistentContactManifold.obj
 0001:0012c610       ?setWarmStart@PersistentContactManifold@Gu@physx@@QEAAXPEBE0E@Z 000000018012d610 f   GuPersistentContactManifold.obj
 0001:0012c660       ?drawManifold@PersistentContactManifold@Gu@physx@@QEAAXAEAVRenderOutput@Cm@3@AEBVPsTransformV@aos@shdfnd@3@1@Z 000000018012d660 f   GuPersistentContactManifold.obj
 0001:0012c6e0       ?drawManifold@PersistentContactManifold@Gu@physx@@QEAAXAEAVRenderOutput@Cm@3@AEBVPsTransformV@aos@shdfnd@3@1AEBT__m128@@@Z 000000018012d6e0 f   GuPersistentContactManifold.obj
 0001:0012c780       ?drawManifold@PersistentContactManifold@Gu@physx@@QEAAXAEBVPersistentContact@23@AEAVRenderOutput@Cm@3@AEBVPsTransformV@aos@shdfnd@3@2@Z 000000018012d780 f   GuPersistentContactManifold.obj
 0001:0012c7b0       ?drawPoint@PersistentContactManifold@Gu@physx@@SAXAEAVRenderOutput@Cm@3@AEBT__m128@@MI@Z 000000018012d7b0 f   GuPersistentContactManifold.obj
 0001:0012c990       ?drawLine@PersistentContactManifold@Gu@physx@@SAXAEAVRenderOutput@Cm@3@AEBT__m128@@1I@Z 000000018012d990 f   GuPersistentContactManifold.obj
 0001:0012ca50       ?drawTriangle@PersistentContactManifold@Gu@physx@@SAXAEAVRenderOutput@Cm@3@AEBT__m128@@11I@Z 000000018012da50 f   GuPersistentContactManifold.obj
 0001:0012cb40       ?drawPolygon@PersistentContactManifold@Gu@physx@@SAXAEAVRenderOutput@Cm@3@AEBVPsTransformV@aos@shdfnd@3@PEAT__m128@@II@Z 000000018012db40 f   GuPersistentContactManifold.obj
 0001:0012cdc0       ?drawPolygon@PersistentContactManifold@Gu@physx@@SAXAEAVRenderOutput@Cm@3@AEBVPsMatTransformV@aos@shdfnd@3@PEAT__m128@@II@Z 000000018012ddc0 f   GuPersistentContactManifold.obj
 0001:0012cf80       ?reduceBatchContactsConvex@SinglePersistentContactManifold@Gu@physx@@QEAA?AT__m128@@PEBVMeshPersistentContact@23@IAEAUPCMContactPatch@23@@Z 000000018012df80 f   GuPersistentContactManifold.obj
 0001:0012d580       ?reduceBatchContactsSphere@SinglePersistentContactManifold@Gu@physx@@QEAA?AT__m128@@PEBVMeshPersistentContact@23@IAEAUPCMContactPatch@23@@Z 000000018012e580 f   GuPersistentContactManifold.obj
 0001:0012d640       ?reduceBatchContactsCapsule@SinglePersistentContactManifold@Gu@physx@@QEAA?AT__m128@@PEBVMeshPersistentContact@23@IAEAUPCMContactPatch@23@@Z 000000018012e640 f   GuPersistentContactManifold.obj
 0001:0012d8d0       ?addBatchManifoldContactsConvex@SinglePersistentContactManifold@Gu@physx@@QEAA?AT__m128@@PEBVMeshPersistentContact@23@IAEAUPCMContactPatch@23@AEBT4@@Z 000000018012e8d0 f   GuPersistentContactManifold.obj
 0001:0012d9a0       ?addBatchManifoldContactsSphere@SinglePersistentContactManifold@Gu@physx@@QEAA?AT__m128@@PEBVMeshPersistentContact@23@IAEAUPCMContactPatch@23@AEBT4@@Z 000000018012e9a0 f   GuPersistentContactManifold.obj
 0001:0012da70       ?addBatchManifoldContactsCapsule@SinglePersistentContactManifold@Gu@physx@@QEAA?AT__m128@@PEBVMeshPersistentContact@23@IAEAUPCMContactPatch@23@AEBT4@@Z 000000018012ea70 f   GuPersistentContactManifold.obj
 0001:0012db40       ?reduceContacts@SinglePersistentContactManifold@Gu@physx@@SAIPEAVMeshPersistentContact@23@I@Z 000000018012eb40 f   GuPersistentContactManifold.obj
 0001:0012e050       ?refreshContactPoints@SinglePersistentContactManifold@Gu@physx@@QEAA?AT__m128@@AEBVPsMatTransformV@aos@shdfnd@3@AEBT4@1@Z 000000018012f050 f   GuPersistentContactManifold.obj
 0001:0012e1a0       ?drawManifold@SinglePersistentContactManifold@Gu@physx@@QEAAXAEAVRenderOutput@Cm@3@AEBVPsTransformV@aos@shdfnd@3@1@Z 000000018012f1a0 f   GuPersistentContactManifold.obj
 0001:0012e230       ?addManifoldContactPoints@MultiplePersistentContactManifold@Gu@physx@@QEAAXPEAVMeshPersistentContact@23@IPEAPEAUPCMContactPatch@23@IAEBT__m128@@2E@Z 000000018012f230 f   GuPersistentContactManifold.obj
 0001:0012e650       ?addManifoldContactsToContactBuffer@MultiplePersistentContactManifold@Gu@physx@@QEAA_NAEAVContactBuffer@23@AEBVPsTransformV@aos@shdfnd@3@@Z 000000018012f650 f   GuPersistentContactManifold.obj
 0001:0012e8c0       ?addManifoldContactsToContactBuffer@MultiplePersistentContactManifold@Gu@physx@@QEAA_NAEAVContactBuffer@23@AEBVPsTransformV@aos@shdfnd@3@1AEBT__m128@@@Z 000000018012f8c0 f   GuPersistentContactManifold.obj
 0001:0012eb80       ?drawManifold@MultiplePersistentContactManifold@Gu@physx@@QEAAXAEAVRenderOutput@Cm@3@AEBVPsTransformV@aos@shdfnd@3@1@Z 000000018012fb80 f   GuPersistentContactManifold.obj
 0001:0012ec40       ?fromBuffer@MultiplePersistentContactManifold@Gu@physx@@QEAAXPEIAE@Z 000000018012fc40 f   GuPersistentContactManifold.obj
 0001:0012ed90       ?drawLine@MultiplePersistentContactManifold@Gu@physx@@SAXAEAVRenderOutput@Cm@3@AEBT__m128@@1I@Z 000000018012fd90 f   GuPersistentContactManifold.obj
 0001:0012ee50       ?drawLine@MultiplePersistentContactManifold@Gu@physx@@SAXAEAVRenderOutput@Cm@3@VPxVec3@3@1I@Z 000000018012fe50 f   GuPersistentContactManifold.obj
 0001:0012ef10       ?drawPoint@MultiplePersistentContactManifold@Gu@physx@@SAXAEAVRenderOutput@Cm@3@AEBT__m128@@MI@Z 000000018012ff10 f   GuPersistentContactManifold.obj
 0001:0012f0f0       ?drawPolygon@MultiplePersistentContactManifold@Gu@physx@@SAXAEAVRenderOutput@Cm@3@AEBVPsTransformV@aos@shdfnd@3@PEAT__m128@@II@Z 00000001801300f0 f   GuPersistentContactManifold.obj
 0001:0012f370       ?addManifoldPoint@Gu@physx@@YAXPEAVPersistentContact@12@AEAVPersistentContactManifold@12@AEAUGjkOutput@12@AEBVPsMatTransformV@aos@shdfnd@2@T__m128@@@Z 0000000180130370 f   GuPersistentContactManifold.obj
 0001:00130820       ?sweepBoxBox@Gu@physx@@YA_NAEBVBox@12@0AEBVPxVec3@2@MV?$PxFlags@W4Enum@PxHitFlag@physx@@G@2@AEAUPxSweepHit@2@@Z 0000000180131820 f   GuSweepBoxBox.obj
 0001:00131e20       ?sweepBoxSphere@Gu@physx@@YA_NAEBVBox@12@MAEBVPxVec3@2@1MAEAMAEAV42@V?$PxFlags@W4Enum@PxHitFlag@physx@@G@2@@Z 0000000180132e20 f   GuSweepBoxSphere.obj
 0001:001328c0       ?sweepBoxTriangle@Gu@physx@@YA_NAEBVPxTriangle@2@AEBVPxBounds3@2@AEBVPxVec3@2@2AEAV52@3AEAM_N@Z 00000001801338c0 f   GuSweepBoxTriangle_FeatureBased.obj
 0001:00134100       ?triBoxSweepTestBoxSpace@Gu@physx@@YAHAEBVPxTriangle@2@AEBVPxVec3@2@11MAEAM_N@Z 0000000180135100 f   GuSweepBoxTriangle_SAT.obj
 0001:00134a40       ?sweepCapsuleBox@Gu@physx@@YA_NAEBVCapsule@12@AEBVPxTransform@2@AEBVPxVec3@2@2MAEAV52@AEAM3V?$PxFlags@W4Enum@PxHitFlag@physx@@G@2@@Z 0000000180135a40 f   GuSweepCapsuleBox.obj
 0001:00134db0       ??0PxTriangle@physx@@QEAA@XZ 0000000180135db0 f i GuSweepCapsuleBox.obj
 0001:00134dc0       ??1PxTriangle@physx@@QEAA@XZ 0000000180135dc0 f i GuSweepCapsuleBox.obj
 0001:00135da0       ?sweepCapsuleCapsule@Gu@physx@@YA_NAEBVCapsule@12@0AEBVPxVec3@2@MAEAMAEAV42@3IAEAG@Z 0000000180136da0 f   GuSweepCapsuleCapsule.obj
 0001:00136b70       ??0Capsule@Gu@physx@@QEAA@XZ 0000000180137b70 f i GuSweepCapsuleCapsule.obj
 0001:00136b80       ??1Capsule@Gu@physx@@QEAA@XZ 0000000180137b80 f i GuSweepCapsuleCapsule.obj
 0001:00136b90       ?distancePointSegmentSquared@Gu@physx@@YAMAEBVSegment@12@AEBVPxVec3@2@PEAM@Z 0000000180137b90 f i GuSweepCapsuleCapsule.obj
 0001:00136f10       ?sweepCapsuleTriangles_Precise@Gu@physx@@YA_NIPEIBVPxTriangle@2@AEBVCapsule@12@AEBVPxVec3@2@MPEIBIAEAUPxSweepHit@2@AEAV52@V?$PxFlags@W4Enum@PxHitFlag@physx@@G@2@_NPEBVBoxPadded@12@@Z 0000000180137f10 f   GuSweepCapsuleTriangle.obj
 0001:00138fa0       ?sweepSphereCapsule@Gu@physx@@YA_NAEBVSphere@12@AEBVCapsule@12@AEBVPxVec3@2@MAEAMAEAV52@4V?$PxFlags@W4Enum@PxHitFlag@physx@@G@2@@Z 0000000180139fa0 f   GuSweepSphereCapsule.obj
 0001:00139640       ?sweepSphereSphere@Gu@physx@@YA_NAEBVPxVec3@2@M0M0AEAMAEAV32@@Z 000000018013a640 f   GuSweepSphereSphere.obj
 0001:001398d0       ?sweepSphereVSTri@Gu@physx@@YA_NPEIBVPxVec3@2@AEBV32@1M1AEAMAEA_N_N@Z 000000018013a8d0 f   GuSweepSphereTriangle.obj
 0001:0013a7c0       ?sweepSphereVSQuad@Gu@physx@@YA_NPEIBVPxVec3@2@AEBV32@1M1AEAM@Z 000000018013b7c0 f   GuSweepSphereTriangle.obj
 0001:0013bc50       ?sweepSphereTriangles@Gu@physx@@YA_NIPEIBVPxTriangle@2@AEBVPxVec3@2@M1MPEIBIAEAUPxSweepHit@2@AEAV42@_N555@Z 000000018013cc50 f   GuSweepSphereTriangle.obj
 0001:0013c500       ?computeSphereTriImpactData@Gu@physx@@YAXAEAVPxVec3@2@0AEBV32@1MAEBVPxTriangle@2@@Z 000000018013d500 f   GuSweepTriangleUtils.obj
 0001:0013c7a0       ?computeBoxTriImpactData@Gu@physx@@YAXAEAVPxVec3@2@0AEBV32@1AEBVPxTriangle@2@M@Z 000000018013d7a0 f   GuSweepTriangleUtils.obj
 0001:0013ca30       ?computeEdgeEdgeNormal@Gu@physx@@YAXAEAVPxVec3@2@AEBV32@1111M@Z 000000018013da30 f   GuSweepTriangleUtils.obj
 0001:0013ccf0       ??$gjk@U?$LocalConvex@VTriangleV@Gu@physx@@@Gu@physx@@U?$LocalConvex@VBoxV@Gu@physx@@@23@@Gu@physx@@YA?AW4GjkStatus@01@AEBU?$LocalConvex@VTriangleV@Gu@physx@@@01@AEBU?$LocalConvex@VBoxV@Gu@physx@@@01@AEBT__m128@@2AEAT5@333@Z 000000018013dcf0 f i GuSweepTriangleUtils.obj
 0001:0013dc1c       __imp_load_PxGetFoundation 000000018013ec1c f   PhysXFoundation_64:PhysXFoundation_64.dll
 0001:0013dc28       PxGetFoundation            000000018013ec28 f   PhysXFoundation_64:PhysXFoundation_64.dll
 0001:0013dc2e       __tailMerge_physxfoundation_64_dll 000000018013ec2e     PhysXFoundation_64:PhysXFoundation_64.dll
 0001:0013dca7       __imp_load_?getAllocator@shdfnd@physx@@YAAEAVPxAllocatorCallback@2@XZ 000000018013eca7 f   PhysXFoundation_64:PhysXFoundation_64.dll
 0001:0013dcb3       ?getAllocator@shdfnd@physx@@YAAEAVPxAllocatorCallback@2@XZ 000000018013ecb3 f   PhysXFoundation_64:PhysXFoundation_64.dll
 0001:0013dcb9       __imp_load_?getInstance@Foundation@shdfnd@physx@@SAAEAV123@XZ 000000018013ecb9 f   PhysXFoundation_64:PhysXFoundation_64.dll
 0001:0013dcc5       ?getInstance@Foundation@shdfnd@physx@@SAAEAV123@XZ 000000018013ecc5 f   PhysXFoundation_64:PhysXFoundation_64.dll
 0001:0013dccb       __imp_load_?error@Foundation@shdfnd@physx@@QEAAXW4Enum@PxErrorCode@3@PEBDH1ZZ 000000018013eccb f   PhysXFoundation_64:PhysXFoundation_64.dll
 0001:0013dcd7       ?error@Foundation@shdfnd@physx@@QEAAXW4Enum@PxErrorCode@3@PEBDH1ZZ 000000018013ecd7 f   PhysXFoundation_64:PhysXFoundation_64.dll
 0001:0013dcdd       __imp_load_?PxShortestRotation@physx@@YA?AVPxQuat@1@AEBVPxVec3@1@0@Z 000000018013ecdd f   PhysXFoundation_64:PhysXFoundation_64.dll
 0001:0013dce9       ?PxShortestRotation@physx@@YA?AVPxQuat@1@AEBVPxVec3@1@0@Z 000000018013ece9 f   PhysXFoundation_64:PhysXFoundation_64.dll
 0001:0013dcef       __imp_load_?vsnprintf@shdfnd@physx@@YAHPEAD_KPEBD0@Z 000000018013ecef f   PhysXFoundation_64:PhysXFoundation_64.dll
 0001:0013dcfb       ?vsnprintf@shdfnd@physx@@YAHPEAD_KPEBD0@Z 000000018013ecfb f   PhysXFoundation_64:PhysXFoundation_64.dll
 0001:0013dd01       __imp_load_??0MutexImpl@shdfnd@physx@@QEAA@XZ 000000018013ed01 f   PhysXFoundation_64:PhysXFoundation_64.dll
 0001:0013dd0d       ??0MutexImpl@shdfnd@physx@@QEAA@XZ 000000018013ed0d f   PhysXFoundation_64:PhysXFoundation_64.dll
 0001:0013dd13       __imp_load_??1MutexImpl@shdfnd@physx@@QEAA@XZ 000000018013ed13 f   PhysXFoundation_64:PhysXFoundation_64.dll
 0001:0013dd1f       ??1MutexImpl@shdfnd@physx@@QEAA@XZ 000000018013ed1f f   PhysXFoundation_64:PhysXFoundation_64.dll
 0001:0013dd25       __imp_load_?lock@MutexImpl@shdfnd@physx@@QEAAXXZ 000000018013ed25 f   PhysXFoundation_64:PhysXFoundation_64.dll
 0001:0013dd31       ?lock@MutexImpl@shdfnd@physx@@QEAAXXZ 000000018013ed31 f   PhysXFoundation_64:PhysXFoundation_64.dll
 0001:0013dd37       __imp_load_?unlock@MutexImpl@shdfnd@physx@@QEAAXXZ 000000018013ed37 f   PhysXFoundation_64:PhysXFoundation_64.dll
 0001:0013dd43       ?unlock@MutexImpl@shdfnd@physx@@QEAAXXZ 000000018013ed43 f   PhysXFoundation_64:PhysXFoundation_64.dll
 0001:0013dd49       __imp_load_?getSize@MutexImpl@shdfnd@physx@@SAIXZ 000000018013ed49 f   PhysXFoundation_64:PhysXFoundation_64.dll
 0001:0013dd55       ?getSize@MutexImpl@shdfnd@physx@@SAIXZ 000000018013ed55 f   PhysXFoundation_64:PhysXFoundation_64.dll
 0001:0013dd5b       __imp_load_?atomicDecrement@shdfnd@physx@@YAHPECH@Z 000000018013ed5b f   PhysXFoundation_64:PhysXFoundation_64.dll
 0001:0013dd67       ?atomicDecrement@shdfnd@physx@@YAHPECH@Z 000000018013ed67 f   PhysXFoundation_64:PhysXFoundation_64.dll
 0001:0013dd6d       __imp_load_?optimizeBoundingBox@shdfnd@physx@@YA?AVPxVec3@2@AEAVPxMat33@2@@Z 000000018013ed6d f   PhysXFoundation_64:PhysXFoundation_64.dll
 0001:0013dd79       ?optimizeBoundingBox@shdfnd@physx@@YA?AVPxVec3@2@AEAVPxMat33@2@@Z 000000018013ed79 f   PhysXFoundation_64:PhysXFoundation_64.dll
 0001:0013dd7f       __imp_load_?allocate@TempAllocator@shdfnd@physx@@QEAAPEAX_KPEBDH@Z 000000018013ed7f f   PhysXFoundation_64:PhysXFoundation_64.dll
 0001:0013dd8b       ?allocate@TempAllocator@shdfnd@physx@@QEAAPEAX_KPEBDH@Z 000000018013ed8b f   PhysXFoundation_64:PhysXFoundation_64.dll
 0001:0013dd91       __imp_load_?deallocate@TempAllocator@shdfnd@physx@@QEAAXPEAX@Z 000000018013ed91 f   PhysXFoundation_64:PhysXFoundation_64.dll
 0001:0013dd9d       ?deallocate@TempAllocator@shdfnd@physx@@QEAAXPEAX@Z 000000018013ed9d f   PhysXFoundation_64:PhysXFoundation_64.dll
 0001:0013dda3       __imp_load_?atomicIncrement@shdfnd@physx@@YAHPECH@Z 000000018013eda3 f   PhysXFoundation_64:PhysXFoundation_64.dll
 0001:0013ddaf       ?atomicIncrement@shdfnd@physx@@YAHPECH@Z 000000018013edaf f   PhysXFoundation_64:PhysXFoundation_64.dll
 0001:0013ddb5       FreeLibrary                000000018013edb5 f   kernel32:KERNEL32.dll
 0001:0013ddbb       GetProcAddress             000000018013edbb f   kernel32:KERNEL32.dll
 0001:0013ddc1       LoadLibraryA               000000018013edc1 f   kernel32:KERNEL32.dll
 0001:0013ddc8       ??$PFromRva@PEAP6A_JXZ@@YAPEAP6A_JXZK@Z 000000018013edc8 f i Delayimp:delayhlp.obj
 0001:0013ddd8       ??$PFromRva@PEAPEAUHINSTANCE__@@@@YAPEAPEAUHINSTANCE__@@K@Z 000000018013edd8 f i Delayimp:delayhlp.obj
 0001:0013dde8       ??$PFromRva@PEAU_IMAGE_IMPORT_BY_NAME@@@@YAPEAU_IMAGE_IMPORT_BY_NAME@@K@Z 000000018013ede8 f i Delayimp:delayhlp.obj
 0001:0013ddf8       ??$PFromRva@PEAU_IMAGE_THUNK_DATA64@@@@YAPEAU_IMAGE_THUNK_DATA64@@K@Z 000000018013edf8 f i Delayimp:delayhlp.obj
 0001:0013de08       ??$PFromRva@PEBD@@YAPEBDK@Z 000000018013ee08 f i Delayimp:delayhlp.obj
 0001:0013de18       ??$PFromRva@PEBUImgDelayDescr@@@@YAPEBUImgDelayDescr@@K@Z 000000018013ee18 f i Delayimp:delayhlp.obj
 0001:0013de28       ??$PFromRva@PEBU_IMAGE_THUNK_DATA64@@@@YAPEBU_IMAGE_THUNK_DATA64@@K@Z 000000018013ee28 f i Delayimp:delayhlp.obj
 0001:0013de38       ?CountOfImports@@YAIPEBU_IMAGE_THUNK_DATA64@@@Z 000000018013ee38 f i Delayimp:delayhlp.obj
 0001:0013de4c       ?DloadAcquireSectionWriteAccess@@YAXXZ 000000018013ee4c f i Delayimp:delayhlp.obj
 0001:0013def8       ?DloadGetSRWLockFunctionPointers@@YAEXZ 000000018013eef8 f i Delayimp:delayhlp.obj
 0001:0013df94       ?DloadLock@@YAXXZ          000000018013ef94 f i Delayimp:delayhlp.obj
 0001:0013dfdc       ?DloadMakePermanentImageCommit@@YAXPEAX_K@Z 000000018013efdc f i Delayimp:delayhlp.obj
 0001:0013e074       ?DloadObtainSection@@YAPEAXPEAK0@Z 000000018013f074 f i Delayimp:delayhlp.obj
 0001:0013e110       ?DloadProtectSection@@YAXKPEAK@Z 000000018013f110 f i Delayimp:delayhlp.obj
 0001:0013e1a0       ?DloadReleaseSectionWriteAccess@@YAXXZ 000000018013f1a0 f i Delayimp:delayhlp.obj
 0001:0013e234       ?DloadUnlock@@YAXXZ        000000018013f234 f i Delayimp:delayhlp.obj
 0001:0013e274       ?IndexFromPImgThunkData@@YAIPEBU_IMAGE_THUNK_DATA64@@0@Z 000000018013f274 f i Delayimp:delayhlp.obj
 0001:0013e3bc       HRESULT_FROM_WIN32         000000018013f3bc f i Delayimp:delayhlp.obj
 0001:0013e3cc       ReadAcquire64              000000018013f3cc f i Delayimp:delayhlp.obj
 0001:0013e3d0       ReadPointerAcquire         000000018013f3d0 f i Delayimp:delayhlp.obj
 0001:0013e3d4       WritePointerRelease        000000018013f3d4 f i Delayimp:delayhlp.obj
 0001:0013e3d8       WriteRelease64             000000018013f3d8 f i Delayimp:delayhlp.obj
 0001:0013e3dc       __FUnloadDelayLoadedDLL2   000000018013f3dc f   Delayimp:delayhlp.obj
 0001:0013e498       __HrLoadAllImportsForDll   000000018013f498 f   Delayimp:delayhlp.obj
 0001:0013e50c       __delayLoadHelper2         000000018013f50c f   Delayimp:delayhlp.obj
 0001:0013e7e0       ??3@YAXPEAX_K@Z            000000018013f7e0 f   LIBCMT:delete_scalar_size.obj
 0001:0013e7e8       ??_V@YAXPEAX_K@Z           000000018013f7e8 f   LIBCMT:delete_array_size.obj
 0001:0013e7f0       ??1type_info@@UEAA@XZ      000000018013f7f0 f   LIBCMT:std_type_info_static.obj
 0001:0013e7fc       ??_Gtype_info@@UEAAPEAXI@Z 000000018013f7fc f i LIBCMT:std_type_info_static.obj
 0001:0013e7fc       ??_Etype_info@@UEAAPEAXI@Z 000000018013f7fc f i LIBCMT:std_type_info_static.obj
 0001:0013e828       ?__scrt_initialize_type_info@@YAXXZ 000000018013f828 f   LIBCMT:tncleanup.obj
 0001:0013e838       ?__scrt_uninitialize_type_info@@YAXXZ 000000018013f838 f   LIBCMT:tncleanup.obj
 0001:0013e860       __chkstk                   000000018013f860 f   LIBCMT:chkstk.obj
 0001:0013e860       _alloca_probe              000000018013f860 f   LIBCMT:chkstk.obj
 0001:0013e8b0       __vdecl_sinf4              000000018013f8b0 f   LIBCMT:svml_ssinf4_dispatch.obj
 0001:0013e8d0       __libm_sse2_sincosf_       000000018013f8d0 f   LIBCMT:svml_ssinf4_dispatch.obj
 0001:0013e913       __libm_sse2_sincosf4_      000000018013f913 f   LIBCMT:svml_ssinf4_dispatch.obj
 0001:0013e920       ??3@YAXPEAX@Z              000000018013f920 f   LIBCMT:delete_scalar.obj
 0001:0013e928       ??_V@YAXPEAX@Z             000000018013f928 f   LIBCMT:delete_array.obj
 0001:0013ec6c       _CRT_INIT                  000000018013fc6c f   LIBCMT:dll_dllmain.obj
 0001:0013ec74       _DllMainCRTStartup         000000018013fc74 f   LIBCMT:dll_dllmain.obj
 0001:0013ecb4       _guard_check_icall_nop     000000018013fcb4 f i LIBCMT:guard_support.obj
 0001:0013ecb8       ReadNoFence64              000000018013fcb8 f i LIBCMT:guard_support.obj
 0001:0013ecbc       ReadPointerNoFence         000000018013fcbc f i LIBCMT:guard_support.obj
 0001:0013ecc0       __castguard_check_failure_debugbreak 000000018013fcc0 f i LIBCMT:guard_support.obj
 0001:0013ecdc       __castguard_check_failure_fastfail 000000018013fcdc f i LIBCMT:guard_support.obj
 0001:0013ed00       __castguard_check_failure_nop 000000018013fd00 f i LIBCMT:guard_support.obj
 0001:0013ed04       __castguard_check_failure_os_handled 000000018013fd04 f i LIBCMT:guard_support.obj
 0001:0013ed64       __castguard_slow_path_check_debugbreak 000000018013fd64 f i LIBCMT:guard_support.obj
 0001:0013ed98       __castguard_slow_path_check_fastfail 000000018013fd98 f i LIBCMT:guard_support.obj
 0001:0013edd4       __castguard_slow_path_check_nop 000000018013fdd4 f i LIBCMT:guard_support.obj
 0001:0013edd8       __castguard_slow_path_check_os_handled 000000018013fdd8 f i LIBCMT:guard_support.obj
 0001:0013ee4c       _guard_icall_checks_enforced 000000018013fe4c f i LIBCMT:guard_support.obj
 0001:0013ee64       _guard_rf_checks_enforced  000000018013fe64 f i LIBCMT:guard_support.obj
 0001:0013ee68       __isa_available_init       000000018013fe68 f   LIBCMT:cpu_disp.obj
 0001:0013f010       __sse2_sinf4@@16           0000000180140010 f   LIBCMT:svml_ssinf4_sse2.obj
 0001:0013f950       __sse4_sinf4@@16           0000000180140950 f   LIBCMT:svml_ssinf4_sse4.obj
 0001:00140130       __security_init_cookie     0000000180141130 f   LIBCMT:gs_support.obj
 0001:001401dc       DllMain                    00000001801411dc f   LIBCMT:dll_dllmain_stub.obj
 0001:001401e4       __local_stdio_printf_options 00000001801411e4 f i LIBCMT:default_local_stdio_options.obj
 0001:001401ec       __local_stdio_scanf_options 00000001801411ec f i LIBCMT:default_local_stdio_options.obj
 0001:001401f4       __scrt_initialize_default_local_stdio_options 00000001801411f4 f   LIBCMT:default_local_stdio_options.obj
 0001:00140210       ?configure_argv@__scrt_narrow_argv_policy@@SAHXZ 0000000180141210 f i LIBCMT:utility.obj
 0001:00140270       ?initialize_environment@__scrt_narrow_environment_policy@@SAHXZ 0000000180141270 f i LIBCMT:utility.obj
 0001:001402a8       NtCurrentTeb               00000001801412a8 f i LIBCMT:utility.obj
 0001:001402b4       __scrt_acquire_startup_lock 00000001801412b4 f   LIBCMT:utility.obj
 0001:001402f0       __scrt_dllmain_after_initialize_c 00000001801412f0 f   LIBCMT:utility.obj
 0001:00140324       __scrt_dllmain_before_initialize_c 0000000180141324 f   LIBCMT:utility.obj
 0001:0014033c       __scrt_dllmain_crt_thread_attach 000000018014133c f   LIBCMT:utility.obj
 0001:00140364       __scrt_dllmain_crt_thread_detach 0000000180141364 f   LIBCMT:utility.obj
 0001:0014037c       __scrt_dllmain_exception_filter 000000018014137c f   LIBCMT:utility.obj
 0001:001403dc       __scrt_dllmain_uninitialize_c 00000001801413dc f   LIBCMT:utility.obj
 0001:0014040c       __scrt_dllmain_uninitialize_critical 000000018014140c f   LIBCMT:utility.obj
 0001:00140420       __scrt_initialize_crt      0000000180141420 f   LIBCMT:utility.obj
 0001:0014046c       __scrt_initialize_onexit_tables 000000018014146c f   LIBCMT:utility.obj
 0001:001404f8       __scrt_is_nonwritable_in_current_image 00000001801414f8 f   LIBCMT:utility.obj
 0001:00140590       __scrt_release_startup_lock 0000000180141590 f   LIBCMT:utility.obj
 0001:001405b4       __scrt_uninitialize_crt    00000001801415b4 f   LIBCMT:utility.obj
 0001:001405e0       _onexit                    00000001801415e0 f   LIBCMT:utility.obj
 0001:0014061c       at_quick_exit              000000018014161c f   LIBCMT:utility.obj
 0001:0014063c       atexit                     000000018014163c f   LIBCMT:utility.obj
 0001:00140654       __scrt_get_dyn_tls_init_callback 0000000180141654 f   LIBCMT:dyn_tls_init.obj
 0001:0014065c       __crt_debugger_hook        000000018014165c f   LIBCMT:utility_desktop.obj
 0001:00140664       __scrt_fastfail            0000000180141664 f   LIBCMT:utility_desktop.obj
 0001:001407b0       __scrt_get_show_window_mode 00000001801417b0 f   LIBCMT:utility_desktop.obj
 0001:001407ec       __scrt_initialize_mta      00000001801417ec f   LIBCMT:utility_desktop.obj
 0001:001407f4       __scrt_initialize_winrt    00000001801417f4 f   LIBCMT:utility_desktop.obj
 0001:001407f8       __scrt_is_managed_app      00000001801417f8 f   LIBCMT:utility_desktop.obj
 0001:0014084c       __scrt_set_unhandled_exception_filter 000000018014184c f   LIBCMT:utility_desktop.obj
 0001:0014085c       __scrt_stub_for_initialize_mta 000000018014185c f   LIBCMT:utility_desktop.obj
 0001:0014085c       __scrt_exe_initialize_mta  000000018014185c f   LIBCMT:utility_desktop.obj
 0001:00140860       __scrt_unhandled_exception_filter 0000000180141860 f   LIBCMT:utility_desktop.obj
 0001:001408bc       _RTC_Initialize            00000001801418bc f   LIBCMT:initsect.obj
 0001:001408f8       _RTC_Terminate             00000001801418f8 f   LIBCMT:initsect.obj
 0001:00140940       __common_ssin_cout_rare    0000000180141940 f   LIBCMT:svml_s_sin_cout.obj
 0001:001409b0       _get_startup_argv_mode     00000001801419b0 f   LIBCMT:argv_mode.obj
 0001:001409b8       __scrt_is_ucrt_dll_in_use  00000001801419b8 f   LIBCMT:ucrt_detection.obj
 0001:001409c4       ??$__crt_interlocked_exchange_pointer@$$A6AXXZP6AXXZ@@YAP6AXXZPEDS6AXXZQ6AXXZ@Z 00000001801419c4 f i libvcruntime:purevirt.obj
 0001:001409cc       ??$__crt_interlocked_read_pointer@$$A6AXXZ@@YAP6AXXZPEDS6AXXZ@Z 00000001801419cc f i libvcruntime:purevirt.obj
 0001:001409d4       ?__crt_interlocked_read_64@@YA_JPED_J@Z 00000001801419d4 f i libvcruntime:purevirt.obj
 0001:001409dc       _get_purecall_handler      00000001801419dc f   libvcruntime:purevirt.obj
 0001:001409e8       _purecall                  00000001801419e8 f   libvcruntime:purevirt.obj
 0001:00140a04       _set_purecall_handler      0000000180141a04 f   libvcruntime:purevirt.obj
 0001:00140a20       ??$?RD@__crt_internal_free_policy@@QEBAXQEBD@Z 0000000180141a20 f i libvcruntime:std_type_info.obj
 0001:00140a28       ??$?RX@__crt_internal_free_policy@@QEBAXQEBX@Z 0000000180141a28 f i libvcruntime:std_type_info.obj
 0001:00140a30       ??$__crt_interlocked_compare_exchange_pointer@$$CBDPEAD$$T@@YAPEBDPEDSEBDQEAD$$T@Z 0000000180141a30 f i libvcruntime:std_type_info.obj
 0001:00140a3c       ??$__crt_interlocked_read_pointer@$$CBD@@YAPEBDPEDSEBD@Z 0000000180141a3c f i libvcruntime:std_type_info.obj
 0001:00140a44       ??0?$__crt_unique_heap_ptr@DU__crt_internal_free_policy@@@@QEAA@QEAD@Z 0000000180141a44 f i libvcruntime:std_type_info.obj
 0001:00140a4c       ??0?$__crt_unique_heap_ptr@XU__crt_internal_free_policy@@@@QEAA@QEAX@Z 0000000180141a4c f i libvcruntime:std_type_info.obj
 0001:00140a54       ??1?$__crt_unique_heap_ptr@DU__crt_internal_free_policy@@@@QEAA@XZ 0000000180141a54 f i libvcruntime:std_type_info.obj
 0001:00140a70       ??1?$__crt_unique_heap_ptr@XU__crt_internal_free_policy@@@@QEAA@XZ 0000000180141a70 f i libvcruntime:std_type_info.obj
 0001:00140a8c       ??B?$__crt_unique_heap_ptr@DU__crt_internal_free_policy@@@@QEBA_NXZ 0000000180141a8c f i libvcruntime:std_type_info.obj
 0001:00140a94       ??B?$__crt_unique_heap_ptr@XU__crt_internal_free_policy@@@@QEBA_NXZ 0000000180141a94 f i libvcruntime:std_type_info.obj
 0001:00140abc       ?detach@?$__crt_unique_heap_ptr@XU__crt_internal_free_policy@@@@QEAAPEAXXZ 0000000180141abc f i libvcruntime:std_type_info.obj
 0001:00140ac4       ?get@?$__crt_unique_heap_ptr@DU__crt_internal_free_policy@@@@QEBAPEADXZ 0000000180141ac4 f i libvcruntime:std_type_info.obj
 0001:00140ac8       ?get@?$__crt_unique_heap_ptr@XU__crt_internal_free_policy@@@@QEBAPEAXXZ 0000000180141ac8 f i libvcruntime:std_type_info.obj
 0001:00140acc       ?is_valid@?$__crt_unique_heap_ptr@DU__crt_internal_free_policy@@@@QEBA_NXZ 0000000180141acc f i libvcruntime:std_type_info.obj
 0001:00140ad4       ?is_valid@?$__crt_unique_heap_ptr@XU__crt_internal_free_policy@@@@QEBA_NXZ 0000000180141ad4 f i libvcruntime:std_type_info.obj
 0001:00140adc       ?release@?$__crt_unique_heap_ptr@DU__crt_internal_free_policy@@@@QEAAXXZ 0000000180141adc f i libvcruntime:std_type_info.obj
 0001:00140af8       ?release@?$__crt_unique_heap_ptr@XU__crt_internal_free_policy@@@@QEAAXXZ 0000000180141af8 f i libvcruntime:std_type_info.obj
 0001:00140b14       __std_type_info_compare    0000000180141b14 f   libvcruntime:std_type_info.obj
 0001:00140b3c       __std_type_info_destroy_list 0000000180141b3c f   libvcruntime:std_type_info.obj
 0001:00140b68       __std_type_info_hash       0000000180141b68 f   libvcruntime:std_type_info.obj
 0001:00140ba0       __std_type_info_name       0000000180141ba0 f   libvcruntime:std_type_info.obj
 0001:00140cd0       memcpy_repmovs             0000000180141cd0 f   libvcruntime:memcpy.obj
 0001:00140cf0       memmove                    0000000180141cf0 f   libvcruntime:memcpy.obj
 0001:00140cf0       memcpy                     0000000180141cf0 f   libvcruntime:memcpy.obj
 0001:00141380       memset_repmovs             0000000180142380 f   libvcruntime:memset.obj
 0001:001413a0       memset                     00000001801423a0 f   libvcruntime:memset.obj
 0001:00141530       strstr                     0000000180142530 f   libvcruntime:strstr.obj
 0001:0014172c       __C_specific_handler       000000018014272c f   libvcruntime:riscchandler.obj
 0001:00141938       __vcrt_initialize          0000000180142938 f   libvcruntime:initialization.obj
 0001:00141960       __vcrt_thread_attach       0000000180142960 f   libvcruntime:initialization.obj
 0001:00141974       __vcrt_thread_detach       0000000180142974 f   libvcruntime:initialization.obj
 0001:00141988       __vcrt_uninitialize        0000000180142988 f   libvcruntime:initialization.obj
 0001:001419a4       __vcrt_uninitialize_critical 00000001801429a4 f   libvcruntime:initialization.obj
 0001:001419b8       __DestructExceptionObject  00000001801429b8 f   libvcruntime:ehhelpers.obj
 0001:00141a28       ?_CallMemberFunction0@@YAXQEAX0@Z 0000000180142a28 f i libvcruntime:ehhelpers.obj
 0001:00141a84       ?raw_name@type_info@@QEBAPEBDXZ 0000000180142a84 f i libvcruntime:ehhelpers.obj
 0001:00141a8c       _IsExceptionObjectToBeDestroyed 0000000180142a8c f   libvcruntime:ehhelpers.obj
 0001:00141abc       _SetWinRTOutOfMemoryExceptionCallback 0000000180142abc f   libvcruntime:ehhelpers.obj
 0001:00141ac4       __AdjustPointer            0000000180142ac4 f   libvcruntime:ehhelpers.obj
 0001:00141ae8       __FrameUnwindFilter        0000000180142ae8 f   libvcruntime:ehhelpers.obj
 0001:00141b50       __GetPlatformExceptionInfo 0000000180142b50 f   libvcruntime:ehhelpers.obj
 0001:00141bac       __current_exception        0000000180142bac f   libvcruntime:ehhelpers.obj
 0001:00141bc0       __current_exception_context 0000000180142bc0 f   libvcruntime:ehhelpers.obj
 0001:00141bd4       __processing_throw         0000000180142bd4 f   libvcruntime:ehhelpers.obj
 0001:00141be8       __std_terminate            0000000180142be8 f   libvcruntime:ehhelpers.obj
 0001:00141bf4       _is_exception_typeof       0000000180142bf4 f   libvcruntime:ehhelpers.obj
 0001:00141c9c       ??$?0$00@DName@@QEAA@PEBDU?$StringLifeSelector@$00@@@Z 0000000180142c9c f i libvcruntime:undname.obj
 0001:00141cdc       ??$?0$00@pcharNode@@QEAA@PEBDHU?$StringLifeSelector@$00@@@Z 0000000180142cdc f i libvcruntime:undname.obj
 0001:00141cf4       ??$?0$01@DName@@QEAA@PEBDU?$StringLifeSelector@$01@@@Z 0000000180142cf4 f i libvcruntime:undname.obj
 0001:00141d34       ??$?0$01@pcharNode@@QEAA@PEBDHU?$StringLifeSelector@$01@@@Z 0000000180142d34 f i libvcruntime:undname.obj
 0001:00141da8       ??$?0$0A@@DName@@QEAA@PEBDU?$StringLifeSelector@$0A@@@@Z 0000000180142da8 f i libvcruntime:undname.obj
 0001:00141de8       ??$?0$0A@@pcharNode@@QEAA@PEBDHU?$StringLifeSelector@$0A@@@@Z 0000000180142de8 f i libvcruntime:undname.obj
 0001:00141e5c       ??$?0_K$0A@@?$optional@_K@std@@QEAA@$$QEA_K@Z 0000000180142e5c f i libvcruntime:undname.obj
 0001:00141e6c       ??$?0_K@?$_Optional_construct_base@_K@std@@QEAA@Uin_place_t@1@$$QEA_K@Z 0000000180142e6c f i libvcruntime:undname.obj
 0001:00141e7c       ??$?0_K@?$_Optional_destruct_base@_K$00@std@@QEAA@Uin_place_t@1@$$QEA_K@Z 0000000180142e7c f i libvcruntime:undname.obj
 0001:00141e8c       ??$append@VDNameNode@@@DName@@AEAAXPEBVDNameNode@@@Z 0000000180142e8c f i libvcruntime:undname.obj
 0001:00141ef0       ??$append@VDNameStatusNode@@@DName@@AEAAXPEBVDNameStatusNode@@@Z 0000000180142ef0 f i libvcruntime:undname.obj
 0001:00141f54       ??$append@VcharNode@@@DName@@AEAAXPEBVcharNode@@@Z 0000000180142f54 f i libvcruntime:undname.obj
 0001:00141fb8       ??$append@VpDNameNode@@@DName@@AEAAXPEBVpDNameNode@@@Z 0000000180142fb8 f i libvcruntime:undname.obj
 0001:0014201c       ??$append@VpcharNode@@@DName@@AEAAXPEBVpcharNode@@@Z 000000018014301c f i libvcruntime:undname.obj
 0001:00142080       ??$doPchar@$00@DName@@AEAAXPEBDH@Z 0000000180143080 f i libvcruntime:undname.obj
 0001:00142124       ??$doPchar@$01@DName@@AEAAXPEBDH@Z 0000000180143124 f i libvcruntime:undname.obj
 0001:001421bc       ??$doPchar@$0A@@DName@@AEAAXPEBDH@Z 00000001801431bc f i libvcruntime:undname.obj
 0001:00142254       ??$forward@_K@std@@YA$$QEA_KAEA_K@Z 0000000180143254 f i libvcruntime:undname.obj
 0001:00142258       ??$size@D$04@std@@YA_KAEAY04$$CBD@Z 0000000180143258 f i libvcruntime:undname.obj
 0001:00142260       ??$size@D$0EB@@std@@YA_KAEAY0EB@$$CBD@Z 0000000180143260 f i libvcruntime:undname.obj
 0001:00142268       ??0?$_Optional_construct_base@_K@std@@QEAA@XZ 0000000180143268 f i libvcruntime:undname.obj
 0001:00142270       ??0?$_Optional_destruct_base@_K$00@std@@QEAA@XZ 0000000180143270 f i libvcruntime:undname.obj
 0001:00142278       ??0?$optional@_K@std@@QEAA@XZ 0000000180143278 f i libvcruntime:undname.obj
 0001:00142280       ??0Block@_HeapManager@@QEAA@XZ 0000000180143280 f i libvcruntime:undname.obj
 0001:00142288       ??0DName@@QEAA@AEAPEBDD@Z  0000000180143288 f   libvcruntime:undname.obj
 0001:00142338       ??0DName@@QEAA@AEBUStringLiteral@@@Z 0000000180143338 f   libvcruntime:undname.obj
 0001:00142364       ??0DName@@QEAA@AEBV0@@Z    0000000180143364 f i libvcruntime:undname.obj
 0001:00142374       ??0DName@@QEAA@D@Z         0000000180143374 f   libvcruntime:undname.obj
 0001:00142394       ??0DName@@QEAA@PEAV0@@Z    0000000180143394 f   libvcruntime:undname.obj
 0001:00142418       ??0DName@@QEAA@W4DNameStatus@@@Z 0000000180143418 f   libvcruntime:undname.obj
 0001:00142448       ??0DName@@QEAA@XZ          0000000180143448 f i libvcruntime:undname.obj
 0001:00142454       ??0DName@@QEAA@_J@Z        0000000180143454 f   libvcruntime:undname.obj
 0001:001424fc       ??0DName@@QEAA@_K@Z        00000001801434fc f   libvcruntime:undname.obj
 0001:00142584       ??0DNameNode@@IEAA@XZ      0000000180143584 f i libvcruntime:undname.obj
 0001:00142594       ??0Replicator@@QEAA@XZ     0000000180143594 f i libvcruntime:undname.obj
 0001:001425a8       ??0UnDecorator@@QEAA@PEBDP6APEADJ@ZK@Z 00000001801435a8 f i libvcruntime:undname.obj
 0001:001425f8       ??0_Nontrivial_dummy_type@std@@QEAA@XZ 00000001801435f8 f i libvcruntime:undname.obj
 0001:001425fc       ??0charNode@@QEAA@D@Z      00000001801435fc f i libvcruntime:undname.obj
 0001:00142610       ??0pDNameNode@@QEAA@PEAVDName@@@Z 0000000180143610 f   libvcruntime:undname.obj
 0001:00142638       ??0pairNode@@QEAA@PEBVDNameNode@@0@Z 0000000180143638 f i libvcruntime:undname.obj
 0001:0014265c       ??2@YAPEAX_KAEAV_HeapManager@@H@Z 000000018014365c f   libvcruntime:undname.obj
 0001:00142688       ??4DName@@QEAAAEAV0@AEBUStringLiteral@@@Z 0000000180143688 f   libvcruntime:undname.obj
 0001:001426b0       ??4DName@@QEAAAEAV0@AEBV0@@Z 00000001801436b0 f   libvcruntime:undname.obj
 0001:001426c0       ??4DName@@QEAAAEAV0@D@Z    00000001801436c0 f i libvcruntime:undname.obj
 0001:001426e0       ??4DName@@QEAAAEAV0@PEAV0@@Z 00000001801436e0 f   libvcruntime:undname.obj
 0001:00142758       ??4DName@@QEAAAEAV0@W4DNameStatus@@@Z 0000000180143758 f   libvcruntime:undname.obj
 0001:00142778       ??AReplicator@@QEBA?AVDName@@H@Z 0000000180143778 f   libvcruntime:undname.obj
 0001:001427b8       ??B?$optional@_K@std@@QEBA_NXZ 00000001801437b8 f i libvcruntime:undname.obj
 0001:001427bc       ??D?$optional@_K@std@@QEGAAAEA_KXZ 00000001801437bc f i libvcruntime:undname.obj
 0001:001427c0       ??H@YA?AVDName@@AEBUStringLiteral@@AEBV0@@Z 00000001801437c0 f i libvcruntime:undname.obj
 0001:001427f8       ??H@YA?AVDName@@DAEBV0@@Z  00000001801437f8 f i libvcruntime:undname.obj
 0001:0014283c       ??H@YA?AVDName@@W4DNameStatus@@AEBV0@@Z 000000018014383c f i libvcruntime:undname.obj
 0001:00142888       ??HDName@@QEBA?AV0@AEBUStringLiteral@@@Z 0000000180143888 f   libvcruntime:undname.obj
 0001:001428b4       ??HDName@@QEBA?AV0@AEBV0@@Z 00000001801438b4 f   libvcruntime:undname.obj
 0001:001428e0       ??HDName@@QEBA?AV0@D@Z     00000001801438e0 f   libvcruntime:undname.obj
 0001:0014290c       ??HDName@@QEBA?AV0@PEAV0@@Z 000000018014390c f   libvcruntime:undname.obj
 0001:00142938       ??HDName@@QEBA?AV0@W4DNameStatus@@@Z 0000000180143938 f   libvcruntime:undname.obj
 0001:00142964       ??HStringLiteral@@QEBA?AU0@H@Z 0000000180143964 f i libvcruntime:undname.obj
 0001:0014297c       ??YDName@@QEAAAEAV0@AEBUStringLiteral@@@Z 000000018014397c f   libvcruntime:undname.obj
 0001:001429fc       ??YDName@@QEAAAEAV0@AEBV0@@Z 00000001801439fc f   libvcruntime:undname.obj
 0001:00142ab0       ??YDName@@QEAAAEAV0@D@Z    0000000180143ab0 f   libvcruntime:undname.obj
 0001:00142b1c       ??YDName@@QEAAAEAV0@PEAV0@@Z 0000000180143b1c f   libvcruntime:undname.obj
 0001:00142bb0       ??YDName@@QEAAAEAV0@W4DNameStatus@@@Z 0000000180143bb0 f   libvcruntime:undname.obj
 0001:00142c1c       ??YReplicator@@QEAAAEAV0@AEBVDName@@@Z 0000000180143c1c f   libvcruntime:undname.obj
 0001:00142c74       ??_5DName@@QEAAAEAV0@AEBV0@@Z 0000000180143c74 f   libvcruntime:undname.obj
 0001:00142c88       ??__K_l@@YA?AUStringLiteral@@PEBD_K@Z 0000000180143c88 f i libvcruntime:undname.obj
 0001:00142c94       ?Constructor@_HeapManager@@QEAAXP6APEAX_K@ZP6AXPEAX@Z@Z 0000000180143c94 f i libvcruntime:undname.obj
 0001:00142cac       ?Destructor@_HeapManager@@QEAAXXZ 0000000180143cac f i libvcruntime:undname.obj
 0001:00142d00       ?UScore@UnDecorator@@SA?AUStringLiteral@@W4Tokens@@@Z 0000000180143d00 f   libvcruntime:undname.obj
 0001:00142d4c       ?composeDeclaration@UnDecorator@@CA?AVDName@@AEBV2@@Z 0000000180143d4c f i libvcruntime:undname.obj
 0001:00143bf4       ?doAccessSpecifiers@UnDecorator@@SAHXZ 0000000180144bf4 f i libvcruntime:undname.obj
 0001:00143c04       ?doAllocationLanguage@UnDecorator@@SAHXZ 0000000180144c04 f i libvcruntime:undname.obj
 0001:00143c14       ?doAllocationModel@UnDecorator@@SAHXZ 0000000180144c14 f i libvcruntime:undname.obj
 0001:00143c24       ?doEcsu@UnDecorator@@SAHXZ 0000000180144c24 f i libvcruntime:undname.obj
 0001:00143c34       ?doEllipsis@UnDecorator@@SAHXZ 0000000180144c34 f i libvcruntime:undname.obj
 0001:00143c44       ?doFunctionReturns@UnDecorator@@SAHXZ 0000000180144c44 f i libvcruntime:undname.obj
 0001:00143c54       ?doMSKeywords@UnDecorator@@SAHXZ 0000000180144c54 f i libvcruntime:undname.obj
 0001:00143c64       ?doMemberTypes@UnDecorator@@SAHXZ 0000000180144c64 f i libvcruntime:undname.obj
 0001:00143c74       ?doNameOnly@UnDecorator@@SAHXZ 0000000180144c74 f i libvcruntime:undname.obj
 0001:00143c80       ?doNoIdentCharCheck@UnDecorator@@SAHXZ 0000000180144c80 f i libvcruntime:undname.obj
 0001:00143c8c       ?doPchar@DName@@AEAAXD@Z   0000000180144c8c f   libvcruntime:undname.obj
 0001:00143cdc       ?doPtr64@UnDecorator@@SAHXZ 0000000180144cdc f i libvcruntime:undname.obj
 0001:00143cec       ?doRestrictionSpec@UnDecorator@@SAHXZ 0000000180144cec f i libvcruntime:undname.obj
 0001:00143cfc       ?doThisTypes@UnDecorator@@SAHXZ 0000000180144cfc f i libvcruntime:undname.obj
 0001:00143d10       ?doThrowTypes@UnDecorator@@SAHXZ 0000000180144d10 f i libvcruntime:undname.obj
 0001:00143d20       ?doTypeOnly@UnDecorator@@SAHXZ 0000000180144d20 f i libvcruntime:undname.obj
 0001:00143d2c       ?doUnderScore@UnDecorator@@SAHXZ 0000000180144d2c f i libvcruntime:undname.obj
 0001:00143d38       ?getAddressOf@UnDecorator@@CA?AVDName@@XZ 0000000180144d38 f   libvcruntime:undname.obj
 0001:00143dc8       ?getArgumentList@UnDecorator@@CA?AVDName@@XZ 0000000180144dc8 f   libvcruntime:undname.obj
 0001:00143f5c       ?getArgumentTypes@UnDecorator@@CA?AVDName@@XZ 0000000180144f5c f   libvcruntime:undname.obj
 0001:001440b8       ?getArrayAccess@UnDecorator@@CA?AVDName@@XZ 00000001801450b8 f   libvcruntime:undname.obj
 0001:00144154       ?getArrayObject@UnDecorator@@CA?AVDName@@XZ 0000000180145154 f   libvcruntime:undname.obj
 0001:0014421c       ?getArrayType@UnDecorator@@CA?AVDName@@AEBV2@@Z 000000018014521c f i libvcruntime:undname.obj
 0001:00144464       ?getBasedType@UnDecorator@@CA?AVDName@@XZ 0000000180145464 f   libvcruntime:undname.obj
 0001:0014455c       ?getBasicDataType@UnDecorator@@CA?AVDName@@AEBV2@@Z 000000018014555c f   libvcruntime:undname.obj
 0001:00144b0c       ?getCHPEName@UnDecorator@@QEAAPEADPEADH@Z 0000000180145b0c f i libvcruntime:undname.obj
 0001:00144c2c       ?getCallIndex@UnDecorator@@CA?AVDName@@XZ 0000000180145c2c f i libvcruntime:undname.obj
 0001:00144c48       ?getCallingConvention@UnDecorator@@CA?AVDName@@XZ 0000000180145c48 f   libvcruntime:undname.obj
 0001:00144d88       ?getDataIndirectType@UnDecorator@@CA?AVDName@@AEBV2@W4IndirectionKind@@0H@Z 0000000180145d88 f   libvcruntime:undname.obj
 0001:00145620       ?getDataIndirectType@UnDecorator@@CA?AVDName@@XZ 0000000180146620 f i libvcruntime:undname.obj
 0001:0014565c       ?getDataType@UnDecorator@@CA?AVDName@@PEAV2@@Z 000000018014665c f   libvcruntime:undname.obj
 0001:00145770       ?getDecoratedName@UnDecorator@@CA?AVDName@@XZ 0000000180146770 f   libvcruntime:undname.obj
 0001:00145a54       ?getDimension@UnDecorator@@CA?AVDName@@_N@Z 0000000180146a54 f   libvcruntime:undname.obj
 0001:00145ba0       ?getDispatchTarget@UnDecorator@@CA?AVDName@@XZ 0000000180146ba0 f   libvcruntime:undname.obj
 0001:00145bec       ?getDisplacement@UnDecorator@@CA?AVDName@@XZ 0000000180146bec f i libvcruntime:undname.obj
 0001:00145c08       ?getECSUDataType@UnDecorator@@CA?AVDName@@XZ 0000000180146c08 f   libvcruntime:undname.obj
 0001:00145de8       ?getECSUName@UnDecorator@@CA?AVDName@@XZ 0000000180146de8 f i libvcruntime:undname.obj
 0001:00145e00       ?getEnumType@UnDecorator@@CA?AVDName@@XZ 0000000180146e00 f i libvcruntime:undname.obj
 0001:00145f30       ?getExtendedDataIndirectType@UnDecorator@@CA?AVDName@@AEAW4IndirectionKind@@AEA_NH@Z 0000000180146f30 f   libvcruntime:undname.obj
 0001:00146138       ?getExternalDataType@UnDecorator@@CA?AVDName@@AEBV2@@Z 0000000180147138 f i libvcruntime:undname.obj
 0001:001461f8       ?getFloatingPoint@UnDecorator@@CA?AVDName@@H@Z 00000001801471f8 f   libvcruntime:undname.obj
 0001:00146320       ?getFunctionIndirectType@UnDecorator@@CA?AVDName@@AEBV2@@Z 0000000180147320 f   libvcruntime:undname.obj
 0001:00146858       ?getGuardNumber@UnDecorator@@CA?AVDName@@XZ 0000000180147858 f i libvcruntime:undname.obj
 0001:00146874       ?getLastChar@DName@@QEBADXZ 0000000180147874 f i libvcruntime:undname.obj
 0001:00146890       ?getLastChar@DNameStatusNode@@UEBADXZ 0000000180147890 f i libvcruntime:undname.obj
 0001:0014689c       ?getLastChar@charNode@@UEBADXZ 000000018014789c f i libvcruntime:undname.obj
 0001:001468a0       ?getLastChar@pDNameNode@@UEBADXZ 00000001801478a0 f i libvcruntime:undname.obj
 0001:001468cc       ?getLastChar@pairNode@@UEBADXZ 00000001801478cc f i libvcruntime:undname.obj
 0001:00146904       ?getLastChar@pcharNode@@UEBADXZ 0000000180147904 f i libvcruntime:undname.obj
 0001:00146918       ?getLexicalFrame@UnDecorator@@CA?AVDName@@XZ 0000000180147918 f i libvcruntime:undname.obj
 0001:0014697c       ?getMemberAccess@UnDecorator@@CA?AVDName@@XZ 000000018014797c f   libvcruntime:undname.obj
 0001:00146a10       ?getMemoryWithBuffer@_HeapManager@@QEAAPEAX_K@Z 0000000180147a10 f   libvcruntime:undname.obj
 0001:00146aa0       ?getMemoryWithoutBuffer@_HeapManager@@QEAAPEAX_K@Z 0000000180147aa0 f   libvcruntime:undname.obj
 0001:00146ab4       ?getNoexcept@UnDecorator@@CA?AVDName@@XZ 0000000180147ab4 f   libvcruntime:undname.obj
 0001:00146b18       ?getNumberOfDimensions@UnDecorator@@CAHXZ 0000000180147b18 f   libvcruntime:undname.obj
 0001:00146b8c       ?getOperatorName@UnDecorator@@CA?AVDName@@_NPEA_N@Z 0000000180147b8c f i libvcruntime:undname.obj
 0001:00147580       ?getPointerToMember@UnDecorator@@CA?AVDName@@XZ 0000000180148580 f   libvcruntime:undname.obj
 0001:00147678       ?getPointerType@UnDecorator@@CA?AVDName@@AEBV2@0@Z 0000000180148678 f i libvcruntime:undname.obj
 0001:00147698       ?getPointerTypeArray@UnDecorator@@CA?AVDName@@AEBV2@0@Z 0000000180148698 f i libvcruntime:undname.obj
 0001:001476b4       ?getPrimaryDataType@UnDecorator@@CA?AVDName@@AEBV2@@Z 00000001801486b4 f   libvcruntime:undname.obj
 0001:00147968       ?getPtrRefDataType@UnDecorator@@CA?AVDName@@AEBV2@H@Z 0000000180148968 f   libvcruntime:undname.obj
 0001:00147b34       ?getPtrRefType@UnDecorator@@CA?AVDName@@AEBV2@0W4IndirectionKind@@@Z 0000000180148b34 f   libvcruntime:undname.obj
 0001:00147d0c       ?getReferenceType@UnDecorator@@CA?AVDName@@AEBV2@0W4IndirectionKind@@@Z 0000000180148d0c f i libvcruntime:undname.obj
 0001:00147d24       ?getRestrictionSpec@UnDecorator@@CA?AVDName@@XZ 0000000180148d24 f   libvcruntime:undname.obj
 0001:00147ef0       ?getReturnType@UnDecorator@@CA?AVDName@@PEAV2@@Z 0000000180148ef0 f   libvcruntime:undname.obj
 0001:00147f24       ?getScope@UnDecorator@@CA?AVDName@@XZ 0000000180148f24 f   libvcruntime:undname.obj
 0001:001483d8       ?getScopedName@UnDecorator@@CA?AVDName@@XZ 00000001801493d8 f   libvcruntime:undname.obj
 0001:00148514       ?getSignedDimension@UnDecorator@@CA?AVDName@@XZ 0000000180149514 f   libvcruntime:undname.obj
 0001:0014859c       ?getStorageConvention@UnDecorator@@CA?AVDName@@XZ 000000018014959c f i libvcruntime:undname.obj
 0001:001485d8       ?getString@DName@@QEBAPEADPEAD0@Z 00000001801495d8 f i libvcruntime:undname.obj
 0001:001485f4       ?getString@DName@@QEBAPEADPEADH@Z 00000001801495f4 f i libvcruntime:undname.obj
 0001:00148688       ?getString@DNameStatusNode@@UEBAPEADPEAD0@Z 0000000180149688 f i libvcruntime:undname.obj
 0001:001486d0       ?getString@charNode@@UEBAPEADPEAD0@Z 00000001801496d0 f i libvcruntime:undname.obj
 0001:001486e4       ?getString@pDNameNode@@UEBAPEADPEAD0@Z 00000001801496e4 f i libvcruntime:undname.obj
 0001:00148714       ?getString@pairNode@@UEBAPEADPEAD0@Z 0000000180149714 f i libvcruntime:undname.obj
 0001:00148760       ?getString@pcharNode@@UEBAPEADPEAD0@Z 0000000180149760 f i libvcruntime:undname.obj
 0001:00148798       ?getStringEncoding@UnDecorator@@CA?AVDName@@W4PrefixKind@@H@Z 0000000180149798 f   libvcruntime:undname.obj
 0001:0014887c       ?getStringHelper@@YAPEADPEADPEBD1H@Z 000000018014987c f i libvcruntime:undname.obj
 0001:001488ac       ?getStringObject@UnDecorator@@CA?AVDName@@XZ 00000001801498ac f   libvcruntime:undname.obj
 0001:00148914       ?getSymbolName@UnDecorator@@CA?AVDName@@XZ 0000000180149914 f i libvcruntime:undname.obj
 0001:00148960       ?getTemplateArgumentList@UnDecorator@@CA?AVDName@@XZ 0000000180149960 f   libvcruntime:undname.obj
 0001:00148bd4       ?getTemplateName@UnDecorator@@CA?AVDName@@_N@Z 0000000180149bd4 f   libvcruntime:undname.obj
 0001:00148e68       ?getTemplateNonTypeArgument@UnDecorator@@CA?AVDName@@XZ 0000000180149e68 f   libvcruntime:undname.obj
 0001:0014939c       ?getTemplateTypeArgument@UnDecorator@@CA?AVDName@@XZ 000000018014a39c f   libvcruntime:undname.obj
 0001:00149504       ?getThisType@UnDecorator@@CA?AVDName@@XZ 000000018014a504 f i libvcruntime:undname.obj
 0001:00149544       ?getThrowTypes@UnDecorator@@CA?AVDName@@XZ 000000018014a544 f   libvcruntime:undname.obj
 0001:00149568       ?getTypeEncoding@UnDecorator@@CAHXZ 000000018014a568 f i libvcruntime:undname.obj
 0001:001498f8       ?getUndecoratedName@UnDecorator@@QEAAPEADPEADH@Z 000000018014a8f8 f i libvcruntime:undname.obj
 0001:00149a4c       ?getUnionObject@UnDecorator@@CA?AVDName@@XZ 000000018014aa4c f   libvcruntime:undname.obj
 0001:00149b24       ?getVCallThunkType@UnDecorator@@CA?AVDName@@XZ 000000018014ab24 f i libvcruntime:undname.obj
 0001:00149b9c       ?getValue@UnDecorator@@CA?AV?$optional@_K@std@@XZ 000000018014ab9c f   libvcruntime:undname.obj
 0001:00149c10       ?getValueObject@UnDecorator@@CA?AVDName@@XZ 000000018014ac10 f   libvcruntime:undname.obj
 0001:00149d68       ?getVbTableType@UnDecorator@@CA?AVDName@@AEBV2@@Z 000000018014ad68 f i libvcruntime:undname.obj
 0001:00149d80       ?getVdispMapType@UnDecorator@@CA?AVDName@@AEBV2@@Z 000000018014ad80 f i libvcruntime:undname.obj
 0001:00149dfc       ?getVfTableType@UnDecorator@@CA?AVDName@@AEBV2@@Z 000000018014adfc f i libvcruntime:undname.obj
 0001:0014a004       ?getZName@UnDecorator@@CA?AVDName@@_N0@Z 000000018014b004 f   libvcruntime:undname.obj
 0001:0014a2ec       ?haveTemplateParameters@UnDecorator@@SAHXZ 000000018014b2ec f i libvcruntime:undname.obj
 0001:0014a2f8       ?isArray@DName@@QEBAHXZ    000000018014b2f8 f i libvcruntime:undname.obj
 0001:0014a304       ?isComArray@DName@@QEBAHXZ 000000018014b304 f i libvcruntime:undname.obj
 0001:0014a310       ?isEmpty@DName@@QEBAHXZ    000000018014b310 f i libvcruntime:undname.obj
 0001:0014a31c       ?isFull@Replicator@@QEBAHXZ 000000018014b31c f i libvcruntime:undname.obj
 0001:0014a328       ?isNoTE@DName@@QEBAHXZ     000000018014b328 f i libvcruntime:undname.obj
 0001:0014a334       ?isPinPtr@DName@@QEBAHXZ   000000018014b334 f i libvcruntime:undname.obj
 0001:0014a340       ?isPtrRef@DName@@QEBAHXZ   000000018014b340 f i libvcruntime:undname.obj
 0001:0014a34c       ?isUDC@DName@@QEBAHXZ      000000018014b34c f i libvcruntime:undname.obj
 0001:0014a364       ?isUDTThunk@DName@@QEBAHXZ 000000018014b364 f i libvcruntime:undname.obj
 0001:0014a37c       ?isVCallThunk@DName@@QEBAHXZ 000000018014b37c f i libvcruntime:undname.obj
 0001:0014a388       ?isValid@DName@@QEBAHXZ    000000018014b388 f i libvcruntime:undname.obj
 0001:0014a394       ?length@DName@@QEBAHXZ     000000018014b394 f i libvcruntime:undname.obj
 0001:0014a3ac       ?length@DNameStatusNode@@UEBAHXZ 000000018014b3ac f i libvcruntime:undname.obj
 0001:0014a3b0       ?length@charNode@@UEBAHXZ  000000018014b3b0 f i libvcruntime:undname.obj
 0001:0014a3b8       ?length@pDNameNode@@UEBAHXZ 000000018014b3b8 f i libvcruntime:undname.obj
 0001:0014a3e0       ?length@pairNode@@UEBAHXZ  000000018014b3e0 f i libvcruntime:undname.obj
 0001:0014a428       ?length@pcharNode@@UEBAHXZ 000000018014b428 f i libvcruntime:undname.obj
 0001:0014a42c       ?make@DNameStatusNode@@SAPEBV1@W4DNameStatus@@@Z 000000018014b42c f i libvcruntime:undname.obj
 0001:0014a44c       ?parseDecoratedName@UnDecorator@@CA?AVDName@@XZ 000000018014b44c f   libvcruntime:undname.obj
 0001:0014a560       ?raw_length@DNameStatusNode@@UEBAHXZ 000000018014b560 f i libvcruntime:undname.obj
 0001:0014a564       ?raw_length@charNode@@UEBAHXZ 000000018014b564 f i libvcruntime:undname.obj
 0001:0014a56c       ?raw_length@pDNameNode@@UEBAHXZ 000000018014b56c f i libvcruntime:undname.obj
 0001:0014a570       ?raw_length@pairNode@@UEBAHXZ 000000018014b570 f i libvcruntime:undname.obj
 0001:0014a574       ?raw_length@pcharNode@@UEBAHXZ 000000018014b574 f i libvcruntime:undname.obj
 0001:0014a578       ?setIsArray@DName@@QEAAXXZ 000000018014b578 f i libvcruntime:undname.obj
 0001:0014a580       ?setIsComArray@DName@@QEAAXXZ 000000018014b580 f i libvcruntime:undname.obj
 0001:0014a588       ?setIsNoTE@DName@@QEAAXXZ  000000018014b588 f i libvcruntime:undname.obj
 0001:0014a590       ?setIsPinPtr@DName@@QEAAXXZ 000000018014b590 f i libvcruntime:undname.obj
 0001:0014a598       ?setIsUDC@DName@@QEAAXXZ   000000018014b598 f i libvcruntime:undname.obj
 0001:0014a5a4       ?setIsVCallThunk@DName@@QEAAXXZ 000000018014b5a4 f i libvcruntime:undname.obj
 0001:0014a5ac       ?setPtrRef@DName@@QEAAAEAV1@XZ 000000018014b5ac f i libvcruntime:undname.obj
 0001:0014a5b8       ?status@DName@@QEBA?AW4DNameStatus@@XZ 000000018014b5b8 f i libvcruntime:undname.obj
 0001:0014a61c       __unDName                  000000018014b61c f   libvcruntime:undname.obj
 0001:0014a644       __unDNameEx                000000018014b644 f   libvcruntime:undname.obj
 0001:0014a778       _vsprintf_s_l              000000018014b778 f i libvcruntime:undname.obj
 0001:0014a7dc       sprintf_s                  000000018014b7dc f i libvcruntime:undname.obj
 0001:0014a830       unDNameGenerateCHPE        000000018014b830 f   libvcruntime:undname.obj
 0001:0014a950       _NLG_Notify                000000018014b950 f   libvcruntime:notify.obj
 0001:0014a970       __NLG_Dispatch2            000000018014b970 f   libvcruntime:notify.obj
 0001:0014a980       __NLG_Return2              000000018014b980 f   libvcruntime:notify.obj
 0001:0014a98c       __except_validate_context_record 000000018014b98c f   libvcruntime:jbcxrval.obj
 0001:0014a9c4       __except_validate_jump_buffer 000000018014b9c4 f   libvcruntime:jbcxrval.obj
 0001:0014aa04       __except_validate_jump_buffer_common 000000018014ba04 f i libvcruntime:jbcxrval.obj
 0001:0014aa60       ??$?RU__vcrt_ptd@@@__crt_internal_free_policy@@QEBAXQEBU__vcrt_ptd@@@Z 000000018014ba60 f i libvcruntime:per_thread_data.obj
 0001:0014aa68       ??0?$__crt_unique_heap_ptr@U__vcrt_ptd@@U__crt_internal_free_policy@@@@QEAA@QEAU__vcrt_ptd@@@Z 000000018014ba68 f i libvcruntime:per_thread_data.obj
 0001:0014aa8c       ??1?$__crt_unique_heap_ptr@U__vcrt_ptd@@U__crt_internal_free_policy@@@@QEAA@XZ 000000018014ba8c f i libvcruntime:per_thread_data.obj
 0001:0014aab4       ??B?$__crt_unique_heap_ptr@U__vcrt_ptd@@U__crt_internal_free_policy@@@@QEBA_NXZ 000000018014bab4 f i libvcruntime:per_thread_data.obj
 0001:0014aabc       ?detach@?$__crt_unique_heap_ptr@U__vcrt_ptd@@U__crt_internal_free_policy@@@@QEAAPEAU__vcrt_ptd@@XZ 000000018014babc f i libvcruntime:per_thread_data.obj
 0001:0014aac4       ?get@?$__crt_unique_heap_ptr@U__vcrt_ptd@@U__crt_internal_free_policy@@@@QEBAPEAU__vcrt_ptd@@XZ 000000018014bac4 f i libvcruntime:per_thread_data.obj
 0001:0014aac8       ?is_valid@?$__crt_unique_heap_ptr@U__vcrt_ptd@@U__crt_internal_free_policy@@@@QEBA_NXZ 000000018014bac8 f i libvcruntime:per_thread_data.obj
 0001:0014aad0       ?release@?$__crt_unique_heap_ptr@U__vcrt_ptd@@U__crt_internal_free_policy@@@@QEAAXXZ 000000018014bad0 f i libvcruntime:per_thread_data.obj
 0001:0014ab18       __vcrt_freefls             000000018014bb18 f   libvcruntime:per_thread_data.obj
 0001:0014ab38       __vcrt_freeptd             000000018014bb38 f   libvcruntime:per_thread_data.obj
 0001:0014ab88       __vcrt_getptd              000000018014bb88 f   libvcruntime:per_thread_data.obj
 0001:0014aba4       __vcrt_getptd_noexit       000000018014bba4 f   libvcruntime:per_thread_data.obj
 0001:0014ac64       __vcrt_getptd_noinit       000000018014bc64 f   libvcruntime:per_thread_data.obj
 0001:0014acb4       __vcrt_initialize_ptd      000000018014bcb4 f   libvcruntime:per_thread_data.obj
 0001:0014acfc       __vcrt_uninitialize_ptd    000000018014bcfc f   libvcruntime:per_thread_data.obj
 0001:0014ad20       __vcrt_initialize_locks    000000018014bd20 f   libvcruntime:locks.obj
 0001:0014ad54       __vcrt_lock                000000018014bd54 f   libvcruntime:locks.obj
 0001:0014ad70       __vcrt_uninitialize_locks  000000018014bd70 f   libvcruntime:locks.obj
 0001:0014ada8       __vcrt_unlock              000000018014bda8 f   libvcruntime:locks.obj
 0001:0014adc4       ??$?0AEAViterator@TryBlockMap4@FH4@@AEAV012@$0A@@?$pair@Viterator@TryBlockMap4@FH4@@V123@@std@@QEAA@AEAViterator@TryBlockMap4@FH4@@0@Z 000000018014bdc4 f i libvcruntime:risctrnsctrl.obj
 0001:0014add8       ??$?0AEAViterator@TryBlockMap@__FrameHandler3@@AEAV012@$0A@@?$pair@Viterator@TryBlockMap@__FrameHandler3@@V123@@std@@QEAA@AEAViterator@TryBlockMap@__FrameHandler3@@0@Z 000000018014bdd8 f i libvcruntime:risctrnsctrl.obj
 0001:0014af28       ??$_CallSETranslator@V__FrameHandler3@@@@YAHPEAUEHExceptionRecord@@PEA_KPEAU_CONTEXT@@PEAU_xDISPATCHER_CONTEXT@@PEBU_s_FuncInfo@@K1H@Z 000000018014bf28 f i libvcruntime:risctrnsctrl.obj
 0001:0014af7c       ??$_CallSETranslator@V__FrameHandler4@@@@YAHPEAUEHExceptionRecord@@PEA_KPEAU_CONTEXT@@PEAU_xDISPATCHER_CONTEXT@@PEAUFuncInfo4@FH4@@K1H@Z 000000018014bf7c f i libvcruntime:risctrnsctrl.obj
 0001:0014afd0       ??$forward@AEAViterator@TryBlockMap4@FH4@@@std@@YAAEAViterator@TryBlockMap4@FH4@@AEAV123@@Z 000000018014bfd0 f i libvcruntime:risctrnsctrl.obj
 0001:0014afd4       ??$forward@AEAViterator@TryBlockMap@__FrameHandler3@@@std@@YAAEAViterator@TryBlockMap@__FrameHandler3@@AEAV123@@Z 000000018014bfd4 f i libvcruntime:risctrnsctrl.obj
 0001:0014afd8       ??0FuncInfo4@FH4@@QEAA@XZ  000000018014bfd8 f i libvcruntime:risctrnsctrl.obj
 0001:0014afec       ??0FuncInfoHeader@FH4@@QEAA@XZ 000000018014bfec f i libvcruntime:risctrnsctrl.obj
 0001:0014aff4       ??0iterator@TryBlockMap4@FH4@@QEAA@AEAV12@I@Z 000000018014bff4 f i libvcruntime:risctrnsctrl.obj
 0001:0014b000       ??0iterator@TryBlockMap@__FrameHandler3@@QEAA@AEAV12@I@Z 000000018014c000 f i libvcruntime:risctrnsctrl.obj
 0001:0014b00c       ??4iterator@TryBlockMap4@FH4@@QEAAAEAV012@AEBV012@@Z 000000018014c00c f i libvcruntime:risctrnsctrl.obj
 0001:0014b018       ??9iterator@TryBlockMap4@FH4@@QEBA_NAEBV012@@Z 000000018014c018 f i libvcruntime:risctrnsctrl.obj
 0001:0014b024       ??Diterator@TryBlockMap4@FH4@@QEAA?AUTryBlockMapEntry4@2@XZ 000000018014c024 f i libvcruntime:risctrnsctrl.obj
 0001:0014b034       ??Eiterator@TryBlockMap4@FH4@@QEAAAEAV012@XZ 000000018014c034 f i libvcruntime:risctrnsctrl.obj
 0001:0014b0d0       ?CatchTryBlock@__FrameHandler3@@SAPEBU_s_TryBlockMapEntry@@PEBU_s_FuncInfo@@H@Z 000000018014c0d0 f   libvcruntime:risctrnsctrl.obj
 0001:0014b124       ?DecompFuncInfo@FH4@@YA_JPEAEAEAUFuncInfo4@1@_KH@Z 000000018014c124 f i libvcruntime:risctrnsctrl.obj
 0001:0014b138       ?DecompFuncInfo@FH4@@YA_JPEAEAEAUFuncInfo4@1@_KH_N@Z 000000018014c138 f i libvcruntime:risctrnsctrl.obj
 0001:0014b25c       ?DecompTryBlock@TryBlockMap4@FH4@@AEAAXXZ 000000018014c25c f i libvcruntime:risctrnsctrl.obj
 0001:0014b2f0       ?ExecutionInCatch@__FrameHandler3@@SA_NPEAU_xDISPATCHER_CONTEXT@@PEBU_s_FuncInfo@@@Z 000000018014c2f0 f   libvcruntime:risctrnsctrl.obj
 0001:0014b31c       ?ExecutionInCatch@__FrameHandler4@@SA_NPEAU_xDISPATCHER_CONTEXT@@PEAUFuncInfo4@FH4@@@Z 000000018014c31c f   libvcruntime:risctrnsctrl.obj
 0001:0014b324       ?FrameUnwindToEmptyState@__FrameHandler3@@SAXPEA_KPEAU_xDISPATCHER_CONTEXT@@PEBU_s_FuncInfo@@@Z 000000018014c324 f   libvcruntime:risctrnsctrl.obj
 0001:0014b388       ?FrameUnwindToEmptyState@__FrameHandler4@@SAXPEA_KPEAU_xDISPATCHER_CONTEXT@@PEAUFuncInfo4@FH4@@@Z 000000018014c388 f   libvcruntime:risctrnsctrl.obj
 0001:0014b3bc       ?GetEstablisherFrame@__FrameHandler3@@SAPEA_KPEA_KPEAU_xDISPATCHER_CONTEXT@@PEBU_s_FuncInfo@@0@Z 000000018014c3bc f   libvcruntime:risctrnsctrl.obj
 0001:0014b488       ?GetEstablisherFrame@__FrameHandler4@@SAPEA_KPEA_KPEAU_xDISPATCHER_CONTEXT@@PEAUFuncInfo4@FH4@@0@Z 000000018014c488 f   libvcruntime:risctrnsctrl.obj
 0001:0014b4ac       ?GetRangeOfTrysToCheck@__FrameHandler3@@SA?AU?$pair@Viterator@TryBlockMap@__FrameHandler3@@V123@@std@@AEAVTryBlockMap@1@HPEAU_xDISPATCHER_CONTEXT@@PEBU_s_FuncInfo@@H@Z 000000018014c4ac f   libvcruntime:risctrnsctrl.obj
 0001:0014b5ec       ?GetRangeOfTrysToCheck@__FrameHandler4@@SA?AU?$pair@Viterator@TryBlockMap4@FH4@@V123@@std@@AEAVTryBlockMap4@FH4@@HPEAU_xDISPATCHER_CONTEXT@@PEAUFuncInfo4@5@H@Z 000000018014c5ec f   libvcruntime:risctrnsctrl.obj
 0001:0014b754       ?ReadInt@FH4@@YAHPEAPEAE@Z 000000018014c754 f i libvcruntime:risctrnsctrl.obj
 0001:0014b764       ?ReadUnsigned@FH4@@YAIPEAPEAE@Z 000000018014c764 f i libvcruntime:risctrnsctrl.obj
 0001:0014b794       ?UnwindNestedFrames@__FrameHandler3@@SAXPEA_KPEAUEHExceptionRecord@@PEAU_CONTEXT@@0PEAXPEBU_s_FuncInfo@@HHPEBU_s_HandlerType@@PEAU_xDISPATCHER_CONTEXT@@E@Z 000000018014c794 f   libvcruntime:risctrnsctrl.obj
 0001:0014b898       ?UnwindNestedFrames@__FrameHandler4@@SAXPEA_KPEAUEHExceptionRecord@@PEAU_CONTEXT@@0PEAXPEAUFuncInfo4@FH4@@HHPEAUHandlerType4@5@PEAU_xDISPATCHER_CONTEXT@@E@Z 000000018014c898 f   libvcruntime:risctrnsctrl.obj
 0001:0014b9b8       ?begin@TryBlockMap4@FH4@@QEAA?AViterator@12@XZ 000000018014c9b8 f i libvcruntime:risctrnsctrl.obj
 0001:0014b9c4       ?end@TryBlockMap4@FH4@@QEAA?AViterator@12@XZ 000000018014c9c4 f i libvcruntime:risctrnsctrl.obj
 0001:0014b9d0       ?imageRelToByteBuffer@FH4@@YAPEAE_KH@Z 000000018014c9d0 f i libvcruntime:risctrnsctrl.obj
 0001:0014b9d8       ?incrementToSentinel@iterator@TryBlockMap4@FH4@@QEAAXXZ 000000018014c9d8 f i libvcruntime:risctrnsctrl.obj
 0001:0014b9dc       ?setBuffer@TryBlockMap4@FH4@@QEAAXViterator@12@@Z 000000018014c9dc f i libvcruntime:risctrnsctrl.obj
 0001:0014bb9c       _CreateFrameInfo           000000018014cb9c f   libvcruntime:risctrnsctrl.obj
 0001:0014bbd8       _FindAndUnlinkFrame        000000018014cbd8 f   libvcruntime:risctrnsctrl.obj
 0001:0014bc2c       _GetImageBase              000000018014cc2c f   libvcruntime:risctrnsctrl.obj
 0001:0014bc40       _GetThrowImageBase         000000018014cc40 f   libvcruntime:risctrnsctrl.obj
 0001:0014bc54       _SetImageBase              000000018014cc54 f   libvcruntime:risctrnsctrl.obj
 0001:0014bc6c       _SetThrowImageBase         000000018014cc6c f   libvcruntime:risctrnsctrl.obj
 0001:0014bc84       __CxxFrameHandler          000000018014cc84 f   libvcruntime:risctrnsctrl.obj
 0001:0014bc8c       __CxxFrameHandler2         000000018014cc8c f   libvcruntime:risctrnsctrl.obj
 0001:0014bc94       __CxxFrameHandler3         000000018014cc94 f   libvcruntime:risctrnsctrl.obj
 0001:0014bd1c       __CxxFrameHandler4         000000018014cd1c f   libvcruntime:risctrnsctrl.obj
 0001:0014bddc       ??$__crt_interlocked_exchange_pointer@UHINSTANCE__@@PEAU1@@@YAPEAUHINSTANCE__@@PEDSEAU0@QEAU0@@Z 000000018014cddc f i libvcruntime:winapi_downlevel.obj
 0001:0014bde4       ??$__crt_interlocked_exchange_pointer@UHINSTANCE__@@PEAX@@YAPEAUHINSTANCE__@@PEDSEAU0@QEAX@Z 000000018014cde4 f i libvcruntime:winapi_downlevel.obj
 0001:0014bdec       ??$__crt_interlocked_exchange_pointer@XPEAX@@YAPEAXPEDSEAXQEAX@Z 000000018014cdec f i libvcruntime:winapi_downlevel.obj
 0001:0014bdf4       ??$__crt_interlocked_read_pointer@UHINSTANCE__@@@@YAPEAUHINSTANCE__@@PEDSEAU0@@Z 000000018014cdf4 f i libvcruntime:winapi_downlevel.obj
 0001:0014bdfc       ??$__crt_interlocked_read_pointer@X@@YAPEAXPEDSEAX@Z 000000018014cdfc f i libvcruntime:winapi_downlevel.obj
 0001:0014c33c       __vcrt_FlsAlloc            000000018014d33c f   libvcruntime:winapi_downlevel.obj
 0001:0014c384       __vcrt_FlsFree             000000018014d384 f   libvcruntime:winapi_downlevel.obj
 0001:0014c3cc       __vcrt_FlsGetValue         000000018014d3cc f   libvcruntime:winapi_downlevel.obj
 0001:0014c414       __vcrt_FlsSetValue         000000018014d414 f   libvcruntime:winapi_downlevel.obj
 0001:0014c468       __vcrt_InitializeCriticalSectionEx 000000018014d468 f   libvcruntime:winapi_downlevel.obj
 0001:0014c4cc       ?GetCurrentState@__FrameHandler3@@SAHPEA_KPEAU_xDISPATCHER_CONTEXT@@PEBU_s_FuncInfo@@@Z 000000018014d4cc f   libvcruntime:ehstate.obj
 0001:0014c4f4       ?GetUnwindTryBlock@__FrameHandler3@@SAHPEA_KPEAU_xDISPATCHER_CONTEXT@@PEBU_s_FuncInfo@@@Z 000000018014d4f4 f   libvcruntime:ehstate.obj
 0001:0014c520       ?SetState@__FrameHandler3@@SAXPEA_KPEBU_s_FuncInfo@@H@Z 000000018014d520 f   libvcruntime:ehstate.obj
 0001:0014c52c       ?SetUnwindTryBlock@__FrameHandler3@@SAXPEA_KPEAU_xDISPATCHER_CONTEXT@@PEBU_s_FuncInfo@@H@Z 000000018014d52c f   libvcruntime:ehstate.obj
 0001:0014c568       ?StateFromControlPc@__FrameHandler3@@SAHPEBU_s_FuncInfo@@PEAU_xDISPATCHER_CONTEXT@@@Z 000000018014d568 f   libvcruntime:ehstate.obj
 0001:0014c570       ?StateFromControlPc@__FrameHandler4@@SAHPEAUFuncInfo4@FH4@@PEAU_xDISPATCHER_CONTEXT@@@Z 000000018014d570 f   libvcruntime:ehstate.obj
 0001:0014c578       ?StateFromIp@__FrameHandler3@@SAHPEBU_s_FuncInfo@@PEAU_xDISPATCHER_CONTEXT@@_K@Z 000000018014d578 f   libvcruntime:ehstate.obj
 0001:0014c5e0       ?StateFromIp@__FrameHandler4@@SAHPEAUFuncInfo4@FH4@@PEAU_xDISPATCHER_CONTEXT@@_K@Z 000000018014d5e0 f   libvcruntime:ehstate.obj
 0001:0014c6c8       ?__FuncRelToRealOffset@@YA_KPEAU_xDISPATCHER_CONTEXT@@I@Z 000000018014d6c8 f i libvcruntime:ehstate.obj
 0001:0014c6d8       ?__RVAtoRealOffset@@YA_KPEAU_xDISPATCHER_CONTEXT@@H@Z 000000018014d6d8 f i libvcruntime:ehstate.obj
 0001:0014dce0       ??$TypeMatchHelper@V__FrameHandler3@@@@YAHPEBU_s_HandlerType@@PEBU_s_CatchableType@@PEBU_s_ThrowInfo@@@Z 000000018014ece0 f i libvcruntime:frame.obj
 0001:0014de20       ??$TypeMatchHelper@V__FrameHandler4@@@@YAHPEAUHandlerType4@FH4@@PEBU_s_CatchableType@@PEBU_s_ThrowInfo@@@Z 000000018014ee20 f i libvcruntime:frame.obj
 0001:0014df64       ??$__InternalCxxFrameHandler@V__FrameHandler3@@@@YA?AW4_EXCEPTION_DISPOSITION@@PEAUEHExceptionRecord@@PEA_KPEAU_CONTEXT@@PEAU_xDISPATCHER_CONTEXT@@PEBU_s_FuncInfo@@H1E@Z 000000018014ef64 f i libvcruntime:frame.obj
 0001:0014e19c       ??$__InternalCxxFrameHandler@V__FrameHandler4@@@@YA?AW4_EXCEPTION_DISPOSITION@@PEAUEHExceptionRecord@@PEA_KPEAU_CONTEXT@@PEAU_xDISPATCHER_CONTEXT@@PEAUFuncInfo4@FH4@@H1E@Z 000000018014f19c f i libvcruntime:frame.obj
 0001:0014e430       ??0HandlerMap4@FH4@@QEAA@PEBUTryBlockMapEntry4@1@_KH@Z 000000018014f430 f i libvcruntime:frame.obj
 0001:0014e4ac       ??0HandlerMap@__FrameHandler3@@QEAA@PEBU_s_TryBlockMapEntry@@_KI@Z 000000018014f4ac f i libvcruntime:frame.obj
 0001:0014e4c0       ??0HandlerType4@FH4@@QEAA@XZ 000000018014f4c0 f i libvcruntime:frame.obj
 0001:0014e4d8       ??0TryBlockMap4@FH4@@QEAA@PEBUFuncInfo4@1@_K@Z 000000018014f4d8 f i libvcruntime:frame.obj
 0001:0014e5b0       ??0TryBlockMap@__FrameHandler3@@QEAA@PEBU_s_FuncInfo@@_K@Z 000000018014f5b0 f i libvcruntime:frame.obj
 0001:0014e5bc       ??0UWMap4@FH4@@QEAA@PEBUFuncInfo4@1@_K@Z 000000018014f5bc f i libvcruntime:frame.obj
 0001:0014e600       ??0bad_exception@std@@QEAA@AEBV01@@Z 000000018014f600 f i libvcruntime:frame.obj
 0001:0014e63c       ??0bad_exception@std@@QEAA@XZ 000000018014f63c f i libvcruntime:frame.obj
 0001:0014e65c       ??0exception@std@@QEAA@AEBV01@@Z 000000018014f65c f i libvcruntime:frame.obj
 0001:0014e690       ??0exception@std@@QEAA@QEBDH@Z 000000018014f690 f i libvcruntime:frame.obj
 0001:0014e6a8       ??0iterator@HandlerMap4@FH4@@QEAA@AEAV12@I@Z 000000018014f6a8 f i libvcruntime:frame.obj
 0001:0014e6b4       ??0iterator@HandlerMap@__FrameHandler3@@QEAA@AEAV12@I@Z 000000018014f6b4 f i libvcruntime:frame.obj
 0001:0014e6c0       ??0iterator@UWMap4@FH4@@QEAA@AEAV12@PEAE@Z 000000018014f6c0 f i libvcruntime:frame.obj
 0001:0014e6cc       ??1bad_exception@std@@UEAA@XZ 000000018014f6cc f i libvcruntime:frame.obj
 0001:0014e6e0       ??1exception@std@@UEAA@XZ  000000018014f6e0 f i libvcruntime:frame.obj
 0001:0014e6f4       ??4iterator@UWMap4@FH4@@QEAAAEAV012@AEBV012@@Z 000000018014f6f4 f i libvcruntime:frame.obj
 0001:0014e714       ??8iterator@HandlerMap4@FH4@@QEBA_NAEBV012@@Z 000000018014f714 f i libvcruntime:frame.obj
 0001:0014e720       ??8iterator@HandlerMap@__FrameHandler3@@QEBA_NAEBV012@@Z 000000018014f720 f i libvcruntime:frame.obj
 0001:0014e72c       ??8type_info@@QEBA_NAEBV0@@Z 000000018014f72c f i libvcruntime:frame.obj
 0001:0014e748       ??9iterator@HandlerMap4@FH4@@QEBA_NAEBV012@@Z 000000018014f748 f i libvcruntime:frame.obj
 0001:0014e754       ??9iterator@HandlerMap@__FrameHandler3@@QEBA_NAEBV012@@Z 000000018014f754 f i libvcruntime:frame.obj
 0001:0014e760       ??Diterator@HandlerMap4@FH4@@QEAA?AUHandlerType4@2@XZ 000000018014f760 f i libvcruntime:frame.obj
 0001:0014e780       ??Diterator@HandlerMap@__FrameHandler3@@QEAA?BU_s_HandlerType@@XZ 000000018014f780 f i libvcruntime:frame.obj
 0001:0014e7a4       ??Diterator@TryBlockMap@__FrameHandler3@@QEAA?BU_s_TryBlockMapEntry@@XZ 000000018014f7a4 f i libvcruntime:frame.obj
 0001:0014e7d4       ??Diterator@UWMap4@FH4@@QEAA?AUUnwindMapEntry4@2@XZ 000000018014f7d4 f i libvcruntime:frame.obj
 0001:0014e828       ??Eiterator@HandlerMap4@FH4@@QEAAAEAV012@XZ 000000018014f828 f i libvcruntime:frame.obj
 0001:0014e848       ??Eiterator@HandlerMap@__FrameHandler3@@QEAAAEAV012@XZ 000000018014f848 f i libvcruntime:frame.obj
 0001:0014e850       ??Eiterator@TryBlockMap@__FrameHandler3@@QEAAAEAV012@XZ 000000018014f850 f i libvcruntime:frame.obj
 0001:0014e858       ??Eiterator@UWMap4@FH4@@QEAAAEAV012@XZ 000000018014f858 f i libvcruntime:frame.obj
 0001:0014e878       ??Giterator@UWMap4@FH4@@QEBA_JAEBV012@@Z 000000018014f878 f i libvcruntime:frame.obj
 0001:0014e884       ??Miterator@TryBlockMap4@FH4@@QEBA_NAEBV012@@Z 000000018014f884 f i libvcruntime:frame.obj
 0001:0014e890       ??Miterator@TryBlockMap@__FrameHandler3@@QEBA_NAEBV012@@Z 000000018014f890 f i libvcruntime:frame.obj
 0001:0014e89c       ??Oiterator@UWMap4@FH4@@QEBA_NAEBV012@@Z 000000018014f89c f i libvcruntime:frame.obj
 0001:0014e8a8       ??Piterator@UWMap4@FH4@@QEBA_NAEBV012@@Z 000000018014f8a8 f i libvcruntime:frame.obj
 0001:0014e8b4       ??_Ebad_exception@std@@UEAAPEAXI@Z 000000018014f8b4 f i libvcruntime:frame.obj
 0001:0014e8b4       ??_Gbad_exception@std@@UEAAPEAXI@Z 000000018014f8b4 f i libvcruntime:frame.obj
 0001:0014e8f8       ??_Gexception@std@@UEAAPEAXI@Z 000000018014f8f8 f i libvcruntime:frame.obj
 0001:0014e8f8       ??_Eexception@std@@UEAAPEAXI@Z 000000018014f8f8 f i libvcruntime:frame.obj
 0001:0014e93c       ?BuildCatchObject@__FrameHandler3@@SAXPEAUEHExceptionRecord@@PEAXPEBU_s_HandlerType@@PEBU_s_CatchableType@@@Z 000000018014f93c f   libvcruntime:frame.obj
 0001:0014e944       ?BuildCatchObject@__FrameHandler4@@SAXPEAUEHExceptionRecord@@PEAXPEAUHandlerType4@FH4@@PEBU_s_CatchableType@@@Z 000000018014f944 f   libvcruntime:frame.obj
 0001:0014e94c       ?BuildCatchObjectHelper@__FrameHandler3@@SAHPEAUEHExceptionRecord@@PEAXPEBU_s_HandlerType@@PEBU_s_CatchableType@@@Z 000000018014f94c f   libvcruntime:frame.obj
 0001:0014e954       ?BuildCatchObjectHelper@__FrameHandler4@@SAHPEAUEHExceptionRecord@@PEAXPEAUHandlerType4@FH4@@PEBU_s_CatchableType@@@Z 000000018014f954 f   libvcruntime:frame.obj
 0001:0014e95c       ?CxxCallCatchBlock@__FrameHandler3@@SAPEAXPEAU_EXCEPTION_RECORD@@@Z 000000018014f95c f   libvcruntime:frame.obj
 0001:0014eb48       ?CxxCallCatchBlock@__FrameHandler4@@SAPEAXPEAU_EXCEPTION_RECORD@@@Z 000000018014fb48 f   libvcruntime:frame.obj
 0001:0014ed98       ?DecompHandler@HandlerMap4@FH4@@AEAAXXZ 000000018014fd98 f i libvcruntime:frame.obj
 0001:0014efd8       ?FrameUnwindToState@__FrameHandler3@@SAXPEA_KPEAU_xDISPATCHER_CONTEXT@@PEBU_s_FuncInfo@@H@Z 000000018014ffd8 f   libvcruntime:frame.obj
 0001:0014f164       ?FrameUnwindToState@__FrameHandler4@@SAXPEA_KPEAU_xDISPATCHER_CONTEXT@@PEAUFuncInfo4@FH4@@H@Z 0000000180150164 f   libvcruntime:frame.obj
 0001:0014f44c       ?GetHandlerSearchState@__FrameHandler3@@SAHPEA_KPEAU_xDISPATCHER_CONTEXT@@PEBU_s_FuncInfo@@@Z 000000018015044c f i libvcruntime:frame.obj
 0001:0014f4e4       ?GetHandlerSearchState@__FrameHandler4@@SAHPEA_KPEAU_xDISPATCHER_CONTEXT@@PEAUFuncInfo4@FH4@@@Z 00000001801504e4 f i libvcruntime:frame.obj
 0001:0014f548       ?GetMaxState@__FrameHandler3@@SAHPEAU_xDISPATCHER_CONTEXT@@PEBU_s_FuncInfo@@@Z 0000000180150548 f i libvcruntime:frame.obj
 0001:0014f54c       ?GetMaxState@__FrameHandler4@@SAHPEAU_xDISPATCHER_CONTEXT@@PEAUFuncInfo4@FH4@@@Z 000000018015054c f i libvcruntime:frame.obj
 0001:0014f6fc       ?ReadEntry@UWMap4@FH4@@AEAAXPEAPEAE@Z 00000001801506fc f i libvcruntime:frame.obj
 0001:0014f79c       ?TypeMatch@__FrameHandler3@@SAHPEBU_s_HandlerType@@PEBU_s_CatchableType@@PEBU_s_ThrowInfo@@@Z 000000018015079c f   libvcruntime:frame.obj
 0001:0014f7a4       ?TypeMatch@__FrameHandler4@@SAHPEAUHandlerType4@FH4@@PEBU_s_CatchableType@@PEBU_s_ThrowInfo@@@Z 00000001801507a4 f   libvcruntime:frame.obj
 0001:0014f7ac       ?WalkBack@UWMap4@FH4@@AEAAXPEAPEAE@Z 00000001801507ac f i libvcruntime:frame.obj
 0001:0014f7e4       ?WalkBack@iterator@UWMap4@FH4@@QEAAXXZ 00000001801507e4 f i libvcruntime:frame.obj
 0001:0014f824       ?WalkForward@UWMap4@FH4@@AEAAXPEAPEAE@Z 0000000180150824 f i libvcruntime:frame.obj
 0001:0014f82c       ?_CallMemberFunction1@@YAXQEAX00@Z 000000018015082c f i libvcruntime:frame.obj
 0001:0014f838       ?_CallMemberFunction2@@YAXQEAX00H@Z 0000000180150838 f i libvcruntime:frame.obj
 0001:0014f85c       ?begin@HandlerMap4@FH4@@QEAA?AViterator@12@XZ 000000018015085c f i libvcruntime:frame.obj
 0001:0014f868       ?begin@HandlerMap@__FrameHandler3@@QEAA?AViterator@12@XZ 0000000180150868 f i libvcruntime:frame.obj
 0001:0014f874       ?begin@UWMap4@FH4@@QEAA?AViterator@12@XZ 0000000180150874 f i libvcruntime:frame.obj
 0001:0014f884       ?end@HandlerMap4@FH4@@QEAA?AViterator@12@XZ 0000000180150884 f i libvcruntime:frame.obj
 0001:0014f890       ?end@HandlerMap@__FrameHandler3@@QEAA?AViterator@12@XZ 0000000180150890 f i libvcruntime:frame.obj
 0001:0014f89c       ?getESTypes@__FrameHandler3@@SAPEBU_s_ESTypeList@@PEBU_s_FuncInfo@@@Z 000000018015089c f i libvcruntime:frame.obj
 0001:0014f8c4       ?getESTypes@__FrameHandler4@@SAPEBU_s_ESTypeList@@PEAUFuncInfo4@FH4@@@Z 00000001801508c4 f i libvcruntime:frame.obj
 0001:0014f8c8       ?getLastEntry@HandlerMap4@FH4@@QEAAPEAUHandlerType4@2@XZ 00000001801508c8 f i libvcruntime:frame.obj
 0001:0014f918       ?getLastEntry@HandlerMap@__FrameHandler3@@QEAAPEBU_s_HandlerType@@XZ 0000000180150918 f i libvcruntime:frame.obj
 0001:0014f92c       ?getMagicNum@__FrameHandler3@@SAIPEBU_s_FuncInfo@@@Z 000000018015092c f i libvcruntime:frame.obj
 0001:0014f934       ?getMagicNum@__FrameHandler4@@SAIPEAUFuncInfo4@FH4@@@Z 0000000180150934 f i libvcruntime:frame.obj
 0001:0014f93c       ?getNumTryBlocks@TryBlockMap4@FH4@@QEAAIXZ 000000018015093c f i libvcruntime:frame.obj
 0001:0014f940       ?getNumTryBlocks@TryBlockMap@__FrameHandler3@@QEAAIXZ 0000000180150940 f i libvcruntime:frame.obj
 0001:0014f948       ?getStartStop@UWMap4@FH4@@QEAAXHHAEAViterator@12@0@Z 0000000180150948 f i libvcruntime:frame.obj
 0001:0014fa18       ?getStateFromIterators@UWMap4@FH4@@SAHAEBViterator@12@H0H0@Z 0000000180150a18 f i libvcruntime:frame.obj
 0001:0014fae0       ?isEHs@__FrameHandler3@@SA_NPEBU_s_FuncInfo@@@Z 0000000180150ae0 f i libvcruntime:frame.obj
 0001:0014fae8       ?isEHs@__FrameHandler4@@SA_NPEAUFuncInfo4@FH4@@@Z 0000000180150ae8 f i libvcruntime:frame.obj
 0001:0014faf0       ?isNoExcept@__FrameHandler3@@SA_NPEBU_s_FuncInfo@@@Z 0000000180150af0 f i libvcruntime:frame.obj
 0001:0014fafc       ?isNoExcept@__FrameHandler4@@SA_NPEAUFuncInfo4@FH4@@@Z 0000000180150afc f i libvcruntime:frame.obj
 0001:0014fb04       ?reset@HandlerType4@FH4@@QEAAXXZ 0000000180150b04 f i libvcruntime:frame.obj
 0001:0014fb18       ?resetBuffer@HandlerMap4@FH4@@QEAAXXZ 0000000180150b18 f i libvcruntime:frame.obj
 0001:0014fb28       ?setBuffer@HandlerMap4@FH4@@QEAAXI@Z 0000000180150b28 f i libvcruntime:frame.obj
 0001:0014fb64       ?what@exception@std@@UEBAPEBDXZ 0000000180150b64 f i libvcruntime:frame.obj
 0001:0014fb78       __BuildCatchObject         0000000180150b78 f   libvcruntime:frame.obj
 0001:0014fb80       __BuildCatchObjectHelper   0000000180150b80 f   libvcruntime:frame.obj
 0001:0014fb88       __TypeMatch                0000000180150b88 f   libvcruntime:frame.obj
 0001:0014fb90       __vcrt_EncodePointer       0000000180150b90 f i libvcruntime:frame.obj
 0001:0014fbb0       _CallSettingFrame          0000000180150bb0 f   libvcruntime:handlers.obj
 0001:0014fc00       _CallSettingFrame_LookupContinuationIndex 0000000180150c00 f   libvcruntime:handlers.obj
 0001:0014fc30       _CallSettingFrame_NotifyContinuationAddr 0000000180150c30 f   libvcruntime:handlers.obj
 0001:0014fc60       _CallSettingFrameEncoded   0000000180150c60 f   libvcruntime:handlers.obj
 0001:0014fca8       ??$?RD@__crt_public_free_policy@@QEBAXQEBD@Z 0000000180150ca8 f i libvcruntime:std_exception.obj
 0001:0014fcb0       ??0?$__crt_unique_heap_ptr@DU__crt_public_free_policy@@@@QEAA@QEAD@Z 0000000180150cb0 f i libvcruntime:std_exception.obj
 0001:0014fcb8       ??1?$__crt_unique_heap_ptr@DU__crt_public_free_policy@@@@QEAA@XZ 0000000180150cb8 f i libvcruntime:std_exception.obj
 0001:0014fcd4       ??B?$__crt_unique_heap_ptr@DU__crt_public_free_policy@@@@QEBA_NXZ 0000000180150cd4 f i libvcruntime:std_exception.obj
 0001:0014fcdc       ?detach@?$__crt_unique_heap_ptr@DU__crt_public_free_policy@@@@QEAAPEADXZ 0000000180150cdc f i libvcruntime:std_exception.obj
 0001:0014fce4       ?get@?$__crt_unique_heap_ptr@DU__crt_public_free_policy@@@@QEBAPEADXZ 0000000180150ce4 f i libvcruntime:std_exception.obj
 0001:0014fce8       ?is_valid@?$__crt_unique_heap_ptr@DU__crt_public_free_policy@@@@QEBA_NXZ 0000000180150ce8 f i libvcruntime:std_exception.obj
 0001:0014fcf0       ?release@?$__crt_unique_heap_ptr@DU__crt_public_free_policy@@@@QEAAXXZ 0000000180150cf0 f i libvcruntime:std_exception.obj
 0001:0014fd0c       __std_exception_copy       0000000180150d0c f   libvcruntime:std_exception.obj
 0001:0014fd9c       __std_exception_destroy    0000000180150d9c f   libvcruntime:std_exception.obj
 0001:0014fdc4       _CxxThrowException         0000000180150dc4 f   libvcruntime:throw.obj
 0001:0014fe70       cosf                       0000000180150e70 f   libucrt:cosf.obj
 0001:00150370       sinf                       0000000180151370 f   libucrt:sinf.obj
 0001:00150a70       tanf                       0000000180151a70 f   libucrt:tanf.obj
 0001:00151100       strcmp                     0000000180152100 f   libucrt:strcmp.obj
 0001:00151168       _fpclass                   0000000180152168 f   libucrt:ieeemisc.obj
 0001:001511f0       _fpclassf                  00000001801521f0 f   libucrt:ieeemisc.obj
 0001:0015125c       _isnan                     000000018015225c f   libucrt:ieeemisc.obj
 0001:00151288       _isnanf                    0000000180152288 f   libucrt:ieeemisc.obj
 0001:001512a4       _nextafter                 00000001801522a4 f   libucrt:ieeemisc.obj
 0001:001512ac       _nextafterf                00000001801522ac f   libucrt:ieeemisc.obj
 0001:001512b4       _scalb                     00000001801522b4 f   libucrt:ieeemisc.obj
 0001:00151460       _scalbf                    0000000180152460 f   libucrt:ieeemisc.obj
 0001:00151600       free                       0000000180152600 f   libucrt:free.obj
 0001:00151614       _initterm                  0000000180152614 f   libucrt:initterm.obj
 0001:00151678       _initterm_e                0000000180152678 f   libucrt:initterm.obj
 0001:001516d8       _seh_filter_dll            00000001801526d8 f   libucrt:exception_filter.obj
 0001:001516ec       _seh_filter_exe            00000001801526ec f   libucrt:exception_filter.obj
 0001:00151870       ??$?B$$A6AXPEAXK0@Z@__crt_fast_encoded_nullptr_t@@QEBAP6AXPEAXK0@ZXZ 0000000180152870 f i libucrt:exit.obj
 0001:001518d8       ??$__crt_fast_decode_pointer@P6AXPEAXK0@Z@@YAP6AXPEAXK0@ZQ6AX0K0@Z@Z 00000001801528d8 f i libucrt:exit.obj
 0001:001518f0       ??$__crt_fast_encode_pointer@P6AXPEAXK0@Z@@YAP6AXPEAXK0@ZQ6AX0K0@Z@Z 00000001801528f0 f i libucrt:exit.obj
 0001:00151910       ??$__crt_get_proc_address@P6AXI@Z@@YAP6AXI@ZQEAUHINSTANCE__@@QEBD@Z 0000000180152910 f i libucrt:exit.obj
 0001:00151918       ??$__crt_interlocked_read@J@@YAJPEDJ@Z 0000000180152918 f i libucrt:exit.obj
 0001:0015193c       ??0?$__crt_unique_handle_t@U__crt_hmodule_traits@@@@QEAA@QEAUHINSTANCE__@@@Z 000000018015293c f i libucrt:exit.obj
 0001:00151944       ??1?$__crt_unique_handle_t@U__crt_hmodule_traits@@@@QEAA@XZ 0000000180152944 f i libucrt:exit.obj
 0001:00151a3c       ?__acrt_select_exit_lock@@YA?AW4__acrt_lock_id@@XZ 0000000180152a3c f i libucrt:exit.obj
 0001:00151a44       ?__crt_fast_encode_pointer@@YA?AU__crt_fast_encoded_nullptr_t@@$$T@Z 0000000180152a44 f i libucrt:exit.obj
 0001:00151a4c       ?__crt_interlocked_read_32@@YAHPEDH@Z 0000000180152a4c f i libucrt:exit.obj
 0001:00151a50       ?__crt_rotate_pointer_value@@YA_K_KH@Z 0000000180152a50 f i libucrt:exit.obj
 0001:00151a68       ?close@?$__crt_unique_handle_t@U__crt_hmodule_traits@@@@QEAAXXZ 0000000180152a68 f i libucrt:exit.obj
 0001:00151a8c       ?close@__crt_hmodule_traits@@SA_NPEAUHINSTANCE__@@@Z 0000000180152a8c f i libucrt:exit.obj
 0001:00151ba8       ?get@?$__crt_unique_handle_t@U__crt_hmodule_traits@@@@QEBAPEAUHINSTANCE__@@XZ 0000000180152ba8 f i libucrt:exit.obj
 0001:00151bac       ?get_address_of@?$__crt_unique_handle_t@U__crt_hmodule_traits@@@@QEAAPEAPEAUHINSTANCE__@@XZ 0000000180152bac f i libucrt:exit.obj
 0001:00151bb0       ?get_invalid_value@__crt_hmodule_traits@@SAPEAUHINSTANCE__@@XZ 0000000180152bb0 f i libucrt:exit.obj
 0001:00151c94       _Exit                      0000000180152c94 f   libucrt:exit.obj
 0001:00151ca0       __acrt_initialize_thread_local_exit_callback 0000000180152ca0 f   libucrt:exit.obj
 0001:00151ca8       _c_exit                    0000000180152ca8 f   libucrt:exit.obj
 0001:00151cb8       _cexit                     0000000180152cb8 f   libucrt:exit.obj
 0001:00151cc8       _exit                      0000000180152cc8 f   libucrt:exit.obj
 0001:00151cd4       _is_c_termination_complete 0000000180152cd4 f   libucrt:exit.obj
 0001:00151cdc       _register_thread_local_exe_atexit_callback 0000000180152cdc f   libucrt:exit.obj
 0001:00151d18       exit                       0000000180152d18 f   libucrt:exit.obj
 0001:00151d24       quick_exit                 0000000180152d24 f   libucrt:exit.obj
 0001:00151d30       ??$?RE@__crt_internal_free_policy@@QEBAXQEBE@Z 0000000180152d30 f i libucrt:argv_parsing.obj
 0001:00151d38       ??$?RPEAD@__crt_internal_free_policy@@QEBAXQEBQEAD@Z 0000000180152d38 f i libucrt:argv_parsing.obj
 0001:00151d40       ??$?RPEA_W@__crt_internal_free_policy@@QEBAXQEBQEA_W@Z 0000000180152d40 f i libucrt:argv_parsing.obj
 0001:00152034       ??$get_module_file_name@$$TAEAY0BAF@DH@?$__crt_char_traits@D@@SAK$$QEA$$TAEAY0BAF@D$$QEAH@Z 0000000180153034 f i libucrt:argv_parsing.obj
 0001:00152040       ??$get_module_file_name@$$TAEAY0BAF@_WH@?$__crt_char_traits@_W@@SAK$$QEA$$TAEAY0BAF@_W$$QEAH@Z 0000000180153040 f i libucrt:argv_parsing.obj
 0001:001523b0       ??$set_program_name@PEAD@?$__crt_char_traits@D@@SAX$$QEAPEAD@Z 00000001801533b0 f i libucrt:argv_parsing.obj
 0001:001523bc       ??$set_program_name@PEA_W@?$__crt_char_traits@_W@@SAX$$QEAPEA_W@Z 00000001801533bc f i libucrt:argv_parsing.obj
 0001:001523d8       ??0?$__crt_unique_heap_ptr@EU__crt_internal_free_policy@@@@QEAA@QEAE@Z 00000001801533d8 f i libucrt:argv_parsing.obj
 0001:001523e0       ??0?$__crt_unique_heap_ptr@PEADU__crt_internal_free_policy@@@@QEAA@QEAPEAD@Z 00000001801533e0 f i libucrt:argv_parsing.obj
 0001:001523e8       ??0?$__crt_unique_heap_ptr@PEA_WU__crt_internal_free_policy@@@@QEAA@QEAPEA_W@Z 00000001801533e8 f i libucrt:argv_parsing.obj
 0001:001523f0       ??1?$__crt_unique_heap_ptr@EU__crt_internal_free_policy@@@@QEAA@XZ 00000001801533f0 f i libucrt:argv_parsing.obj
 0001:0015240c       ??1?$__crt_unique_heap_ptr@PEADU__crt_internal_free_policy@@@@QEAA@XZ 000000018015340c f i libucrt:argv_parsing.obj
 0001:00152428       ??1?$__crt_unique_heap_ptr@PEA_WU__crt_internal_free_policy@@@@QEAA@XZ 0000000180153428 f i libucrt:argv_parsing.obj
 0001:00152444       ??B?$__crt_unique_heap_ptr@EU__crt_internal_free_policy@@@@QEBA_NXZ 0000000180153444 f i libucrt:argv_parsing.obj
 0001:00152484       ?detach@?$__crt_unique_heap_ptr@EU__crt_internal_free_policy@@@@QEAAPEAEXZ 0000000180153484 f i libucrt:argv_parsing.obj
 0001:0015248c       ?detach@?$__crt_unique_heap_ptr@PEADU__crt_internal_free_policy@@@@QEAAPEAPEADXZ 000000018015348c f i libucrt:argv_parsing.obj
 0001:00152494       ?detach@?$__crt_unique_heap_ptr@PEA_WU__crt_internal_free_policy@@@@QEAAPEAPEA_WXZ 0000000180153494 f i libucrt:argv_parsing.obj
 0001:001524b8       ?get@?$__crt_unique_heap_ptr@EU__crt_internal_free_policy@@@@QEBAPEAEXZ 00000001801534b8 f i libucrt:argv_parsing.obj
 0001:001524bc       ?get@?$__crt_unique_heap_ptr@PEADU__crt_internal_free_policy@@@@QEBAPEAPEADXZ 00000001801534bc f i libucrt:argv_parsing.obj
 0001:001524c0       ?get@?$__crt_unique_heap_ptr@PEA_WU__crt_internal_free_policy@@@@QEBAPEAPEA_WXZ 00000001801534c0 f i libucrt:argv_parsing.obj
 0001:001524c4       ?get_address_of@?$__crt_unique_heap_ptr@PEADU__crt_internal_free_policy@@@@QEAAPEAPEAPEADXZ 00000001801534c4 f i libucrt:argv_parsing.obj
 0001:001524c8       ?get_address_of@?$__crt_unique_heap_ptr@PEA_WU__crt_internal_free_policy@@@@QEAAPEAPEAPEA_WXZ 00000001801534c8 f i libucrt:argv_parsing.obj
 0001:001524ec       ?is_valid@?$__crt_unique_heap_ptr@EU__crt_internal_free_policy@@@@QEBA_NXZ 00000001801534ec f i libucrt:argv_parsing.obj
 0001:001524f4       ?release@?$__crt_unique_heap_ptr@EU__crt_internal_free_policy@@@@QEAAXXZ 00000001801534f4 f i libucrt:argv_parsing.obj
 0001:00152510       ?release@?$__crt_unique_heap_ptr@PEADU__crt_internal_free_policy@@@@QEAAXXZ 0000000180153510 f i libucrt:argv_parsing.obj
 0001:0015252c       ?release@?$__crt_unique_heap_ptr@PEA_WU__crt_internal_free_policy@@@@QEAAXXZ 000000018015352c f i libucrt:argv_parsing.obj
 0001:00152564       __acrt_allocate_buffer_for_argv 0000000180153564 f   libucrt:argv_parsing.obj
 0001:001525c4       _configure_narrow_argv     00000001801535c4 f   libucrt:argv_parsing.obj
 0001:0015274c       _configure_wide_argv       000000018015374c f   libucrt:argv_parsing.obj
 0001:001528d0       _set_pgmptr                00000001801538d0 f i libucrt:argv_parsing.obj
 0001:001528d8       _set_wpgmptr               00000001801538d8 f i libucrt:argv_parsing.obj
 0001:001528e0       ??$?R_W@__crt_internal_free_policy@@QEBAXQEB_W@Z 00000001801538e0 f i libucrt:environment_initialization.obj
 0001:00152de8       ??$get_environment_from_os@$$V@?$__crt_char_traits@D@@SAPEADXZ 0000000180153de8 f i libucrt:environment_initialization.obj
 0001:00152df0       ??$get_environment_from_os@$$V@?$__crt_char_traits@_W@@SAPEA_WXZ 0000000180153df0 f i libucrt:environment_initialization.obj
 0001:00152f80       ??$set_variable_in_environment_nolock@PEADH@?$__crt_char_traits@D@@SAH$$QEAPEAD$$QEAH@Z 0000000180153f80 f i libucrt:environment_initialization.obj
 0001:00152f8c       ??$set_variable_in_environment_nolock@PEA_WH@?$__crt_char_traits@_W@@SAH$$QEAPEA_W$$QEAH@Z 0000000180153f8c f i libucrt:environment_initialization.obj
 0001:00152f98       ??$tcscpy_s@PEADAEB_KAEAPEAD@?$__crt_char_traits@D@@SAH$$QEAPEADAEB_KAEAPEAD@Z 0000000180153f98 f i libucrt:environment_initialization.obj
 0001:00152fa8       ??$tcscpy_s@PEA_WAEB_KAEAPEA_W@?$__crt_char_traits@_W@@SAH$$QEAPEA_WAEB_KAEAPEA_W@Z 0000000180153fa8 f i libucrt:environment_initialization.obj
 0001:00152fb8       ??$tcslen@AEAPEAD@?$__crt_char_traits@D@@SA_KAEAPEAD@Z 0000000180153fb8 f i libucrt:environment_initialization.obj
 0001:00152fcc       ??$tcslen@AEAPEA_W@?$__crt_char_traits@_W@@SA_KAEAPEA_W@Z 0000000180153fcc f i libucrt:environment_initialization.obj
 0001:00152fe0       ??$uninitialize@A6AXAEAPEAPEAD@Z@?$dual_state_global@PEAPEAD@__crt_state_management@@QEAAXA6AXAEAPEAPEAD@Z@Z 0000000180153fe0 f i libucrt:environment_initialization.obj
 0001:00153024       ??$uninitialize@A6AXAEAPEAPEA_W@Z@?$dual_state_global@PEAPEA_W@__crt_state_management@@QEAAXA6AXAEAPEAPEA_W@Z@Z 0000000180154024 f i libucrt:environment_initialization.obj
 0001:001530a0       ??0?$__crt_unique_heap_ptr@_WU__crt_internal_free_policy@@@@QEAA@QEA_W@Z 00000001801540a0 f i libucrt:environment_initialization.obj
 0001:001530a8       ??1?$__crt_unique_heap_ptr@_WU__crt_internal_free_policy@@@@QEAA@XZ 00000001801540a8 f i libucrt:environment_initialization.obj
 0001:001530c4       ??B?$__crt_unique_heap_ptr@PEADU__crt_internal_free_policy@@@@QEBA_NXZ 00000001801540c4 f i libucrt:environment_initialization.obj
 0001:001530cc       ??B?$__crt_unique_heap_ptr@PEA_WU__crt_internal_free_policy@@@@QEBA_NXZ 00000001801540cc f i libucrt:environment_initialization.obj
 0001:001530d4       ??B?$__crt_unique_heap_ptr@_WU__crt_internal_free_policy@@@@QEBA_NXZ 00000001801540d4 f i libucrt:environment_initialization.obj
 0001:001530dc       ?__crt_compute_required_transform_buffer_count@@YA_KIQEBD@Z 00000001801540dc f i libucrt:environment_initialization.obj
 0001:00153100       ?__crt_compute_required_transform_buffer_count@@YA_KIQEB_W@Z 0000000180154100 f i libucrt:environment_initialization.obj
 0001:00153130       ?__crt_transform_string@@YA_KIQEBDQEA_W_K@Z 0000000180154130 f i libucrt:environment_initialization.obj
 0001:00153154       ?__crt_transform_string@@YA_KIQEB_WQEAD_K@Z 0000000180154154 f i libucrt:environment_initialization.obj
 0001:00153184       ?detach@?$__crt_unique_heap_ptr@DU__crt_internal_free_policy@@@@QEAAPEADXZ 0000000180154184 f i libucrt:environment_initialization.obj
 0001:0015318c       ?detach@?$__crt_unique_heap_ptr@_WU__crt_internal_free_policy@@@@QEAAPEA_WXZ 000000018015418c f i libucrt:environment_initialization.obj
 0001:00153194       ?get@?$__crt_unique_heap_ptr@_WU__crt_internal_free_policy@@@@QEBAPEA_WXZ 0000000180154194 f i libucrt:environment_initialization.obj
 0001:00153198       ?get_current_state_index@__crt_state_management@@YA_KXZ 0000000180154198 f i libucrt:environment_initialization.obj
 0001:001531cc       ?initialize@?$dual_state_global@PEAPEAD@__crt_state_management@@QEAAXQEAPEAD@Z 00000001801541cc f i libucrt:environment_initialization.obj
 0001:001531f4       ?initialize@?$dual_state_global@PEAPEA_W@__crt_state_management@@QEAAXQEAPEA_W@Z 00000001801541f4 f i libucrt:environment_initialization.obj
 0001:0015321c       ?is_valid@?$__crt_unique_heap_ptr@PEADU__crt_internal_free_policy@@@@QEBA_NXZ 000000018015421c f i libucrt:environment_initialization.obj
 0001:00153224       ?is_valid@?$__crt_unique_heap_ptr@PEA_WU__crt_internal_free_policy@@@@QEBA_NXZ 0000000180154224 f i libucrt:environment_initialization.obj
 0001:0015322c       ?is_valid@?$__crt_unique_heap_ptr@_WU__crt_internal_free_policy@@@@QEBA_NXZ 000000018015422c f i libucrt:environment_initialization.obj
 0001:00153240       ?release@?$__crt_unique_heap_ptr@_WU__crt_internal_free_policy@@@@QEAAXXZ 0000000180154240 f i libucrt:environment_initialization.obj
 0001:0015325c       ?value@?$dual_state_global@PEAPEAD@__crt_state_management@@QEAAAEAPEAPEADXZ 000000018015425c f i libucrt:environment_initialization.obj
 0001:00153260       ?value@?$dual_state_global@PEAPEA_W@__crt_state_management@@QEAAAEAPEAPEA_WXZ 0000000180154260 f i libucrt:environment_initialization.obj
 0001:00153264       __dcrt_get_or_create_narrow_environment_nolock 0000000180154264 f   libucrt:environment_initialization.obj
 0001:001532a0       __dcrt_get_or_create_wide_environment_nolock 00000001801542a0 f   libucrt:environment_initialization.obj
 0001:001532dc       __dcrt_uninitialize_environments_nolock 00000001801542dc f   libucrt:environment_initialization.obj
 0001:00153314       __p__environ               0000000180154314 f   libucrt:environment_initialization.obj
 0001:0015331c       __p__wenviron              000000018015431c f   libucrt:environment_initialization.obj
 0001:00153324       _get_initial_narrow_environment 0000000180154324 f   libucrt:environment_initialization.obj
 0001:00153374       _get_initial_wide_environment 0000000180154374 f   libucrt:environment_initialization.obj
 0001:001533c4       _initialize_narrow_environment 00000001801543c4 f   libucrt:environment_initialization.obj
 0001:001533cc       _initialize_wide_environment 00000001801543cc f   libucrt:environment_initialization.obj
 0001:001533d4       _invoke_watson_if_error    00000001801543d4 f i libucrt:environment_initialization.obj
 0001:00153408       ??$?B$$A6AXXZ@__crt_fast_encoded_nullptr_t@@QEBAP6AXXZXZ 0000000180154408 f i libucrt:onexit.obj
 0001:00153410       ??$?BP6AXXZ@__crt_fast_encoded_nullptr_t@@QEBAPEAP6AXXZXZ 0000000180154410 f i libucrt:onexit.obj
 0001:00153418       ??$?RP6AXXZ@__crt_internal_free_policy@@QEBAXQEBQ6AXXZ@Z 0000000180154418 f i libucrt:onexit.obj
 0001:001534e8       ??$__crt_fast_decode_pointer@P6AXXZ@@YAP6AXXZQ6AXXZ@Z 00000001801544e8 f i libucrt:onexit.obj
 0001:00153500       ??$__crt_fast_decode_pointer@PEAP6AXXZ@@YAPEAP6AXXZQEAP6AXXZ@Z 0000000180154500 f i libucrt:onexit.obj
 0001:00153518       ??$__crt_fast_encode_pointer@P6AHXZ@@YAP6AHXZQ6AHXZ@Z 0000000180154518 f i libucrt:onexit.obj
 0001:00153538       ??$__crt_fast_encode_pointer@P6AXXZ@@YAP6AXXZQ6AXXZ@Z 0000000180154538 f i libucrt:onexit.obj
 0001:00153558       ??$__crt_fast_encode_pointer@PEAP6AXXZ@@YAPEAP6AXXZQEAP6AXXZ@Z 0000000180154558 f i libucrt:onexit.obj
 0001:001535ac       ??0?$__crt_unique_heap_ptr@P6AXXZU__crt_internal_free_policy@@@@QEAA@QEAP6AXXZ@Z 00000001801545ac f i libucrt:onexit.obj
 0001:001535b4       ??1?$__crt_unique_heap_ptr@P6AXXZU__crt_internal_free_policy@@@@QEAA@XZ 00000001801545b4 f i libucrt:onexit.obj
 0001:001535d0       ??1scoped_global_state_reset@__crt_state_management@@QEAA@XZ 00000001801545d0 f i libucrt:onexit.obj
 0001:001538bc       ?detach@?$__crt_unique_heap_ptr@P6AXXZU__crt_internal_free_policy@@@@QEAAPEAP6AXXZXZ 00000001801548bc f i libucrt:onexit.obj
 0001:001538c4       ?release@?$__crt_unique_heap_ptr@P6AXXZU__crt_internal_free_policy@@@@QEAAXXZ 00000001801548c4 f i libucrt:onexit.obj
 0001:001538e0       _crt_at_quick_exit         00000001801548e0 f   libucrt:onexit.obj
 0001:001538f0       _crt_atexit                00000001801548f0 f   libucrt:onexit.obj
 0001:00153900       _execute_onexit_table      0000000180154900 f   libucrt:onexit.obj
 0001:0015393c       _initialize_onexit_table   000000018015493c f   libucrt:onexit.obj
 0001:00153964       _register_onexit_function  0000000180154964 f   libucrt:onexit.obj
 0001:00153aec       ??$?BX@__crt_fast_encoded_nullptr_t@@QEBAPEAXXZ 0000000180154aec f i libucrt:initialization.obj
 0001:00153af4       ??$__crt_fast_encode_pointer@PEAX@@YAPEAXQEAX@Z 0000000180154af4 f i libucrt:initialization.obj
 0001:00153bc4       ?__acrt_stdio_is_initialized@@YA_NXZ 0000000180154bc4 f i libucrt:initialization.obj
 0001:00153bd0       ?initialize@?$dual_state_global@PEAU__crt_locale_data@@@__crt_state_management@@QEAAXQEAU__crt_locale_data@@@Z 0000000180154bd0 f i libucrt:initialization.obj
 0001:00153bf8       __acrt_initialize          0000000180154bf8 f   libucrt:initialization.obj
 0001:00153c0c       __acrt_thread_attach       0000000180154c0c f   libucrt:initialization.obj
 0001:00153c20       __acrt_thread_detach       0000000180154c20 f   libucrt:initialization.obj
 0001:00153c30       __acrt_uninitialize        0000000180154c30 f   libucrt:initialization.obj
 0001:00153c68       __acrt_uninitialize_critical 0000000180154c68 f   libucrt:initialization.obj
 0001:00153c8c       _get_terminate             0000000180154c8c f   libucrt:terminate.obj
 0001:00153cb0       set_terminate              0000000180154cb0 f   libucrt:terminate.obj
 0001:00153cdc       terminate                  0000000180154cdc f   libucrt:terminate.obj
 0001:00153cfc       _set_abort_behavior        0000000180154cfc f   libucrt:abort.obj
 0001:00153d18       abort                      0000000180154d18 f   libucrt:abort.obj
 0001:00153d70       malloc                     0000000180154d70 f   libucrt:malloc.obj
 0001:00153ddc       strcpy_s                   0000000180154ddc f   libucrt:strcpy_s.obj
 0001:00153e3c       ??$?0AEBV?$stream_output_adapter@D@__crt_stdio_output@@AEB_KAEBQEBDAEBQEAU__crt_locale_pointers@@AEBQEAD@?$format_validation_base@DV?$stream_output_adapter@D@__crt_stdio_output@@@__crt_stdio_output@@IEAA@AEBV?$stream_output_adapter@D@1@AEB_KAEBQEBDAEBQEAU__crt_locale_pointers@@AEBQEAD@Z 0000000180154e3c f i libucrt:output.obj
 0001:00153ec0       ??$?0AEBV?$stream_output_adapter@D@__crt_stdio_output@@AEB_KAEBQEBDAEBQEAU__crt_locale_pointers@@AEBQEAD@?$positional_parameter_base@DV?$stream_output_adapter@D@__crt_stdio_output@@@__crt_stdio_output@@IEAA@AEBV?$stream_output_adapter@D@1@AEB_KAEBQEBDAEBQEAU__crt_locale_pointers@@AEBQEAD@Z 0000000180154ec0 f i libucrt:output.obj
 0001:00153f60       ??$?0AEBV?$stream_output_adapter@D@__crt_stdio_output@@AEB_KAEBQEBDAEBQEAU__crt_locale_pointers@@AEBQEAD@?$standard_base@DV?$stream_output_adapter@D@__crt_stdio_output@@@__crt_stdio_output@@IEAA@AEBV?$stream_output_adapter@D@1@AEB_KAEBQEBDAEBQEAU__crt_locale_pointers@@AEBQEAD@Z 0000000180154f60 f i libucrt:output.obj
 0001:00153fe4       ??$?0AEBV?$stream_output_adapter@_W@__crt_stdio_output@@AEB_KAEBQEB_WAEBQEAU__crt_locale_pointers@@AEBQEAD@?$format_validation_base@_WV?$stream_output_adapter@_W@__crt_stdio_output@@@__crt_stdio_output@@IEAA@AEBV?$stream_output_adapter@_W@1@AEB_KAEBQEB_WAEBQEAU__crt_locale_pointers@@AEBQEAD@Z 0000000180154fe4 f i libucrt:output.obj
 0001:0015406c       ??$?0AEBV?$stream_output_adapter@_W@__crt_stdio_output@@AEB_KAEBQEB_WAEBQEAU__crt_locale_pointers@@AEBQEAD@?$positional_parameter_base@_WV?$stream_output_adapter@_W@__crt_stdio_output@@@__crt_stdio_output@@IEAA@AEBV?$stream_output_adapter@_W@1@AEB_KAEBQEB_WAEBQEAU__crt_locale_pointers@@AEBQEAD@Z 000000018015506c f i libucrt:output.obj
 0001:00154110       ??$?0AEBV?$stream_output_adapter@_W@__crt_stdio_output@@AEB_KAEBQEB_WAEBQEAU__crt_locale_pointers@@AEBQEAD@?$standard_base@_WV?$stream_output_adapter@_W@__crt_stdio_output@@@__crt_stdio_output@@IEAA@AEBV?$stream_output_adapter@_W@1@AEB_KAEBQEB_WAEBQEAU__crt_locale_pointers@@AEBQEAD@Z 0000000180155110 f i libucrt:output.obj
 0001:00154198       ??$?0AEBV?$string_output_adapter@D@__crt_stdio_output@@AEB_KAEBQEBDAEBQEAU__crt_locale_pointers@@AEBQEAD@?$format_validation_base@DV?$string_output_adapter@D@__crt_stdio_output@@@__crt_stdio_output@@IEAA@AEBV?$string_output_adapter@D@1@AEB_KAEBQEBDAEBQEAU__crt_locale_pointers@@AEBQEAD@Z 0000000180155198 f i libucrt:output.obj
 0001:0015421c       ??$?0AEBV?$string_output_adapter@D@__crt_stdio_output@@AEB_KAEBQEBDAEBQEAU__crt_locale_pointers@@AEBQEAD@?$positional_parameter_base@DV?$string_output_adapter@D@__crt_stdio_output@@@__crt_stdio_output@@IEAA@AEBV?$string_output_adapter@D@1@AEB_KAEBQEBDAEBQEAU__crt_locale_pointers@@AEBQEAD@Z 000000018015521c f i libucrt:output.obj
 0001:001542bc       ??$?0AEBV?$string_output_adapter@D@__crt_stdio_output@@AEB_KAEBQEBDAEBQEAU__crt_locale_pointers@@AEBQEAD@?$standard_base@DV?$string_output_adapter@D@__crt_stdio_output@@@__crt_stdio_output@@IEAA@AEBV?$string_output_adapter@D@1@AEB_KAEBQEBDAEBQEAU__crt_locale_pointers@@AEBQEAD@Z 00000001801552bc f i libucrt:output.obj
 0001:00154340       ??$?0AEBV?$string_output_adapter@_W@__crt_stdio_output@@AEB_KAEBQEB_WAEBQEAU__crt_locale_pointers@@AEBQEAD@?$format_validation_base@_WV?$string_output_adapter@_W@__crt_stdio_output@@@__crt_stdio_output@@IEAA@AEBV?$string_output_adapter@_W@1@AEB_KAEBQEB_WAEBQEAU__crt_locale_pointers@@AEBQEAD@Z 0000000180155340 f i libucrt:output.obj
 0001:001543c8       ??$?0AEBV?$string_output_adapter@_W@__crt_stdio_output@@AEB_KAEBQEB_WAEBQEAU__crt_locale_pointers@@AEBQEAD@?$positional_parameter_base@_WV?$string_output_adapter@_W@__crt_stdio_output@@@__crt_stdio_output@@IEAA@AEBV?$string_output_adapter@_W@1@AEB_KAEBQEB_WAEBQEAU__crt_locale_pointers@@AEBQEAD@Z 00000001801553c8 f i libucrt:output.obj
 0001:0015446c       ??$?0AEBV?$string_output_adapter@_W@__crt_stdio_output@@AEB_KAEBQEB_WAEBQEAU__crt_locale_pointers@@AEBQEAD@?$standard_base@_WV?$string_output_adapter@_W@__crt_stdio_output@@@__crt_stdio_output@@IEAA@AEBV?$string_output_adapter@_W@1@AEB_KAEBQEB_WAEBQEAU__crt_locale_pointers@@AEBQEAD@Z 000000018015546c f i libucrt:output.obj
 0001:001558f0       ??$count@D@formatting_buffer@__crt_stdio_output@@QEBA_KXZ 00000001801568f0 f i libucrt:output.obj
 0001:0015590c       ??$count@_W@formatting_buffer@__crt_stdio_output@@QEBA_KXZ 000000018015690c f i libucrt:output.obj
 0001:00155928       ??$data@D@formatting_buffer@__crt_stdio_output@@QEAAPEADXZ 0000000180156928 f i libucrt:output.obj
 0001:00155938       ??$data@_W@formatting_buffer@__crt_stdio_output@@QEAAPEA_WXZ 0000000180156938 f i libucrt:output.obj
 0001:00155948       ??$ensure_buffer_is_big_enough@D@formatting_buffer@__crt_stdio_output@@QEAA_N_K@Z 0000000180156948 f i libucrt:output.obj
 0001:001559f0       ??$ensure_buffer_is_big_enough@_W@formatting_buffer@__crt_stdio_output@@QEAA_N_K@Z 00000001801569f0 f i libucrt:output.obj
 0001:00155a9c       ??$extract_argument_from_va_list@C_J@?$positional_parameter_base@DV?$stream_output_adapter@D@__crt_stdio_output@@@__crt_stdio_output@@IEAA_NAEA_J@Z 0000000180156a9c f i libucrt:output.obj
 0001:00155b58       ??$extract_argument_from_va_list@C_J@?$positional_parameter_base@DV?$string_output_adapter@D@__crt_stdio_output@@@__crt_stdio_output@@IEAA_NAEA_J@Z 0000000180156b58 f i libucrt:output.obj
 0001:00155c14       ??$extract_argument_from_va_list@C_J@?$positional_parameter_base@_WV?$stream_output_adapter@_W@__crt_stdio_output@@@__crt_stdio_output@@IEAA_NAEA_J@Z 0000000180156c14 f i libucrt:output.obj
 0001:00155cd4       ??$extract_argument_from_va_list@C_J@?$positional_parameter_base@_WV?$string_output_adapter@_W@__crt_stdio_output@@@__crt_stdio_output@@IEAA_NAEA_J@Z 0000000180156cd4 f i libucrt:output.obj
 0001:00155d94       ??$extract_argument_from_va_list@C_J@?$standard_base@DV?$stream_output_adapter@D@__crt_stdio_output@@@__crt_stdio_output@@IEAA_NAEA_J@Z 0000000180156d94 f i libucrt:output.obj
 0001:00155da8       ??$extract_argument_from_va_list@C_J@?$standard_base@DV?$string_output_adapter@D@__crt_stdio_output@@@__crt_stdio_output@@IEAA_NAEA_J@Z 0000000180156da8 f i libucrt:output.obj
 0001:00155dbc       ??$extract_argument_from_va_list@C_J@?$standard_base@_WV?$stream_output_adapter@_W@__crt_stdio_output@@@__crt_stdio_output@@IEAA_NAEA_J@Z 0000000180156dbc f i libucrt:output.obj
 0001:00155dd0       ??$extract_argument_from_va_list@C_J@?$standard_base@_WV?$string_output_adapter@_W@__crt_stdio_output@@@__crt_stdio_output@@IEAA_NAEA_J@Z 0000000180156dd0 f i libucrt:output.obj
 0001:00155de4       ??$extract_argument_from_va_list@E_J@?$positional_parameter_base@DV?$stream_output_adapter@D@__crt_stdio_output@@@__crt_stdio_output@@IEAA_NAEA_J@Z 0000000180156de4 f i libucrt:output.obj
 0001:00155ea0       ??$extract_argument_from_va_list@E_J@?$positional_parameter_base@DV?$string_output_adapter@D@__crt_stdio_output@@@__crt_stdio_output@@IEAA_NAEA_J@Z 0000000180156ea0 f i libucrt:output.obj
 0001:00155f5c       ??$extract_argument_from_va_list@E_J@?$positional_parameter_base@_WV?$stream_output_adapter@_W@__crt_stdio_output@@@__crt_stdio_output@@IEAA_NAEA_J@Z 0000000180156f5c f i libucrt:output.obj
 0001:0015601c       ??$extract_argument_from_va_list@E_J@?$positional_parameter_base@_WV?$string_output_adapter@_W@__crt_stdio_output@@@__crt_stdio_output@@IEAA_NAEA_J@Z 000000018015701c f i libucrt:output.obj
 0001:001560dc       ??$extract_argument_from_va_list@E_J@?$standard_base@DV?$stream_output_adapter@D@__crt_stdio_output@@@__crt_stdio_output@@IEAA_NAEA_J@Z 00000001801570dc f i libucrt:output.obj
 0001:001560f0       ??$extract_argument_from_va_list@E_J@?$standard_base@DV?$string_output_adapter@D@__crt_stdio_output@@@__crt_stdio_output@@IEAA_NAEA_J@Z 00000001801570f0 f i libucrt:output.obj
 0001:00156104       ??$extract_argument_from_va_list@E_J@?$standard_base@_WV?$stream_output_adapter@_W@__crt_stdio_output@@@__crt_stdio_output@@IEAA_NAEA_J@Z 0000000180157104 f i libucrt:output.obj
 0001:00156118       ??$extract_argument_from_va_list@E_J@?$standard_base@_WV?$string_output_adapter@_W@__crt_stdio_output@@@__crt_stdio_output@@IEAA_NAEA_J@Z 0000000180157118 f i libucrt:output.obj
 0001:0015612c       ??$extract_argument_from_va_list@F_J@?$positional_parameter_base@DV?$stream_output_adapter@D@__crt_stdio_output@@@__crt_stdio_output@@IEAA_NAEA_J@Z 000000018015712c f i libucrt:output.obj
 0001:001561e8       ??$extract_argument_from_va_list@F_J@?$positional_parameter_base@DV?$string_output_adapter@D@__crt_stdio_output@@@__crt_stdio_output@@IEAA_NAEA_J@Z 00000001801571e8 f i libucrt:output.obj
 0001:001562a4       ??$extract_argument_from_va_list@F_J@?$positional_parameter_base@_WV?$stream_output_adapter@_W@__crt_stdio_output@@@__crt_stdio_output@@IEAA_NAEA_J@Z 00000001801572a4 f i libucrt:output.obj
 0001:00156364       ??$extract_argument_from_va_list@F_J@?$positional_parameter_base@_WV?$string_output_adapter@_W@__crt_stdio_output@@@__crt_stdio_output@@IEAA_NAEA_J@Z 0000000180157364 f i libucrt:output.obj
 0001:00156424       ??$extract_argument_from_va_list@F_J@?$standard_base@DV?$stream_output_adapter@D@__crt_stdio_output@@@__crt_stdio_output@@IEAA_NAEA_J@Z 0000000180157424 f i libucrt:output.obj
 0001:00156438       ??$extract_argument_from_va_list@F_J@?$standard_base@DV?$string_output_adapter@D@__crt_stdio_output@@@__crt_stdio_output@@IEAA_NAEA_J@Z 0000000180157438 f i libucrt:output.obj
 0001:0015644c       ??$extract_argument_from_va_list@F_J@?$standard_base@_WV?$stream_output_adapter@_W@__crt_stdio_output@@@__crt_stdio_output@@IEAA_NAEA_J@Z 000000018015744c f i libucrt:output.obj
 0001:00156460       ??$extract_argument_from_va_list@F_J@?$standard_base@_WV?$string_output_adapter@_W@__crt_stdio_output@@@__crt_stdio_output@@IEAA_NAEA_J@Z 0000000180157460 f i libucrt:output.obj
 0001:00156474       ??$extract_argument_from_va_list@GD@?$positional_parameter_base@DV?$stream_output_adapter@D@__crt_stdio_output@@@__crt_stdio_output@@IEAA_NAEAD@Z 0000000180157474 f i libucrt:output.obj
 0001:0015652c       ??$extract_argument_from_va_list@GD@?$positional_parameter_base@DV?$string_output_adapter@D@__crt_stdio_output@@@__crt_stdio_output@@IEAA_NAEAD@Z 000000018015752c f i libucrt:output.obj
 0001:001565e4       ??$extract_argument_from_va_list@GD@?$standard_base@DV?$stream_output_adapter@D@__crt_stdio_output@@@__crt_stdio_output@@IEAA_NAEAD@Z 00000001801575e4 f i libucrt:output.obj
 0001:001565f8       ??$extract_argument_from_va_list@GD@?$standard_base@DV?$string_output_adapter@D@__crt_stdio_output@@@__crt_stdio_output@@IEAA_NAEAD@Z 00000001801575f8 f i libucrt:output.obj
 0001:0015660c       ??$extract_argument_from_va_list@G_J@?$positional_parameter_base@DV?$stream_output_adapter@D@__crt_stdio_output@@@__crt_stdio_output@@IEAA_NAEA_J@Z 000000018015760c f i libucrt:output.obj
 0001:001566c8       ??$extract_argument_from_va_list@G_J@?$positional_parameter_base@DV?$string_output_adapter@D@__crt_stdio_output@@@__crt_stdio_output@@IEAA_NAEA_J@Z 00000001801576c8 f i libucrt:output.obj
 0001:00156784       ??$extract_argument_from_va_list@G_J@?$positional_parameter_base@_WV?$stream_output_adapter@_W@__crt_stdio_output@@@__crt_stdio_output@@IEAA_NAEA_J@Z 0000000180157784 f i libucrt:output.obj
 0001:00156844       ??$extract_argument_from_va_list@G_J@?$positional_parameter_base@_WV?$string_output_adapter@_W@__crt_stdio_output@@@__crt_stdio_output@@IEAA_NAEA_J@Z 0000000180157844 f i libucrt:output.obj
 0001:00156904       ??$extract_argument_from_va_list@G_J@?$standard_base@DV?$stream_output_adapter@D@__crt_stdio_output@@@__crt_stdio_output@@IEAA_NAEA_J@Z 0000000180157904 f i libucrt:output.obj
 0001:00156918       ??$extract_argument_from_va_list@G_J@?$standard_base@DV?$string_output_adapter@D@__crt_stdio_output@@@__crt_stdio_output@@IEAA_NAEA_J@Z 0000000180157918 f i libucrt:output.obj
 0001:0015692c       ??$extract_argument_from_va_list@G_J@?$standard_base@_WV?$stream_output_adapter@_W@__crt_stdio_output@@@__crt_stdio_output@@IEAA_NAEA_J@Z 000000018015792c f i libucrt:output.obj
 0001:00156940       ??$extract_argument_from_va_list@G_J@?$standard_base@_WV?$string_output_adapter@_W@__crt_stdio_output@@@__crt_stdio_output@@IEAA_NAEA_J@Z 0000000180157940 f i libucrt:output.obj
 0001:00156954       ??$extract_argument_from_va_list@H_J@?$positional_parameter_base@DV?$stream_output_adapter@D@__crt_stdio_output@@@__crt_stdio_output@@IEAA_NAEA_J@Z 0000000180157954 f i libucrt:output.obj
 0001:00156a10       ??$extract_argument_from_va_list@H_J@?$positional_parameter_base@DV?$string_output_adapter@D@__crt_stdio_output@@@__crt_stdio_output@@IEAA_NAEA_J@Z 0000000180157a10 f i libucrt:output.obj
 0001:00156acc       ??$extract_argument_from_va_list@H_J@?$positional_parameter_base@_WV?$stream_output_adapter@_W@__crt_stdio_output@@@__crt_stdio_output@@IEAA_NAEA_J@Z 0000000180157acc f i libucrt:output.obj
 0001:00156b88       ??$extract_argument_from_va_list@H_J@?$positional_parameter_base@_WV?$string_output_adapter@_W@__crt_stdio_output@@@__crt_stdio_output@@IEAA_NAEA_J@Z 0000000180157b88 f i libucrt:output.obj
 0001:00156c44       ??$extract_argument_from_va_list@H_J@?$standard_base@DV?$stream_output_adapter@D@__crt_stdio_output@@@__crt_stdio_output@@IEAA_NAEA_J@Z 0000000180157c44 f i libucrt:output.obj
 0001:00156c58       ??$extract_argument_from_va_list@H_J@?$standard_base@DV?$string_output_adapter@D@__crt_stdio_output@@@__crt_stdio_output@@IEAA_NAEA_J@Z 0000000180157c58 f i libucrt:output.obj
 0001:00156c6c       ??$extract_argument_from_va_list@H_J@?$standard_base@_WV?$stream_output_adapter@_W@__crt_stdio_output@@@__crt_stdio_output@@IEAA_NAEA_J@Z 0000000180157c6c f i libucrt:output.obj
 0001:00156c80       ??$extract_argument_from_va_list@H_J@?$standard_base@_WV?$string_output_adapter@_W@__crt_stdio_output@@@__crt_stdio_output@@IEAA_NAEA_J@Z 0000000180157c80 f i libucrt:output.obj
 0001:00156c94       ??$extract_argument_from_va_list@I_J@?$positional_parameter_base@DV?$stream_output_adapter@D@__crt_stdio_output@@@__crt_stdio_output@@IEAA_NAEA_J@Z 0000000180157c94 f i libucrt:output.obj
 0001:00156d50       ??$extract_argument_from_va_list@I_J@?$positional_parameter_base@DV?$string_output_adapter@D@__crt_stdio_output@@@__crt_stdio_output@@IEAA_NAEA_J@Z 0000000180157d50 f i libucrt:output.obj
 0001:00156e0c       ??$extract_argument_from_va_list@I_J@?$positional_parameter_base@_WV?$stream_output_adapter@_W@__crt_stdio_output@@@__crt_stdio_output@@IEAA_NAEA_J@Z 0000000180157e0c f i libucrt:output.obj
 0001:00156ec8       ??$extract_argument_from_va_list@I_J@?$positional_parameter_base@_WV?$string_output_adapter@_W@__crt_stdio_output@@@__crt_stdio_output@@IEAA_NAEA_J@Z 0000000180157ec8 f i libucrt:output.obj
 0001:00156f84       ??$extract_argument_from_va_list@I_J@?$standard_base@DV?$stream_output_adapter@D@__crt_stdio_output@@@__crt_stdio_output@@IEAA_NAEA_J@Z 0000000180157f84 f i libucrt:output.obj
 0001:00156f98       ??$extract_argument_from_va_list@I_J@?$standard_base@DV?$string_output_adapter@D@__crt_stdio_output@@@__crt_stdio_output@@IEAA_NAEA_J@Z 0000000180157f98 f i libucrt:output.obj
 0001:00156fac       ??$extract_argument_from_va_list@I_J@?$standard_base@_WV?$stream_output_adapter@_W@__crt_stdio_output@@@__crt_stdio_output@@IEAA_NAEA_J@Z 0000000180157fac f i libucrt:output.obj
 0001:00156fc0       ??$extract_argument_from_va_list@I_J@?$standard_base@_WV?$string_output_adapter@_W@__crt_stdio_output@@@__crt_stdio_output@@IEAA_NAEA_J@Z 0000000180157fc0 f i libucrt:output.obj
 0001:00156fd4       ??$extract_argument_from_va_list@PEADPEAD@?$positional_parameter_base@DV?$stream_output_adapter@D@__crt_stdio_output@@@__crt_stdio_output@@IEAA_NAEAPEAD@Z 0000000180157fd4 f i libucrt:output.obj
 0001:00157090       ??$extract_argument_from_va_list@PEADPEAD@?$positional_parameter_base@DV?$string_output_adapter@D@__crt_stdio_output@@@__crt_stdio_output@@IEAA_NAEAPEAD@Z 0000000180158090 f i libucrt:output.obj
 0001:0015714c       ??$extract_argument_from_va_list@PEADPEAD@?$positional_parameter_base@_WV?$stream_output_adapter@_W@__crt_stdio_output@@@__crt_stdio_output@@IEAA_NAEAPEAD@Z 000000018015814c f i libucrt:output.obj
 0001:00157208       ??$extract_argument_from_va_list@PEADPEAD@?$positional_parameter_base@_WV?$string_output_adapter@_W@__crt_stdio_output@@@__crt_stdio_output@@IEAA_NAEAPEAD@Z 0000000180158208 f i libucrt:output.obj
 0001:001572c4       ??$extract_argument_from_va_list@PEADPEAD@?$standard_base@DV?$stream_output_adapter@D@__crt_stdio_output@@@__crt_stdio_output@@IEAA_NAEAPEAD@Z 00000001801582c4 f i libucrt:output.obj
 0001:001572d8       ??$extract_argument_from_va_list@PEADPEAD@?$standard_base@DV?$string_output_adapter@D@__crt_stdio_output@@@__crt_stdio_output@@IEAA_NAEAPEAD@Z 00000001801582d8 f i libucrt:output.obj
 0001:001572ec       ??$extract_argument_from_va_list@PEADPEAD@?$standard_base@_WV?$stream_output_adapter@_W@__crt_stdio_output@@@__crt_stdio_output@@IEAA_NAEAPEAD@Z 00000001801582ec f i libucrt:output.obj
 0001:00157300       ??$extract_argument_from_va_list@PEADPEAD@?$standard_base@_WV?$string_output_adapter@_W@__crt_stdio_output@@@__crt_stdio_output@@IEAA_NAEAPEAD@Z 0000000180158300 f i libucrt:output.obj
 0001:00157314       ??$extract_argument_from_va_list@PEAUansi_string@?1??type_case_Z@?$output_processor@DV?$stream_output_adapter@D@__crt_stdio_output@@V?$format_validation_base@DV?$stream_output_adapter@D@__crt_stdio_output@@@2@@__crt_stdio_output@@AEAA_NXZ@PEAU1?1??234@AEAA_NXZ@@?$standard_base@DV?$stream_output_adapter@D@__crt_stdio_output@@@__crt_stdio_output@@IEAA_NAEAPEAUansi_string@?1??type_case_Z@?$output_processor@DV?$stream_output_adapter@D@__crt_stdio_output@@V?$format_validation_base@DV?$stream_output_adapter@D@__crt_stdio_output@@@2@@1@AEAA_NXZ@@Z 0000000180158314 f i libucrt:output.obj
 0001:00157328       ??$extract_argument_from_va_list@PEAUansi_string@?1??type_case_Z@?$output_processor@DV?$stream_output_adapter@D@__crt_stdio_output@@V?$positional_parameter_base@DV?$stream_output_adapter@D@__crt_stdio_output@@@2@@__crt_stdio_output@@AEAA_NXZ@PEAU1?1??234@AEAA_NXZ@@?$positional_parameter_base@DV?$stream_output_adapter@D@__crt_stdio_output@@@__crt_stdio_output@@IEAA_NAEAPEAUansi_string@?1??type_case_Z@?$output_processor@DV?$stream_output_adapter@D@__crt_stdio_output@@V?$positional_parameter_base@DV?$stream_output_adapter@D@__crt_stdio_output@@@2@@1@AEAA_NXZ@@Z 0000000180158328 f i libucrt:output.obj
 0001:001573e4       ??$extract_argument_from_va_list@PEAUansi_string@?1??type_case_Z@?$output_processor@DV?$stream_output_adapter@D@__crt_stdio_output@@V?$positional_parameter_base@DV?$stream_output_adapter@D@__crt_stdio_output@@@2@@__crt_stdio_output@@AEAA_NXZ@PEAU1?1??234@AEAA_NXZ@@?$standard_base@DV?$stream_output_adapter@D@__crt_stdio_output@@@__crt_stdio_output@@IEAA_NAEAPEAUansi_string@?1??type_case_Z@?$output_processor@DV?$stream_output_adapter@D@__crt_stdio_output@@V?$positional_parameter_base@DV?$stream_output_adapter@D@__crt_stdio_output@@@2@@1@AEAA_NXZ@@Z 00000001801583e4 f i libucrt:output.obj
 0001:001573f8       ??$extract_argument_from_va_list@PEAUansi_string@?1??type_case_Z@?$output_processor@DV?$stream_output_adapter@D@__crt_stdio_output@@V?$standard_base@DV?$stream_output_adapter@D@__crt_stdio_output@@@2@@__crt_stdio_output@@AEAA_NXZ@PEAU1?1??234@AEAA_NXZ@@?$standard_base@DV?$stream_output_adapter@D@__crt_stdio_output@@@__crt_stdio_output@@IEAA_NAEAPEAUansi_string@?1??type_case_Z@?$output_processor@DV?$stream_output_adapter@D@__crt_stdio_output@@V?$standard_base@DV?$stream_output_adapter@D@__crt_stdio_output@@@2@@1@AEAA_NXZ@@Z 00000001801583f8 f i libucrt:output.obj
 0001:0015740c       ??$extract_argument_from_va_list@PEAUansi_string@?1??type_case_Z@?$output_processor@DV?$string_output_adapter@D@__crt_stdio_output@@V?$format_validation_base@DV?$string_output_adapter@D@__crt_stdio_output@@@2@@__crt_stdio_output@@AEAA_NXZ@PEAU1?1??234@AEAA_NXZ@@?$standard_base@DV?$string_output_adapter@D@__crt_stdio_output@@@__crt_stdio_output@@IEAA_NAEAPEAUansi_string@?1??type_case_Z@?$output_processor@DV?$string_output_adapter@D@__crt_stdio_output@@V?$format_validation_base@DV?$string_output_adapter@D@__crt_stdio_output@@@2@@1@AEAA_NXZ@@Z 000000018015840c f i libucrt:output.obj
 0001:00157420       ??$extract_argument_from_va_list@PEAUansi_string@?1??type_case_Z@?$output_processor@DV?$string_output_adapter@D@__crt_stdio_output@@V?$positional_parameter_base@DV?$string_output_adapter@D@__crt_stdio_output@@@2@@__crt_stdio_output@@AEAA_NXZ@PEAU1?1??234@AEAA_NXZ@@?$positional_parameter_base@DV?$string_output_adapter@D@__crt_stdio_output@@@__crt_stdio_output@@IEAA_NAEAPEAUansi_string@?1??type_case_Z@?$output_processor@DV?$string_output_adapter@D@__crt_stdio_output@@V?$positional_parameter_base@DV?$string_output_adapter@D@__crt_stdio_output@@@2@@1@AEAA_NXZ@@Z 0000000180158420 f i libucrt:output.obj
 0001:001574dc       ??$extract_argument_from_va_list@PEAUansi_string@?1??type_case_Z@?$output_processor@DV?$string_output_adapter@D@__crt_stdio_output@@V?$positional_parameter_base@DV?$string_output_adapter@D@__crt_stdio_output@@@2@@__crt_stdio_output@@AEAA_NXZ@PEAU1?1??234@AEAA_NXZ@@?$standard_base@DV?$string_output_adapter@D@__crt_stdio_output@@@__crt_stdio_output@@IEAA_NAEAPEAUansi_string@?1??type_case_Z@?$output_processor@DV?$string_output_adapter@D@__crt_stdio_output@@V?$positional_parameter_base@DV?$string_output_adapter@D@__crt_stdio_output@@@2@@1@AEAA_NXZ@@Z 00000001801584dc f i libucrt:output.obj
 0001:001574f0       ??$extract_argument_from_va_list@PEAUansi_string@?1??type_case_Z@?$output_processor@DV?$string_output_adapter@D@__crt_stdio_output@@V?$standard_base@DV?$string_output_adapter@D@__crt_stdio_output@@@2@@__crt_stdio_output@@AEAA_NXZ@PEAU1?1??234@AEAA_NXZ@@?$standard_base@DV?$string_output_adapter@D@__crt_stdio_output@@@__crt_stdio_output@@IEAA_NAEAPEAUansi_string@?1??type_case_Z@?$output_processor@DV?$string_output_adapter@D@__crt_stdio_output@@V?$standard_base@DV?$string_output_adapter@D@__crt_stdio_output@@@2@@1@AEAA_NXZ@@Z 00000001801584f0 f i libucrt:output.obj
 0001:00157504       ??$extract_argument_from_va_list@PEAUansi_string@?1??type_case_Z@?$output_processor@_WV?$stream_output_adapter@_W@__crt_stdio_output@@V?$format_validation_base@_WV?$stream_output_adapter@_W@__crt_stdio_output@@@2@@__crt_stdio_output@@AEAA_NXZ@PEAU1?1??234@AEAA_NXZ@@?$standard_base@_WV?$stream_output_adapter@_W@__crt_stdio_output@@@__crt_stdio_output@@IEAA_NAEAPEAUansi_string@?1??type_case_Z@?$output_processor@_WV?$stream_output_adapter@_W@__crt_stdio_output@@V?$format_validation_base@_WV?$stream_output_adapter@_W@__crt_stdio_output@@@2@@1@AEAA_NXZ@@Z 0000000180158504 f i libucrt:output.obj
 0001:00157518       ??$extract_argument_from_va_list@PEAUansi_string@?1??type_case_Z@?$output_processor@_WV?$stream_output_adapter@_W@__crt_stdio_output@@V?$positional_parameter_base@_WV?$stream_output_adapter@_W@__crt_stdio_output@@@2@@__crt_stdio_output@@AEAA_NXZ@PEAU1?1??234@AEAA_NXZ@@?$positional_parameter_base@_WV?$stream_output_adapter@_W@__crt_stdio_output@@@__crt_stdio_output@@IEAA_NAEAPEAUansi_string@?1??type_case_Z@?$output_processor@_WV?$stream_output_adapter@_W@__crt_stdio_output@@V?$positional_parameter_base@_WV?$stream_output_adapter@_W@__crt_stdio_output@@@2@@1@AEAA_NXZ@@Z 0000000180158518 f i libucrt:output.obj
 0001:001575d4       ??$extract_argument_from_va_list@PEAUansi_string@?1??type_case_Z@?$output_processor@_WV?$stream_output_adapter@_W@__crt_stdio_output@@V?$positional_parameter_base@_WV?$stream_output_adapter@_W@__crt_stdio_output@@@2@@__crt_stdio_output@@AEAA_NXZ@PEAU1?1??234@AEAA_NXZ@@?$standard_base@_WV?$stream_output_adapter@_W@__crt_stdio_output@@@__crt_stdio_output@@IEAA_NAEAPEAUansi_string@?1??type_case_Z@?$output_processor@_WV?$stream_output_adapter@_W@__crt_stdio_output@@V?$positional_parameter_base@_WV?$stream_output_adapter@_W@__crt_stdio_output@@@2@@1@AEAA_NXZ@@Z 00000001801585d4 f i libucrt:output.obj
 0001:001575e8       ??$extract_argument_from_va_list@PEAUansi_string@?1??type_case_Z@?$output_processor@_WV?$stream_output_adapter@_W@__crt_stdio_output@@V?$standard_base@_WV?$stream_output_adapter@_W@__crt_stdio_output@@@2@@__crt_stdio_output@@AEAA_NXZ@PEAU1?1??234@AEAA_NXZ@@?$standard_base@_WV?$stream_output_adapter@_W@__crt_stdio_output@@@__crt_stdio_output@@IEAA_NAEAPEAUansi_string@?1??type_case_Z@?$output_processor@_WV?$stream_output_adapter@_W@__crt_stdio_output@@V?$standard_base@_WV?$stream_output_adapter@_W@__crt_stdio_output@@@2@@1@AEAA_NXZ@@Z 00000001801585e8 f i libucrt:output.obj
 0001:001575fc       ??$extract_argument_from_va_list@PEAUansi_string@?1??type_case_Z@?$output_processor@_WV?$string_output_adapter@_W@__crt_stdio_output@@V?$format_validation_base@_WV?$string_output_adapter@_W@__crt_stdio_output@@@2@@__crt_stdio_output@@AEAA_NXZ@PEAU1?1??234@AEAA_NXZ@@?$standard_base@_WV?$string_output_adapter@_W@__crt_stdio_output@@@__crt_stdio_output@@IEAA_NAEAPEAUansi_string@?1??type_case_Z@?$output_processor@_WV?$string_output_adapter@_W@__crt_stdio_output@@V?$format_validation_base@_WV?$string_output_adapter@_W@__crt_stdio_output@@@2@@1@AEAA_NXZ@@Z 00000001801585fc f i libucrt:output.obj
 0001:00157610       ??$extract_argument_from_va_list@PEAUansi_string@?1??type_case_Z@?$output_processor@_WV?$string_output_adapter@_W@__crt_stdio_output@@V?$positional_parameter_base@_WV?$string_output_adapter@_W@__crt_stdio_output@@@2@@__crt_stdio_output@@AEAA_NXZ@PEAU1?1??234@AEAA_NXZ@@?$positional_parameter_base@_WV?$string_output_adapter@_W@__crt_stdio_output@@@__crt_stdio_output@@IEAA_NAEAPEAUansi_string@?1??type_case_Z@?$output_processor@_WV?$string_output_adapter@_W@__crt_stdio_output@@V?$positional_parameter_base@_WV?$string_output_adapter@_W@__crt_stdio_output@@@2@@1@AEAA_NXZ@@Z 0000000180158610 f i libucrt:output.obj
 0001:001576cc       ??$extract_argument_from_va_list@PEAUansi_string@?1??type_case_Z@?$output_processor@_WV?$string_output_adapter@_W@__crt_stdio_output@@V?$positional_parameter_base@_WV?$string_output_adapter@_W@__crt_stdio_output@@@2@@__crt_stdio_output@@AEAA_NXZ@PEAU1?1??234@AEAA_NXZ@@?$standard_base@_WV?$string_output_adapter@_W@__crt_stdio_output@@@__crt_stdio_output@@IEAA_NAEAPEAUansi_string@?1??type_case_Z@?$output_processor@_WV?$string_output_adapter@_W@__crt_stdio_output@@V?$positional_parameter_base@_WV?$string_output_adapter@_W@__crt_stdio_output@@@2@@1@AEAA_NXZ@@Z 00000001801586cc f i libucrt:output.obj
 0001:001576e0       ??$extract_argument_from_va_list@PEAUansi_string@?1??type_case_Z@?$output_processor@_WV?$string_output_adapter@_W@__crt_stdio_output@@V?$standard_base@_WV?$string_output_adapter@_W@__crt_stdio_output@@@2@@__crt_stdio_output@@AEAA_NXZ@PEAU1?1??234@AEAA_NXZ@@?$standard_base@_WV?$string_output_adapter@_W@__crt_stdio_output@@@__crt_stdio_output@@IEAA_NAEAPEAUansi_string@?1??type_case_Z@?$output_processor@_WV?$string_output_adapter@_W@__crt_stdio_output@@V?$standard_base@_WV?$string_output_adapter@_W@__crt_stdio_output@@@2@@1@AEAA_NXZ@@Z 00000001801586e0 f i libucrt:output.obj
 0001:001576f4       ??$extract_argument_from_va_list@PEAXPEAX@?$positional_parameter_base@DV?$stream_output_adapter@D@__crt_stdio_output@@@__crt_stdio_output@@IEAA_NAEAPEAX@Z 00000001801586f4 f i libucrt:output.obj
 0001:001577b0       ??$extract_argument_from_va_list@PEAXPEAX@?$positional_parameter_base@DV?$string_output_adapter@D@__crt_stdio_output@@@__crt_stdio_output@@IEAA_NAEAPEAX@Z 00000001801587b0 f i libucrt:output.obj
 0001:0015786c       ??$extract_argument_from_va_list@PEAXPEAX@?$positional_parameter_base@_WV?$stream_output_adapter@_W@__crt_stdio_output@@@__crt_stdio_output@@IEAA_NAEAPEAX@Z 000000018015886c f i libucrt:output.obj
 0001:00157928       ??$extract_argument_from_va_list@PEAXPEAX@?$positional_parameter_base@_WV?$string_output_adapter@_W@__crt_stdio_output@@@__crt_stdio_output@@IEAA_NAEAPEAX@Z 0000000180158928 f i libucrt:output.obj
 0001:001579e4       ??$extract_argument_from_va_list@PEAXPEAX@?$standard_base@DV?$stream_output_adapter@D@__crt_stdio_output@@@__crt_stdio_output@@IEAA_NAEAPEAX@Z 00000001801589e4 f i libucrt:output.obj
 0001:001579f8       ??$extract_argument_from_va_list@PEAXPEAX@?$standard_base@DV?$string_output_adapter@D@__crt_stdio_output@@@__crt_stdio_output@@IEAA_NAEAPEAX@Z 00000001801589f8 f i libucrt:output.obj
 0001:00157a0c       ??$extract_argument_from_va_list@PEAXPEAX@?$standard_base@_WV?$stream_output_adapter@_W@__crt_stdio_output@@@__crt_stdio_output@@IEAA_NAEAPEAX@Z 0000000180158a0c f i libucrt:output.obj
 0001:00157a20       ??$extract_argument_from_va_list@PEAXPEAX@?$standard_base@_WV?$string_output_adapter@_W@__crt_stdio_output@@@__crt_stdio_output@@IEAA_NAEAPEAX@Z 0000000180158a20 f i libucrt:output.obj
 0001:00157a34       ??$extract_argument_from_va_list@U_CRT_DOUBLE@@U1@@?$positional_parameter_base@DV?$stream_output_adapter@D@__crt_stdio_output@@@__crt_stdio_output@@IEAA_NAEAU_CRT_DOUBLE@@@Z 0000000180158a34 f i libucrt:output.obj
 0001:00157af0       ??$extract_argument_from_va_list@U_CRT_DOUBLE@@U1@@?$positional_parameter_base@DV?$string_output_adapter@D@__crt_stdio_output@@@__crt_stdio_output@@IEAA_NAEAU_CRT_DOUBLE@@@Z 0000000180158af0 f i libucrt:output.obj
 0001:00157bac       ??$extract_argument_from_va_list@U_CRT_DOUBLE@@U1@@?$positional_parameter_base@_WV?$stream_output_adapter@_W@__crt_stdio_output@@@__crt_stdio_output@@IEAA_NAEAU_CRT_DOUBLE@@@Z 0000000180158bac f i libucrt:output.obj
 0001:00157c68       ??$extract_argument_from_va_list@U_CRT_DOUBLE@@U1@@?$positional_parameter_base@_WV?$string_output_adapter@_W@__crt_stdio_output@@@__crt_stdio_output@@IEAA_NAEAU_CRT_DOUBLE@@@Z 0000000180158c68 f i libucrt:output.obj
 0001:00157d24       ??$extract_argument_from_va_list@U_CRT_DOUBLE@@U1@@?$standard_base@DV?$stream_output_adapter@D@__crt_stdio_output@@@__crt_stdio_output@@IEAA_NAEAU_CRT_DOUBLE@@@Z 0000000180158d24 f i libucrt:output.obj
 0001:00157d3c       ??$extract_argument_from_va_list@U_CRT_DOUBLE@@U1@@?$standard_base@DV?$string_output_adapter@D@__crt_stdio_output@@@__crt_stdio_output@@IEAA_NAEAU_CRT_DOUBLE@@@Z 0000000180158d3c f i libucrt:output.obj
 0001:00157d54       ??$extract_argument_from_va_list@U_CRT_DOUBLE@@U1@@?$standard_base@_WV?$stream_output_adapter@_W@__crt_stdio_output@@@__crt_stdio_output@@IEAA_NAEAU_CRT_DOUBLE@@@Z 0000000180158d54 f i libucrt:output.obj
 0001:00157d6c       ??$extract_argument_from_va_list@U_CRT_DOUBLE@@U1@@?$standard_base@_WV?$string_output_adapter@_W@__crt_stdio_output@@@__crt_stdio_output@@IEAA_NAEAU_CRT_DOUBLE@@@Z 0000000180158d6c f i libucrt:output.obj
 0001:00157d84       ??$extract_argument_from_va_list@_J_J@?$positional_parameter_base@DV?$stream_output_adapter@D@__crt_stdio_output@@@__crt_stdio_output@@IEAA_NAEA_J@Z 0000000180158d84 f i libucrt:output.obj
 0001:00157e40       ??$extract_argument_from_va_list@_J_J@?$positional_parameter_base@DV?$string_output_adapter@D@__crt_stdio_output@@@__crt_stdio_output@@IEAA_NAEA_J@Z 0000000180158e40 f i libucrt:output.obj
 0001:00157efc       ??$extract_argument_from_va_list@_J_J@?$positional_parameter_base@_WV?$stream_output_adapter@_W@__crt_stdio_output@@@__crt_stdio_output@@IEAA_NAEA_J@Z 0000000180158efc f i libucrt:output.obj
 0001:00157fb8       ??$extract_argument_from_va_list@_J_J@?$positional_parameter_base@_WV?$string_output_adapter@_W@__crt_stdio_output@@@__crt_stdio_output@@IEAA_NAEA_J@Z 0000000180158fb8 f i libucrt:output.obj
 0001:00158074       ??$extract_argument_from_va_list@_J_J@?$standard_base@DV?$stream_output_adapter@D@__crt_stdio_output@@@__crt_stdio_output@@IEAA_NAEA_J@Z 0000000180159074 f i libucrt:output.obj
 0001:00158088       ??$extract_argument_from_va_list@_J_J@?$standard_base@DV?$string_output_adapter@D@__crt_stdio_output@@@__crt_stdio_output@@IEAA_NAEA_J@Z 0000000180159088 f i libucrt:output.obj
 0001:0015809c       ??$extract_argument_from_va_list@_J_J@?$standard_base@_WV?$stream_output_adapter@_W@__crt_stdio_output@@@__crt_stdio_output@@IEAA_NAEA_J@Z 000000018015909c f i libucrt:output.obj
 0001:001580b0       ??$extract_argument_from_va_list@_J_J@?$standard_base@_WV?$string_output_adapter@_W@__crt_stdio_output@@@__crt_stdio_output@@IEAA_NAEA_J@Z 00000001801590b0 f i libucrt:output.obj
 0001:001580c4       ??$extract_argument_from_va_list@_K_J@?$positional_parameter_base@DV?$stream_output_adapter@D@__crt_stdio_output@@@__crt_stdio_output@@IEAA_NAEA_J@Z 00000001801590c4 f i libucrt:output.obj
 0001:00158180       ??$extract_argument_from_va_list@_K_J@?$positional_parameter_base@DV?$string_output_adapter@D@__crt_stdio_output@@@__crt_stdio_output@@IEAA_NAEA_J@Z 0000000180159180 f i libucrt:output.obj
 0001:0015823c       ??$extract_argument_from_va_list@_K_J@?$positional_parameter_base@_WV?$stream_output_adapter@_W@__crt_stdio_output@@@__crt_stdio_output@@IEAA_NAEA_J@Z 000000018015923c f i libucrt:output.obj
 0001:001582f8       ??$extract_argument_from_va_list@_K_J@?$positional_parameter_base@_WV?$string_output_adapter@_W@__crt_stdio_output@@@__crt_stdio_output@@IEAA_NAEA_J@Z 00000001801592f8 f i libucrt:output.obj
 0001:001583b4       ??$extract_argument_from_va_list@_K_J@?$standard_base@DV?$stream_output_adapter@D@__crt_stdio_output@@@__crt_stdio_output@@IEAA_NAEA_J@Z 00000001801593b4 f i libucrt:output.obj
 0001:001583c8       ??$extract_argument_from_va_list@_K_J@?$standard_base@DV?$string_output_adapter@D@__crt_stdio_output@@@__crt_stdio_output@@IEAA_NAEA_J@Z 00000001801593c8 f i libucrt:output.obj
 0001:001583dc       ??$extract_argument_from_va_list@_K_J@?$standard_base@_WV?$stream_output_adapter@_W@__crt_stdio_output@@@__crt_stdio_output@@IEAA_NAEA_J@Z 00000001801593dc f i libucrt:output.obj
 0001:001583f0       ??$extract_argument_from_va_list@_K_J@?$standard_base@_WV?$string_output_adapter@_W@__crt_stdio_output@@@__crt_stdio_output@@IEAA_NAEA_J@Z 00000001801593f0 f i libucrt:output.obj
 0001:00158404       ??$extract_argument_from_va_list@_W_W@?$positional_parameter_base@DV?$stream_output_adapter@D@__crt_stdio_output@@@__crt_stdio_output@@IEAA_NAEA_W@Z 0000000180159404 f i libucrt:output.obj
 0001:001584c0       ??$extract_argument_from_va_list@_W_W@?$positional_parameter_base@DV?$string_output_adapter@D@__crt_stdio_output@@@__crt_stdio_output@@IEAA_NAEA_W@Z 00000001801594c0 f i libucrt:output.obj
 0001:0015857c       ??$extract_argument_from_va_list@_W_W@?$positional_parameter_base@_WV?$stream_output_adapter@_W@__crt_stdio_output@@@__crt_stdio_output@@IEAA_NAEA_W@Z 000000018015957c f i libucrt:output.obj
 0001:0015863c       ??$extract_argument_from_va_list@_W_W@?$positional_parameter_base@_WV?$string_output_adapter@_W@__crt_stdio_output@@@__crt_stdio_output@@IEAA_NAEA_W@Z 000000018015963c f i libucrt:output.obj
 0001:001586fc       ??$extract_argument_from_va_list@_W_W@?$standard_base@DV?$stream_output_adapter@D@__crt_stdio_output@@@__crt_stdio_output@@IEAA_NAEA_W@Z 00000001801596fc f i libucrt:output.obj
 0001:00158710       ??$extract_argument_from_va_list@_W_W@?$standard_base@DV?$string_output_adapter@D@__crt_stdio_output@@@__crt_stdio_output@@IEAA_NAEA_W@Z 0000000180159710 f i libucrt:output.obj
 0001:00158724       ??$extract_argument_from_va_list@_W_W@?$standard_base@_WV?$stream_output_adapter@_W@__crt_stdio_output@@@__crt_stdio_output@@IEAA_NAEA_W@Z 0000000180159724 f i libucrt:output.obj
 0001:00158738       ??$extract_argument_from_va_list@_W_W@?$standard_base@_WV?$string_output_adapter@_W@__crt_stdio_output@@@__crt_stdio_output@@IEAA_NAEA_W@Z 0000000180159738 f i libucrt:output.obj
 0001:0015874c       ??$get_parameter_type@D@?$positional_parameter_base@DV?$stream_output_adapter@D@__crt_stdio_output@@@__crt_stdio_output@@CA?AW4parameter_type@01@PEAD@Z 000000018015974c f i libucrt:output.obj
 0001:00158754       ??$get_parameter_type@D@?$positional_parameter_base@DV?$string_output_adapter@D@__crt_stdio_output@@@__crt_stdio_output@@CA?AW4parameter_type@01@PEAD@Z 0000000180159754 f i libucrt:output.obj
 0001:0015875c       ??$get_parameter_type@D@?$positional_parameter_base@_WV?$stream_output_adapter@_W@__crt_stdio_output@@@__crt_stdio_output@@CA?AW4parameter_type@01@PEAD@Z 000000018015975c f i libucrt:output.obj
 0001:00158764       ??$get_parameter_type@D@?$positional_parameter_base@_WV?$string_output_adapter@_W@__crt_stdio_output@@@__crt_stdio_output@@CA?AW4parameter_type@01@PEAD@Z 0000000180159764 f i libucrt:output.obj
 0001:0015876c       ??$get_parameter_type@Uansi_string@?1??type_case_Z@?$output_processor@DV?$stream_output_adapter@D@__crt_stdio_output@@V?$positional_parameter_base@DV?$stream_output_adapter@D@__crt_stdio_output@@@2@@__crt_stdio_output@@AEAA_NXZ@@?$positional_parameter_base@DV?$stream_output_adapter@D@__crt_stdio_output@@@__crt_stdio_output@@CA?AW4parameter_type@01@PEAUansi_string@?1??type_case_Z@?$output_processor@DV?$stream_output_adapter@D@__crt_stdio_output@@V?$positional_parameter_base@DV?$stream_output_adapter@D@__crt_stdio_output@@@2@@1@AEAA_NXZ@@Z 000000018015976c f i libucrt:output.obj
 0001:00158774       ??$get_parameter_type@Uansi_string@?1??type_case_Z@?$output_processor@DV?$string_output_adapter@D@__crt_stdio_output@@V?$positional_parameter_base@DV?$string_output_adapter@D@__crt_stdio_output@@@2@@__crt_stdio_output@@AEAA_NXZ@@?$positional_parameter_base@DV?$string_output_adapter@D@__crt_stdio_output@@@__crt_stdio_output@@CA?AW4parameter_type@01@PEAUansi_string@?1??type_case_Z@?$output_processor@DV?$string_output_adapter@D@__crt_stdio_output@@V?$positional_parameter_base@DV?$string_output_adapter@D@__crt_stdio_output@@@2@@1@AEAA_NXZ@@Z 0000000180159774 f i libucrt:output.obj
 0001:0015877c       ??$get_parameter_type@Uansi_string@?1??type_case_Z@?$output_processor@_WV?$stream_output_adapter@_W@__crt_stdio_output@@V?$positional_parameter_base@_WV?$stream_output_adapter@_W@__crt_stdio_output@@@2@@__crt_stdio_output@@AEAA_NXZ@@?$positional_parameter_base@_WV?$stream_output_adapter@_W@__crt_stdio_output@@@__crt_stdio_output@@CA?AW4parameter_type@01@PEAUansi_string@?1??type_case_Z@?$output_processor@_WV?$stream_output_adapter@_W@__crt_stdio_output@@V?$positional_parameter_base@_WV?$stream_output_adapter@_W@__crt_stdio_output@@@2@@1@AEAA_NXZ@@Z 000000018015977c f i libucrt:output.obj
 0001:00158784       ??$get_parameter_type@Uansi_string@?1??type_case_Z@?$output_processor@_WV?$string_output_adapter@_W@__crt_stdio_output@@V?$positional_parameter_base@_WV?$string_output_adapter@_W@__crt_stdio_output@@@2@@__crt_stdio_output@@AEAA_NXZ@@?$positional_parameter_base@_WV?$string_output_adapter@_W@__crt_stdio_output@@@__crt_stdio_output@@CA?AW4parameter_type@01@PEAUansi_string@?1??type_case_Z@?$output_processor@_WV?$string_output_adapter@_W@__crt_stdio_output@@V?$positional_parameter_base@_WV?$string_output_adapter@_W@__crt_stdio_output@@@2@@1@AEAA_NXZ@@Z 0000000180159784 f i libucrt:output.obj
 0001:0015878c       ??$get_parameter_type@X@?$positional_parameter_base@DV?$stream_output_adapter@D@__crt_stdio_output@@@__crt_stdio_output@@CA?AW4parameter_type@01@PEAX@Z 000000018015978c f i libucrt:output.obj
 0001:00158794       ??$get_parameter_type@X@?$positional_parameter_base@DV?$string_output_adapter@D@__crt_stdio_output@@@__crt_stdio_output@@CA?AW4parameter_type@01@PEAX@Z 0000000180159794 f i libucrt:output.obj
 0001:0015879c       ??$get_parameter_type@X@?$positional_parameter_base@_WV?$stream_output_adapter@_W@__crt_stdio_output@@@__crt_stdio_output@@CA?AW4parameter_type@01@PEAX@Z 000000018015979c f i libucrt:output.obj
 0001:001587a4       ??$get_parameter_type@X@?$positional_parameter_base@_WV?$string_output_adapter@_W@__crt_stdio_output@@@__crt_stdio_output@@CA?AW4parameter_type@01@PEAX@Z 00000001801597a4 f i libucrt:output.obj
 0001:001587ac       ??$is_character_specifier@D@?$positional_parameter_base@DV?$stream_output_adapter@D@__crt_stdio_output@@@__crt_stdio_output@@CA_ND@Z 00000001801597ac f i libucrt:output.obj
 0001:001587b8       ??$is_character_specifier@D@?$positional_parameter_base@DV?$string_output_adapter@D@__crt_stdio_output@@@__crt_stdio_output@@CA_ND@Z 00000001801597b8 f i libucrt:output.obj
 0001:001587c4       ??$is_character_specifier@_W@?$positional_parameter_base@_WV?$stream_output_adapter@_W@__crt_stdio_output@@@__crt_stdio_output@@CA_N_W@Z 00000001801597c4 f i libucrt:output.obj
 0001:001587d4       ??$is_character_specifier@_W@?$positional_parameter_base@_WV?$string_output_adapter@_W@__crt_stdio_output@@@__crt_stdio_output@@CA_N_W@Z 00000001801597d4 f i libucrt:output.obj
 0001:001587e4       ??$is_integral_specifier@D@?$positional_parameter_base@DV?$stream_output_adapter@D@__crt_stdio_output@@@__crt_stdio_output@@CA_ND@Z 00000001801597e4 f i libucrt:output.obj
 0001:00158808       ??$is_integral_specifier@D@?$positional_parameter_base@DV?$string_output_adapter@D@__crt_stdio_output@@@__crt_stdio_output@@CA_ND@Z 0000000180159808 f i libucrt:output.obj
 0001:0015882c       ??$is_integral_specifier@_W@?$positional_parameter_base@_WV?$stream_output_adapter@_W@__crt_stdio_output@@@__crt_stdio_output@@CA_N_W@Z 000000018015982c f i libucrt:output.obj
 0001:00158854       ??$is_integral_specifier@_W@?$positional_parameter_base@_WV?$string_output_adapter@_W@__crt_stdio_output@@@__crt_stdio_output@@CA_N_W@Z 0000000180159854 f i libucrt:output.obj
 0001:0015887c       ??$is_pointer_specifier@D@?$positional_parameter_base@DV?$stream_output_adapter@D@__crt_stdio_output@@@__crt_stdio_output@@CA_ND@Z 000000018015987c f i libucrt:output.obj
 0001:00158884       ??$is_pointer_specifier@D@?$positional_parameter_base@DV?$string_output_adapter@D@__crt_stdio_output@@@__crt_stdio_output@@CA_ND@Z 0000000180159884 f i libucrt:output.obj
 0001:0015888c       ??$is_pointer_specifier@_W@?$positional_parameter_base@_WV?$stream_output_adapter@_W@__crt_stdio_output@@@__crt_stdio_output@@CA_N_W@Z 000000018015988c f i libucrt:output.obj
 0001:00158894       ??$is_pointer_specifier@_W@?$positional_parameter_base@_WV?$string_output_adapter@_W@__crt_stdio_output@@@__crt_stdio_output@@CA_N_W@Z 0000000180159894 f i libucrt:output.obj
 0001:0015889c       ??$is_string_specifier@D@?$positional_parameter_base@DV?$stream_output_adapter@D@__crt_stdio_output@@@__crt_stdio_output@@CA_ND@Z 000000018015989c f i libucrt:output.obj
 0001:001588a8       ??$is_string_specifier@D@?$positional_parameter_base@DV?$string_output_adapter@D@__crt_stdio_output@@@__crt_stdio_output@@CA_ND@Z 00000001801598a8 f i libucrt:output.obj
 0001:001588b4       ??$is_string_specifier@_W@?$positional_parameter_base@_WV?$stream_output_adapter@_W@__crt_stdio_output@@@__crt_stdio_output@@CA_N_W@Z 00000001801598b4 f i libucrt:output.obj
 0001:001588c4       ??$is_string_specifier@_W@?$positional_parameter_base@_WV?$string_output_adapter@_W@__crt_stdio_output@@@__crt_stdio_output@@CA_N_W@Z 00000001801598c4 f i libucrt:output.obj
 0001:001588d4       ??$is_wide_character_specifier@D@__crt_stdio_output@@YA_N_KDW4length_modifier@0@@Z 00000001801598d4 f i libucrt:output.obj
 0001:001588fc       ??$is_wide_character_specifier@_W@__crt_stdio_output@@YA_N_K_WW4length_modifier@0@@Z 00000001801598fc f i libucrt:output.obj
 0001:0015893c       ??$peek_va_arg@C@__crt_stdio_output@@YACPEAD@Z 000000018015993c f i libucrt:output.obj
 0001:00158940       ??$peek_va_arg@E@__crt_stdio_output@@YAEPEAD@Z 0000000180159940 f i libucrt:output.obj
 0001:00158944       ??$peek_va_arg@F@__crt_stdio_output@@YAFPEAD@Z 0000000180159944 f i libucrt:output.obj
 0001:00158948       ??$peek_va_arg@G@__crt_stdio_output@@YAGPEAD@Z 0000000180159948 f i libucrt:output.obj
 0001:0015894c       ??$peek_va_arg@H@__crt_stdio_output@@YAHPEAD@Z 000000018015994c f i libucrt:output.obj
 0001:00158950       ??$peek_va_arg@I@__crt_stdio_output@@YAIPEAD@Z 0000000180159950 f i libucrt:output.obj
 0001:00158954       ??$peek_va_arg@PEAD@__crt_stdio_output@@YAPEADPEAD@Z 0000000180159954 f i libucrt:output.obj
 0001:00158958       ??$peek_va_arg@PEAUansi_string@?1??type_case_Z@?$output_processor@DV?$stream_output_adapter@D@__crt_stdio_output@@V?$positional_parameter_base@DV?$stream_output_adapter@D@__crt_stdio_output@@@2@@__crt_stdio_output@@AEAA_NXZ@@__crt_stdio_output@@YAPEAUansi_string@?1??type_case_Z@?$output_processor@DV?$stream_output_adapter@D@__crt_stdio_output@@V?$positional_parameter_base@DV?$stream_output_adapter@D@__crt_stdio_output@@@2@@0@AEAA_NXZ@PEAD@Z 0000000180159958 f i libucrt:output.obj
 0001:0015895c       ??$peek_va_arg@PEAUansi_string@?1??type_case_Z@?$output_processor@DV?$string_output_adapter@D@__crt_stdio_output@@V?$positional_parameter_base@DV?$string_output_adapter@D@__crt_stdio_output@@@2@@__crt_stdio_output@@AEAA_NXZ@@__crt_stdio_output@@YAPEAUansi_string@?1??type_case_Z@?$output_processor@DV?$string_output_adapter@D@__crt_stdio_output@@V?$positional_parameter_base@DV?$string_output_adapter@D@__crt_stdio_output@@@2@@0@AEAA_NXZ@PEAD@Z 000000018015995c f i libucrt:output.obj
 0001:00158960       ??$peek_va_arg@PEAUansi_string@?1??type_case_Z@?$output_processor@_WV?$stream_output_adapter@_W@__crt_stdio_output@@V?$positional_parameter_base@_WV?$stream_output_adapter@_W@__crt_stdio_output@@@2@@__crt_stdio_output@@AEAA_NXZ@@__crt_stdio_output@@YAPEAUansi_string@?1??type_case_Z@?$output_processor@_WV?$stream_output_adapter@_W@__crt_stdio_output@@V?$positional_parameter_base@_WV?$stream_output_adapter@_W@__crt_stdio_output@@@2@@0@AEAA_NXZ@PEAD@Z 0000000180159960 f i libucrt:output.obj
 0001:00158964       ??$peek_va_arg@PEAUansi_string@?1??type_case_Z@?$output_processor@_WV?$string_output_adapter@_W@__crt_stdio_output@@V?$positional_parameter_base@_WV?$string_output_adapter@_W@__crt_stdio_output@@@2@@__crt_stdio_output@@AEAA_NXZ@@__crt_stdio_output@@YAPEAUansi_string@?1??type_case_Z@?$output_processor@_WV?$string_output_adapter@_W@__crt_stdio_output@@V?$positional_parameter_base@_WV?$string_output_adapter@_W@__crt_stdio_output@@@2@@0@AEAA_NXZ@PEAD@Z 0000000180159964 f i libucrt:output.obj
 0001:00158968       ??$peek_va_arg@PEAX@__crt_stdio_output@@YAPEAXPEAD@Z 0000000180159968 f i libucrt:output.obj
 0001:0015896c       ??$peek_va_arg@U_CRT_DOUBLE@@@__crt_stdio_output@@YA?AU_CRT_DOUBLE@@PEAD@Z 000000018015996c f i libucrt:output.obj
 0001:00158970       ??$peek_va_arg@_J@__crt_stdio_output@@YA_JPEAD@Z 0000000180159970 f i libucrt:output.obj
 0001:00158974       ??$peek_va_arg@_K@__crt_stdio_output@@YA_KPEAD@Z 0000000180159974 f i libucrt:output.obj
 0001:00158978       ??$peek_va_arg@_W@__crt_stdio_output@@YA_WPEAD@Z 0000000180159978 f i libucrt:output.obj
 0001:0015897c       ??$puttc_nolock@AEBDPEAU_iobuf@@@?$__crt_char_traits@D@@SAHAEBD$$QEAPEAU_iobuf@@@Z 000000018015997c f i libucrt:output.obj
 0001:00158988       ??$puttc_nolock@AEB_WPEAU_iobuf@@@?$__crt_char_traits@_W@@SAGAEB_W$$QEAPEAU_iobuf@@@Z 0000000180159988 f i libucrt:output.obj
 0001:00158994       ??$read_va_arg@C@__crt_stdio_output@@YACAEAPEAD@Z 0000000180159994 f i libucrt:output.obj
 0001:001589a0       ??$read_va_arg@E@__crt_stdio_output@@YAEAEAPEAD@Z 00000001801599a0 f i libucrt:output.obj
 0001:001589ac       ??$read_va_arg@F@__crt_stdio_output@@YAFAEAPEAD@Z 00000001801599ac f i libucrt:output.obj
 0001:001589b8       ??$read_va_arg@G@__crt_stdio_output@@YAGAEAPEAD@Z 00000001801599b8 f i libucrt:output.obj
 0001:001589c4       ??$read_va_arg@H@__crt_stdio_output@@YAHAEAPEAD@Z 00000001801599c4 f i libucrt:output.obj
 0001:001589d0       ??$read_va_arg@I@__crt_stdio_output@@YAIAEAPEAD@Z 00000001801599d0 f i libucrt:output.obj
 0001:001589dc       ??$read_va_arg@PEAD@__crt_stdio_output@@YAPEADAEAPEAD@Z 00000001801599dc f i libucrt:output.obj
 0001:001589e8       ??$read_va_arg@PEAUansi_string@?1??type_case_Z@?$output_processor@DV?$stream_output_adapter@D@__crt_stdio_output@@V?$format_validation_base@DV?$stream_output_adapter@D@__crt_stdio_output@@@2@@__crt_stdio_output@@AEAA_NXZ@@__crt_stdio_output@@YAPEAUansi_string@?1??type_case_Z@?$output_processor@DV?$stream_output_adapter@D@__crt_stdio_output@@V?$format_validation_base@DV?$stream_output_adapter@D@__crt_stdio_output@@@2@@0@AEAA_NXZ@AEAPEAD@Z 00000001801599e8 f i libucrt:output.obj
 0001:001589f4       ??$read_va_arg@PEAUansi_string@?1??type_case_Z@?$output_processor@DV?$stream_output_adapter@D@__crt_stdio_output@@V?$positional_parameter_base@DV?$stream_output_adapter@D@__crt_stdio_output@@@2@@__crt_stdio_output@@AEAA_NXZ@@__crt_stdio_output@@YAPEAUansi_string@?1??type_case_Z@?$output_processor@DV?$stream_output_adapter@D@__crt_stdio_output@@V?$positional_parameter_base@DV?$stream_output_adapter@D@__crt_stdio_output@@@2@@0@AEAA_NXZ@AEAPEAD@Z 00000001801599f4 f i libucrt:output.obj
 0001:00158a00       ??$read_va_arg@PEAUansi_string@?1??type_case_Z@?$output_processor@DV?$stream_output_adapter@D@__crt_stdio_output@@V?$standard_base@DV?$stream_output_adapter@D@__crt_stdio_output@@@2@@__crt_stdio_output@@AEAA_NXZ@@__crt_stdio_output@@YAPEAUansi_string@?1??type_case_Z@?$output_processor@DV?$stream_output_adapter@D@__crt_stdio_output@@V?$standard_base@DV?$stream_output_adapter@D@__crt_stdio_output@@@2@@0@AEAA_NXZ@AEAPEAD@Z 0000000180159a00 f i libucrt:output.obj
 0001:00158a0c       ??$read_va_arg@PEAUansi_string@?1??type_case_Z@?$output_processor@DV?$string_output_adapter@D@__crt_stdio_output@@V?$format_validation_base@DV?$string_output_adapter@D@__crt_stdio_output@@@2@@__crt_stdio_output@@AEAA_NXZ@@__crt_stdio_output@@YAPEAUansi_string@?1??type_case_Z@?$output_processor@DV?$string_output_adapter@D@__crt_stdio_output@@V?$format_validation_base@DV?$string_output_adapter@D@__crt_stdio_output@@@2@@0@AEAA_NXZ@AEAPEAD@Z 0000000180159a0c f i libucrt:output.obj
 0001:00158a18       ??$read_va_arg@PEAUansi_string@?1??type_case_Z@?$output_processor@DV?$string_output_adapter@D@__crt_stdio_output@@V?$positional_parameter_base@DV?$string_output_adapter@D@__crt_stdio_output@@@2@@__crt_stdio_output@@AEAA_NXZ@@__crt_stdio_output@@YAPEAUansi_string@?1??type_case_Z@?$output_processor@DV?$string_output_adapter@D@__crt_stdio_output@@V?$positional_parameter_base@DV?$string_output_adapter@D@__crt_stdio_output@@@2@@0@AEAA_NXZ@AEAPEAD@Z 0000000180159a18 f i libucrt:output.obj
 0001:00158a24       ??$read_va_arg@PEAUansi_string@?1??type_case_Z@?$output_processor@DV?$string_output_adapter@D@__crt_stdio_output@@V?$standard_base@DV?$string_output_adapter@D@__crt_stdio_output@@@2@@__crt_stdio_output@@AEAA_NXZ@@__crt_stdio_output@@YAPEAUansi_string@?1??type_case_Z@?$output_processor@DV?$string_output_adapter@D@__crt_stdio_output@@V?$standard_base@DV?$string_output_adapter@D@__crt_stdio_output@@@2@@0@AEAA_NXZ@AEAPEAD@Z 0000000180159a24 f i libucrt:output.obj
 0001:00158a30       ??$read_va_arg@PEAUansi_string@?1??type_case_Z@?$output_processor@_WV?$stream_output_adapter@_W@__crt_stdio_output@@V?$format_validation_base@_WV?$stream_output_adapter@_W@__crt_stdio_output@@@2@@__crt_stdio_output@@AEAA_NXZ@@__crt_stdio_output@@YAPEAUansi_string@?1??type_case_Z@?$output_processor@_WV?$stream_output_adapter@_W@__crt_stdio_output@@V?$format_validation_base@_WV?$stream_output_adapter@_W@__crt_stdio_output@@@2@@0@AEAA_NXZ@AEAPEAD@Z 0000000180159a30 f i libucrt:output.obj
 0001:00158a3c       ??$read_va_arg@PEAUansi_string@?1??type_case_Z@?$output_processor@_WV?$stream_output_adapter@_W@__crt_stdio_output@@V?$positional_parameter_base@_WV?$stream_output_adapter@_W@__crt_stdio_output@@@2@@__crt_stdio_output@@AEAA_NXZ@@__crt_stdio_output@@YAPEAUansi_string@?1??type_case_Z@?$output_processor@_WV?$stream_output_adapter@_W@__crt_stdio_output@@V?$positional_parameter_base@_WV?$stream_output_adapter@_W@__crt_stdio_output@@@2@@0@AEAA_NXZ@AEAPEAD@Z 0000000180159a3c f i libucrt:output.obj
 0001:00158a48       ??$read_va_arg@PEAUansi_string@?1??type_case_Z@?$output_processor@_WV?$stream_output_adapter@_W@__crt_stdio_output@@V?$standard_base@_WV?$stream_output_adapter@_W@__crt_stdio_output@@@2@@__crt_stdio_output@@AEAA_NXZ@@__crt_stdio_output@@YAPEAUansi_string@?1??type_case_Z@?$output_processor@_WV?$stream_output_adapter@_W@__crt_stdio_output@@V?$standard_base@_WV?$stream_output_adapter@_W@__crt_stdio_output@@@2@@0@AEAA_NXZ@AEAPEAD@Z 0000000180159a48 f i libucrt:output.obj
 0001:00158a54       ??$read_va_arg@PEAUansi_string@?1??type_case_Z@?$output_processor@_WV?$string_output_adapter@_W@__crt_stdio_output@@V?$format_validation_base@_WV?$string_output_adapter@_W@__crt_stdio_output@@@2@@__crt_stdio_output@@AEAA_NXZ@@__crt_stdio_output@@YAPEAUansi_string@?1??type_case_Z@?$output_processor@_WV?$string_output_adapter@_W@__crt_stdio_output@@V?$format_validation_base@_WV?$string_output_adapter@_W@__crt_stdio_output@@@2@@0@AEAA_NXZ@AEAPEAD@Z 0000000180159a54 f i libucrt:output.obj
 0001:00158a60       ??$read_va_arg@PEAUansi_string@?1??type_case_Z@?$output_processor@_WV?$string_output_adapter@_W@__crt_stdio_output@@V?$positional_parameter_base@_WV?$string_output_adapter@_W@__crt_stdio_output@@@2@@__crt_stdio_output@@AEAA_NXZ@@__crt_stdio_output@@YAPEAUansi_string@?1??type_case_Z@?$output_processor@_WV?$string_output_adapter@_W@__crt_stdio_output@@V?$positional_parameter_base@_WV?$string_output_adapter@_W@__crt_stdio_output@@@2@@0@AEAA_NXZ@AEAPEAD@Z 0000000180159a60 f i libucrt:output.obj
 0001:00158a6c       ??$read_va_arg@PEAUansi_string@?1??type_case_Z@?$output_processor@_WV?$string_output_adapter@_W@__crt_stdio_output@@V?$standard_base@_WV?$string_output_adapter@_W@__crt_stdio_output@@@2@@__crt_stdio_output@@AEAA_NXZ@@__crt_stdio_output@@YAPEAUansi_string@?1??type_case_Z@?$output_processor@_WV?$string_output_adapter@_W@__crt_stdio_output@@V?$standard_base@_WV?$string_output_adapter@_W@__crt_stdio_output@@@2@@0@AEAA_NXZ@AEAPEAD@Z 0000000180159a6c f i libucrt:output.obj
 0001:00158a78       ??$read_va_arg@PEAX@__crt_stdio_output@@YAPEAXAEAPEAD@Z 0000000180159a78 f i libucrt:output.obj
 0001:00158a84       ??$read_va_arg@U_CRT_DOUBLE@@@__crt_stdio_output@@YA?AU_CRT_DOUBLE@@AEAPEAD@Z 0000000180159a84 f i libucrt:output.obj
 0001:00158a90       ??$read_va_arg@_J@__crt_stdio_output@@YA_JAEAPEAD@Z 0000000180159a90 f i libucrt:output.obj
 0001:00158a9c       ??$read_va_arg@_K@__crt_stdio_output@@YA_KAEAPEAD@Z 0000000180159a9c f i libucrt:output.obj
 0001:00158aa8       ??$read_va_arg@_W@__crt_stdio_output@@YA_WAEAPEAD@Z 0000000180159aa8 f i libucrt:output.obj
 0001:00158ab4       ??$scratch_count@D@formatting_buffer@__crt_stdio_output@@QEBA_KXZ 0000000180159ab4 f i libucrt:output.obj
 0001:00158ad0       ??$scratch_data@D@formatting_buffer@__crt_stdio_output@@QEAAPEADXZ 0000000180159ad0 f i libucrt:output.obj
 0001:00158af4       ??$tcstol@AEAPEBDPEAPEADH@?$__crt_char_traits@D@@SAJAEAPEBD$$QEAPEAPEAD$$QEAH@Z 0000000180159af4 f i libucrt:output.obj
 0001:00158b04       ??$tcstol@AEAPEB_WPEAPEA_WH@?$__crt_char_traits@_W@@SAJAEAPEB_W$$QEAPEAPEA_W$$QEAH@Z 0000000180159b04 f i libucrt:output.obj
 0001:00158b14       ??$tcstol@PEBDPEAPEADH@?$__crt_char_traits@D@@SAJ$$QEAPEBD$$QEAPEAPEAD$$QEAH@Z 0000000180159b14 f i libucrt:output.obj
 0001:00158b24       ??$tcstol@PEB_WPEAPEA_WH@?$__crt_char_traits@_W@@SAJ$$QEAPEB_W$$QEAPEAPEA_W$$QEAH@Z 0000000180159b24 f i libucrt:output.obj
 0001:00158b34       ??$type_case_integer_parse_into_buffer@I@?$output_processor@DV?$stream_output_adapter@D@__crt_stdio_output@@V?$format_validation_base@DV?$stream_output_adapter@D@__crt_stdio_output@@@2@@__crt_stdio_output@@AEAAXII_N@Z 0000000180159b34 f i libucrt:output.obj
 0001:00158bbc       ??$type_case_integer_parse_into_buffer@I@?$output_processor@DV?$stream_output_adapter@D@__crt_stdio_output@@V?$positional_parameter_base@DV?$stream_output_adapter@D@__crt_stdio_output@@@2@@__crt_stdio_output@@AEAAXII_N@Z 0000000180159bbc f i libucrt:output.obj
 0001:00158c44       ??$type_case_integer_parse_into_buffer@I@?$output_processor@DV?$stream_output_adapter@D@__crt_stdio_output@@V?$standard_base@DV?$stream_output_adapter@D@__crt_stdio_output@@@2@@__crt_stdio_output@@AEAAXII_N@Z 0000000180159c44 f i libucrt:output.obj
 0001:00158ccc       ??$type_case_integer_parse_into_buffer@I@?$output_processor@DV?$string_output_adapter@D@__crt_stdio_output@@V?$format_validation_base@DV?$string_output_adapter@D@__crt_stdio_output@@@2@@__crt_stdio_output@@AEAAXII_N@Z 0000000180159ccc f i libucrt:output.obj
 0001:00158d54       ??$type_case_integer_parse_into_buffer@I@?$output_processor@DV?$string_output_adapter@D@__crt_stdio_output@@V?$positional_parameter_base@DV?$string_output_adapter@D@__crt_stdio_output@@@2@@__crt_stdio_output@@AEAAXII_N@Z 0000000180159d54 f i libucrt:output.obj
 0001:00158ddc       ??$type_case_integer_parse_into_buffer@I@?$output_processor@DV?$string_output_adapter@D@__crt_stdio_output@@V?$standard_base@DV?$string_output_adapter@D@__crt_stdio_output@@@2@@__crt_stdio_output@@AEAAXII_N@Z 0000000180159ddc f i libucrt:output.obj
 0001:00158e64       ??$type_case_integer_parse_into_buffer@I@?$output_processor@_WV?$stream_output_adapter@_W@__crt_stdio_output@@V?$format_validation_base@_WV?$stream_output_adapter@_W@__crt_stdio_output@@@2@@__crt_stdio_output@@AEAAXII_N@Z 0000000180159e64 f i libucrt:output.obj
 0001:00158f08       ??$type_case_integer_parse_into_buffer@I@?$output_processor@_WV?$stream_output_adapter@_W@__crt_stdio_output@@V?$positional_parameter_base@_WV?$stream_output_adapter@_W@__crt_stdio_output@@@2@@__crt_stdio_output@@AEAAXII_N@Z 0000000180159f08 f i libucrt:output.obj
 0001:00158fac       ??$type_case_integer_parse_into_buffer@I@?$output_processor@_WV?$stream_output_adapter@_W@__crt_stdio_output@@V?$standard_base@_WV?$stream_output_adapter@_W@__crt_stdio_output@@@2@@__crt_stdio_output@@AEAAXII_N@Z 0000000180159fac f i libucrt:output.obj
 0001:00159050       ??$type_case_integer_parse_into_buffer@I@?$output_processor@_WV?$string_output_adapter@_W@__crt_stdio_output@@V?$format_validation_base@_WV?$string_output_adapter@_W@__crt_stdio_output@@@2@@__crt_stdio_output@@AEAAXII_N@Z 000000018015a050 f i libucrt:output.obj
 0001:001590f4       ??$type_case_integer_parse_into_buffer@I@?$output_processor@_WV?$string_output_adapter@_W@__crt_stdio_output@@V?$positional_parameter_base@_WV?$string_output_adapter@_W@__crt_stdio_output@@@2@@__crt_stdio_output@@AEAAXII_N@Z 000000018015a0f4 f i libucrt:output.obj
 0001:00159198       ??$type_case_integer_parse_into_buffer@I@?$output_processor@_WV?$string_output_adapter@_W@__crt_stdio_output@@V?$standard_base@_WV?$string_output_adapter@_W@__crt_stdio_output@@@2@@__crt_stdio_output@@AEAAXII_N@Z 000000018015a198 f i libucrt:output.obj
 0001:0015923c       ??$type_case_integer_parse_into_buffer@_K@?$output_processor@DV?$stream_output_adapter@D@__crt_stdio_output@@V?$format_validation_base@DV?$stream_output_adapter@D@__crt_stdio_output@@@2@@__crt_stdio_output@@AEAAX_KI_N@Z 000000018015a23c f i libucrt:output.obj
 0001:001592cc       ??$type_case_integer_parse_into_buffer@_K@?$output_processor@DV?$stream_output_adapter@D@__crt_stdio_output@@V?$positional_parameter_base@DV?$stream_output_adapter@D@__crt_stdio_output@@@2@@__crt_stdio_output@@AEAAX_KI_N@Z 000000018015a2cc f i libucrt:output.obj
 0001:0015935c       ??$type_case_integer_parse_into_buffer@_K@?$output_processor@DV?$stream_output_adapter@D@__crt_stdio_output@@V?$standard_base@DV?$stream_output_adapter@D@__crt_stdio_output@@@2@@__crt_stdio_output@@AEAAX_KI_N@Z 000000018015a35c f i libucrt:output.obj
 0001:001593ec       ??$type_case_integer_parse_into_buffer@_K@?$output_processor@DV?$string_output_adapter@D@__crt_stdio_output@@V?$format_validation_base@DV?$string_output_adapter@D@__crt_stdio_output@@@2@@__crt_stdio_output@@AEAAX_KI_N@Z 000000018015a3ec f i libucrt:output.obj
 0001:0015947c       ??$type_case_integer_parse_into_buffer@_K@?$output_processor@DV?$string_output_adapter@D@__crt_stdio_output@@V?$positional_parameter_base@DV?$string_output_adapter@D@__crt_stdio_output@@@2@@__crt_stdio_output@@AEAAX_KI_N@Z 000000018015a47c f i libucrt:output.obj
 0001:0015950c       ??$type_case_integer_parse_into_buffer@_K@?$output_processor@DV?$string_output_adapter@D@__crt_stdio_output@@V?$standard_base@DV?$string_output_adapter@D@__crt_stdio_output@@@2@@__crt_stdio_output@@AEAAX_KI_N@Z 000000018015a50c f i libucrt:output.obj
 0001:0015959c       ??$type_case_integer_parse_into_buffer@_K@?$output_processor@_WV?$stream_output_adapter@_W@__crt_stdio_output@@V?$format_validation_base@_WV?$stream_output_adapter@_W@__crt_stdio_output@@@2@@__crt_stdio_output@@AEAAX_KI_N@Z 000000018015a59c f i libucrt:output.obj
 0001:00159640       ??$type_case_integer_parse_into_buffer@_K@?$output_processor@_WV?$stream_output_adapter@_W@__crt_stdio_output@@V?$positional_parameter_base@_WV?$stream_output_adapter@_W@__crt_stdio_output@@@2@@__crt_stdio_output@@AEAAX_KI_N@Z 000000018015a640 f i libucrt:output.obj
 0001:001596e4       ??$type_case_integer_parse_into_buffer@_K@?$output_processor@_WV?$stream_output_adapter@_W@__crt_stdio_output@@V?$standard_base@_WV?$stream_output_adapter@_W@__crt_stdio_output@@@2@@__crt_stdio_output@@AEAAX_KI_N@Z 000000018015a6e4 f i libucrt:output.obj
 0001:00159788       ??$type_case_integer_parse_into_buffer@_K@?$output_processor@_WV?$string_output_adapter@_W@__crt_stdio_output@@V?$format_validation_base@_WV?$string_output_adapter@_W@__crt_stdio_output@@@2@@__crt_stdio_output@@AEAAX_KI_N@Z 000000018015a788 f i libucrt:output.obj
 0001:0015982c       ??$type_case_integer_parse_into_buffer@_K@?$output_processor@_WV?$string_output_adapter@_W@__crt_stdio_output@@V?$positional_parameter_base@_WV?$string_output_adapter@_W@__crt_stdio_output@@@2@@__crt_stdio_output@@AEAAX_KI_N@Z 000000018015a82c f i libucrt:output.obj
 0001:001598d0       ??$type_case_integer_parse_into_buffer@_K@?$output_processor@_WV?$string_output_adapter@_W@__crt_stdio_output@@V?$standard_base@_WV?$string_output_adapter@_W@__crt_stdio_output@@@2@@__crt_stdio_output@@AEAAX_KI_N@Z 000000018015a8d0 f i libucrt:output.obj
 0001:00159974       ??$write_multiple_characters@V?$stream_output_adapter@D@__crt_stdio_output@@D@__crt_stdio_output@@YAXAEBV?$stream_output_adapter@D@0@DHQEAH@Z 000000018015a974 f i libucrt:output.obj
 0001:00159a00       ??$write_multiple_characters@V?$stream_output_adapter@_W@__crt_stdio_output@@D@__crt_stdio_output@@YAXAEBV?$stream_output_adapter@_W@0@DHQEAH@Z 000000018015aa00 f i libucrt:output.obj
 0001:00159a94       ??$write_multiple_characters@V?$string_output_adapter@D@__crt_stdio_output@@D@__crt_stdio_output@@YAXAEBV?$string_output_adapter@D@0@DHQEAH@Z 000000018015aa94 f i libucrt:output.obj
 0001:00159b0c       ??$write_multiple_characters@V?$string_output_adapter@_W@__crt_stdio_output@@D@__crt_stdio_output@@YAXAEBV?$string_output_adapter@_W@0@DHQEAH@Z 000000018015ab0c f i libucrt:output.obj
 0001:00159cec       ??0?$common_data@D@__crt_stdio_output@@IEAA@XZ 000000018015acec f i libucrt:output.obj
 0001:00159d28       ??0?$common_data@_W@__crt_stdio_output@@IEAA@XZ 000000018015ad28 f i libucrt:output.obj
 0001:00159d68       ??0?$output_adapter_data@DV?$stream_output_adapter@D@__crt_stdio_output@@@__crt_stdio_output@@IEAA@AEBV?$stream_output_adapter@D@1@_KQEBDQEAU__crt_locale_pointers@@QEAD@Z 000000018015ad68 f i libucrt:output.obj
 0001:00159dc8       ??0?$output_adapter_data@DV?$string_output_adapter@D@__crt_stdio_output@@@__crt_stdio_output@@IEAA@AEBV?$string_output_adapter@D@1@_KQEBDQEAU__crt_locale_pointers@@QEAD@Z 000000018015adc8 f i libucrt:output.obj
 0001:00159e28       ??0?$output_adapter_data@_WV?$stream_output_adapter@_W@__crt_stdio_output@@@__crt_stdio_output@@IEAA@AEBV?$stream_output_adapter@_W@1@_KQEB_WQEAU__crt_locale_pointers@@QEAD@Z 000000018015ae28 f i libucrt:output.obj
 0001:00159e8c       ??0?$output_adapter_data@_WV?$string_output_adapter@_W@__crt_stdio_output@@@__crt_stdio_output@@IEAA@AEBV?$string_output_adapter@_W@1@_KQEB_WQEAU__crt_locale_pointers@@QEAD@Z 000000018015ae8c f i libucrt:output.obj
 0001:00159ef0       ??0?$output_processor@DV?$stream_output_adapter@D@__crt_stdio_output@@V?$format_validation_base@DV?$stream_output_adapter@D@__crt_stdio_output@@@2@@__crt_stdio_output@@QEAA@AEBV?$stream_output_adapter@D@1@_KQEBDQEAU__crt_locale_pointers@@QEAD@Z 000000018015aef0 f i libucrt:output.obj
 0001:00159f5c       ??0?$output_processor@DV?$stream_output_adapter@D@__crt_stdio_output@@V?$positional_parameter_base@DV?$stream_output_adapter@D@__crt_stdio_output@@@2@@__crt_stdio_output@@QEAA@AEBV?$stream_output_adapter@D@1@_KQEBDQEAU__crt_locale_pointers@@QEAD@Z 000000018015af5c f i libucrt:output.obj
 0001:00159fe4       ??0?$output_processor@DV?$stream_output_adapter@D@__crt_stdio_output@@V?$standard_base@DV?$stream_output_adapter@D@__crt_stdio_output@@@2@@__crt_stdio_output@@QEAA@AEBV?$stream_output_adapter@D@1@_KQEBDQEAU__crt_locale_pointers@@QEAD@Z 000000018015afe4 f i libucrt:output.obj
 0001:0015a050       ??0?$output_processor@DV?$string_output_adapter@D@__crt_stdio_output@@V?$format_validation_base@DV?$string_output_adapter@D@__crt_stdio_output@@@2@@__crt_stdio_output@@QEAA@AEBV?$string_output_adapter@D@1@_KQEBDQEAU__crt_locale_pointers@@QEAD@Z 000000018015b050 f i libucrt:output.obj
 0001:0015a0bc       ??0?$output_processor@DV?$string_output_adapter@D@__crt_stdio_output@@V?$positional_parameter_base@DV?$string_output_adapter@D@__crt_stdio_output@@@2@@__crt_stdio_output@@QEAA@AEBV?$string_output_adapter@D@1@_KQEBDQEAU__crt_locale_pointers@@QEAD@Z 000000018015b0bc f i libucrt:output.obj
 0001:0015a144       ??0?$output_processor@DV?$string_output_adapter@D@__crt_stdio_output@@V?$standard_base@DV?$string_output_adapter@D@__crt_stdio_output@@@2@@__crt_stdio_output@@QEAA@AEBV?$string_output_adapter@D@1@_KQEBDQEAU__crt_locale_pointers@@QEAD@Z 000000018015b144 f i libucrt:output.obj
 0001:0015a1b0       ??0?$output_processor@_WV?$stream_output_adapter@_W@__crt_stdio_output@@V?$format_validation_base@_WV?$stream_output_adapter@_W@__crt_stdio_output@@@2@@__crt_stdio_output@@QEAA@AEBV?$stream_output_adapter@_W@1@_KQEB_WQEAU__crt_locale_pointers@@QEAD@Z 000000018015b1b0 f i libucrt:output.obj
 0001:0015a220       ??0?$output_processor@_WV?$stream_output_adapter@_W@__crt_stdio_output@@V?$positional_parameter_base@_WV?$stream_output_adapter@_W@__crt_stdio_output@@@2@@__crt_stdio_output@@QEAA@AEBV?$stream_output_adapter@_W@1@_KQEB_WQEAU__crt_locale_pointers@@QEAD@Z 000000018015b220 f i libucrt:output.obj
 0001:0015a2ac       ??0?$output_processor@_WV?$stream_output_adapter@_W@__crt_stdio_output@@V?$standard_base@_WV?$stream_output_adapter@_W@__crt_stdio_output@@@2@@__crt_stdio_output@@QEAA@AEBV?$stream_output_adapter@_W@1@_KQEB_WQEAU__crt_locale_pointers@@QEAD@Z 000000018015b2ac f i libucrt:output.obj
 0001:0015a31c       ??0?$output_processor@_WV?$string_output_adapter@_W@__crt_stdio_output@@V?$format_validation_base@_WV?$string_output_adapter@_W@__crt_stdio_output@@@2@@__crt_stdio_output@@QEAA@AEBV?$string_output_adapter@_W@1@_KQEB_WQEAU__crt_locale_pointers@@QEAD@Z 000000018015b31c f i libucrt:output.obj
 0001:0015a38c       ??0?$output_processor@_WV?$string_output_adapter@_W@__crt_stdio_output@@V?$positional_parameter_base@_WV?$string_output_adapter@_W@__crt_stdio_output@@@2@@__crt_stdio_output@@QEAA@AEBV?$string_output_adapter@_W@1@_KQEB_WQEAU__crt_locale_pointers@@QEAD@Z 000000018015b38c f i libucrt:output.obj
 0001:0015a418       ??0?$output_processor@_WV?$string_output_adapter@_W@__crt_stdio_output@@V?$standard_base@_WV?$string_output_adapter@_W@__crt_stdio_output@@@2@@__crt_stdio_output@@QEAA@AEBV?$string_output_adapter@_W@1@_KQEB_WQEAU__crt_locale_pointers@@QEAD@Z 000000018015b418 f i libucrt:output.obj
 0001:0015a488       ??0?$stream_output_adapter@D@__crt_stdio_output@@QEAA@QEAU_iobuf@@@Z 000000018015b488 f i libucrt:output.obj
 0001:0015a490       ??0?$stream_output_adapter@_W@__crt_stdio_output@@QEAA@QEAU_iobuf@@@Z 000000018015b490 f i libucrt:output.obj
 0001:0015a498       ??0?$string_output_adapter@D@__crt_stdio_output@@QEAA@QEAU?$string_output_adapter_context@D@1@@Z 000000018015b498 f i libucrt:output.obj
 0001:0015a4a0       ??0?$string_output_adapter@_W@__crt_stdio_output@@QEAA@QEAU?$string_output_adapter_context@_W@1@@Z 000000018015b4a0 f i libucrt:output.obj
 0001:0015a4a8       ??0_LocaleUpdate@@QEAA@QEAU__crt_locale_pointers@@@Z 000000018015b4a8 f i libucrt:output.obj
 0001:0015a544       ??0__acrt_stdio_temporary_buffering_guard@@QEAA@QEAU_iobuf@@@Z 000000018015b544 f i libucrt:output.obj
 0001:0015a564       ??0__crt_deferred_errno_cache@@QEAA@XZ 000000018015b564 f i libucrt:output.obj
 0001:0015a56c       ??0__crt_errno_guard@@QEAA@QEAH@Z 000000018015b56c f i libucrt:output.obj
 0001:0015a57c       ??0__crt_stdio_stream@@QEAA@QEAU_iobuf@@@Z 000000018015b57c f i libucrt:output.obj
 0001:0015a590       ??0formatting_buffer@__crt_stdio_output@@QEAA@XZ 000000018015b590 f i libucrt:output.obj
 0001:0015a5a4       ??1?$common_data@D@__crt_stdio_output@@QEAA@XZ 000000018015b5a4 f i libucrt:output.obj
 0001:0015a5c8       ??1?$common_data@_W@__crt_stdio_output@@QEAA@XZ 000000018015b5c8 f i libucrt:output.obj
 0001:0015a5ec       ??1?$format_validation_base@DV?$stream_output_adapter@D@__crt_stdio_output@@@__crt_stdio_output@@QEAA@XZ 000000018015b5ec f i libucrt:output.obj
 0001:0015a610       ??1?$format_validation_base@DV?$string_output_adapter@D@__crt_stdio_output@@@__crt_stdio_output@@QEAA@XZ 000000018015b610 f i libucrt:output.obj
 0001:0015a634       ??1?$format_validation_base@_WV?$stream_output_adapter@_W@__crt_stdio_output@@@__crt_stdio_output@@QEAA@XZ 000000018015b634 f i libucrt:output.obj
 0001:0015a658       ??1?$format_validation_base@_WV?$string_output_adapter@_W@__crt_stdio_output@@@__crt_stdio_output@@QEAA@XZ 000000018015b658 f i libucrt:output.obj
 0001:0015a67c       ??1?$output_adapter_data@DV?$stream_output_adapter@D@__crt_stdio_output@@@__crt_stdio_output@@QEAA@XZ 000000018015b67c f i libucrt:output.obj
 0001:0015a6a0       ??1?$output_adapter_data@DV?$string_output_adapter@D@__crt_stdio_output@@@__crt_stdio_output@@QEAA@XZ 000000018015b6a0 f i libucrt:output.obj
 0001:0015a6c4       ??1?$output_adapter_data@_WV?$stream_output_adapter@_W@__crt_stdio_output@@@__crt_stdio_output@@QEAA@XZ 000000018015b6c4 f i libucrt:output.obj
 0001:0015a6e8       ??1?$output_adapter_data@_WV?$string_output_adapter@_W@__crt_stdio_output@@@__crt_stdio_output@@QEAA@XZ 000000018015b6e8 f i libucrt:output.obj
 0001:0015a70c       ??1?$output_processor@DV?$stream_output_adapter@D@__crt_stdio_output@@V?$format_validation_base@DV?$stream_output_adapter@D@__crt_stdio_output@@@2@@__crt_stdio_output@@QEAA@XZ 000000018015b70c f i libucrt:output.obj
 0001:0015a730       ??1?$output_processor@DV?$stream_output_adapter@D@__crt_stdio_output@@V?$positional_parameter_base@DV?$stream_output_adapter@D@__crt_stdio_output@@@2@@__crt_stdio_output@@QEAA@XZ 000000018015b730 f i libucrt:output.obj
 0001:0015a754       ??1?$output_processor@DV?$stream_output_adapter@D@__crt_stdio_output@@V?$standard_base@DV?$stream_output_adapter@D@__crt_stdio_output@@@2@@__crt_stdio_output@@QEAA@XZ 000000018015b754 f i libucrt:output.obj
 0001:0015a778       ??1?$output_processor@DV?$string_output_adapter@D@__crt_stdio_output@@V?$format_validation_base@DV?$string_output_adapter@D@__crt_stdio_output@@@2@@__crt_stdio_output@@QEAA@XZ 000000018015b778 f i libucrt:output.obj
 0001:0015a79c       ??1?$output_processor@DV?$string_output_adapter@D@__crt_stdio_output@@V?$positional_parameter_base@DV?$string_output_adapter@D@__crt_stdio_output@@@2@@__crt_stdio_output@@QEAA@XZ 000000018015b79c f i libucrt:output.obj
 0001:0015a7c0       ??1?$output_processor@DV?$string_output_adapter@D@__crt_stdio_output@@V?$standard_base@DV?$string_output_adapter@D@__crt_stdio_output@@@2@@__crt_stdio_output@@QEAA@XZ 000000018015b7c0 f i libucrt:output.obj
 0001:0015a7e4       ??1?$output_processor@_WV?$stream_output_adapter@_W@__crt_stdio_output@@V?$format_validation_base@_WV?$stream_output_adapter@_W@__crt_stdio_output@@@2@@__crt_stdio_output@@QEAA@XZ 000000018015b7e4 f i libucrt:output.obj
 0001:0015a808       ??1?$output_processor@_WV?$stream_output_adapter@_W@__crt_stdio_output@@V?$positional_parameter_base@_WV?$stream_output_adapter@_W@__crt_stdio_output@@@2@@__crt_stdio_output@@QEAA@XZ 000000018015b808 f i libucrt:output.obj
 0001:0015a82c       ??1?$output_processor@_WV?$stream_output_adapter@_W@__crt_stdio_output@@V?$standard_base@_WV?$stream_output_adapter@_W@__crt_stdio_output@@@2@@__crt_stdio_output@@QEAA@XZ 000000018015b82c f i libucrt:output.obj
 0001:0015a850       ??1?$output_processor@_WV?$string_output_adapter@_W@__crt_stdio_output@@V?$format_validation_base@_WV?$string_output_adapter@_W@__crt_stdio_output@@@2@@__crt_stdio_output@@QEAA@XZ 000000018015b850 f i libucrt:output.obj
 0001:0015a874       ??1?$output_processor@_WV?$string_output_adapter@_W@__crt_stdio_output@@V?$positional_parameter_base@_WV?$string_output_adapter@_W@__crt_stdio_output@@@2@@__crt_stdio_output@@QEAA@XZ 000000018015b874 f i libucrt:output.obj
 0001:0015a898       ??1?$output_processor@_WV?$string_output_adapter@_W@__crt_stdio_output@@V?$standard_base@_WV?$string_output_adapter@_W@__crt_stdio_output@@@2@@__crt_stdio_output@@QEAA@XZ 000000018015b898 f i libucrt:output.obj
 0001:0015a8bc       ??1?$positional_parameter_base@DV?$stream_output_adapter@D@__crt_stdio_output@@@__crt_stdio_output@@QEAA@XZ 000000018015b8bc f i libucrt:output.obj
 0001:0015a8e0       ??1?$positional_parameter_base@DV?$string_output_adapter@D@__crt_stdio_output@@@__crt_stdio_output@@QEAA@XZ 000000018015b8e0 f i libucrt:output.obj
 0001:0015a904       ??1?$positional_parameter_base@_WV?$stream_output_adapter@_W@__crt_stdio_output@@@__crt_stdio_output@@QEAA@XZ 000000018015b904 f i libucrt:output.obj
 0001:0015a928       ??1?$positional_parameter_base@_WV?$string_output_adapter@_W@__crt_stdio_output@@@__crt_stdio_output@@QEAA@XZ 000000018015b928 f i libucrt:output.obj
 0001:0015a94c       ??1?$standard_base@DV?$stream_output_adapter@D@__crt_stdio_output@@@__crt_stdio_output@@QEAA@XZ 000000018015b94c f i libucrt:output.obj
 0001:0015a970       ??1?$standard_base@DV?$string_output_adapter@D@__crt_stdio_output@@@__crt_stdio_output@@QEAA@XZ 000000018015b970 f i libucrt:output.obj
 0001:0015a994       ??1?$standard_base@_WV?$stream_output_adapter@_W@__crt_stdio_output@@@__crt_stdio_output@@QEAA@XZ 000000018015b994 f i libucrt:output.obj
 0001:0015a9b8       ??1?$standard_base@_WV?$string_output_adapter@_W@__crt_stdio_output@@@__crt_stdio_output@@QEAA@XZ 000000018015b9b8 f i libucrt:output.obj
 0001:0015a9dc       ??1_LocaleUpdate@@QEAA@XZ  000000018015b9dc f i libucrt:output.obj
 0001:0015a9f0       ??1__acrt_stdio_temporary_buffering_guard@@QEAA@XZ 000000018015b9f0 f i libucrt:output.obj
 0001:0015a9fc       ??1__crt_errno_guard@@QEAA@XZ 000000018015b9fc f i libucrt:output.obj
 0001:0015aa10       ??1formatting_buffer@__crt_stdio_output@@QEAA@XZ 000000018015ba10 f i libucrt:output.obj
 0001:0015aa34       ??4?$__crt_unique_heap_ptr@DU__crt_internal_free_policy@@@@QEAAAEAV0@$$QEAV0@@Z 000000018015ba34 f i libucrt:output.obj
 0001:0015aa68       ??A?$spectre_mitigated_lookup_table@Ustate_transition_pair@__crt_stdio_output@@$0IA@@__crt_stdio_output@@QEBAAEBUstate_transition_pair@1@_K@Z 000000018015ba68 f i libucrt:output.obj
 0001:0015aa70       ??C__crt_stdio_stream@@QEBAPEAU__crt_stdio_stream_data@@XZ 000000018015ba70 f i libucrt:output.obj
 0001:0015b238       ?GetLocaleT@_LocaleUpdate@@QEAAPEAU__crt_locale_pointers@@XZ 000000018015c238 f i libucrt:output.obj
 0001:0015b240       ?adjust_hexit@?$output_processor@DV?$stream_output_adapter@D@__crt_stdio_output@@V?$format_validation_base@DV?$stream_output_adapter@D@__crt_stdio_output@@@2@@__crt_stdio_output@@CADH_N@Z 000000018015c240 f i libucrt:output.obj
 0001:0015b24c       ?adjust_hexit@?$output_processor@DV?$stream_output_adapter@D@__crt_stdio_output@@V?$positional_parameter_base@DV?$stream_output_adapter@D@__crt_stdio_output@@@2@@__crt_stdio_output@@CADH_N@Z 000000018015c24c f i libucrt:output.obj
 0001:0015b258       ?adjust_hexit@?$output_processor@DV?$stream_output_adapter@D@__crt_stdio_output@@V?$standard_base@DV?$stream_output_adapter@D@__crt_stdio_output@@@2@@__crt_stdio_output@@CADH_N@Z 000000018015c258 f i libucrt:output.obj
 0001:0015b264       ?adjust_hexit@?$output_processor@DV?$string_output_adapter@D@__crt_stdio_output@@V?$format_validation_base@DV?$string_output_adapter@D@__crt_stdio_output@@@2@@__crt_stdio_output@@CADH_N@Z 000000018015c264 f i libucrt:output.obj
 0001:0015b270       ?adjust_hexit@?$output_processor@DV?$string_output_adapter@D@__crt_stdio_output@@V?$positional_parameter_base@DV?$string_output_adapter@D@__crt_stdio_output@@@2@@__crt_stdio_output@@CADH_N@Z 000000018015c270 f i libucrt:output.obj
 0001:0015b27c       ?adjust_hexit@?$output_processor@DV?$string_output_adapter@D@__crt_stdio_output@@V?$standard_base@DV?$string_output_adapter@D@__crt_stdio_output@@@2@@__crt_stdio_output@@CADH_N@Z 000000018015c27c f i libucrt:output.obj
 0001:0015b288       ?adjust_hexit@?$output_processor@_WV?$stream_output_adapter@_W@__crt_stdio_output@@V?$format_validation_base@_WV?$stream_output_adapter@_W@__crt_stdio_output@@@2@@__crt_stdio_output@@CADH_N@Z 000000018015c288 f i libucrt:output.obj
 0001:0015b294       ?adjust_hexit@?$output_processor@_WV?$stream_output_adapter@_W@__crt_stdio_output@@V?$positional_parameter_base@_WV?$stream_output_adapter@_W@__crt_stdio_output@@@2@@__crt_stdio_output@@CADH_N@Z 000000018015c294 f i libucrt:output.obj
 0001:0015b2a0       ?adjust_hexit@?$output_processor@_WV?$stream_output_adapter@_W@__crt_stdio_output@@V?$standard_base@_WV?$stream_output_adapter@_W@__crt_stdio_output@@@2@@__crt_stdio_output@@CADH_N@Z 000000018015c2a0 f i libucrt:output.obj
 0001:0015b2ac       ?adjust_hexit@?$output_processor@_WV?$string_output_adapter@_W@__crt_stdio_output@@V?$format_validation_base@_WV?$string_output_adapter@_W@__crt_stdio_output@@@2@@__crt_stdio_output@@CADH_N@Z 000000018015c2ac f i libucrt:output.obj
 0001:0015b2b8       ?adjust_hexit@?$output_processor@_WV?$string_output_adapter@_W@__crt_stdio_output@@V?$positional_parameter_base@_WV?$string_output_adapter@_W@__crt_stdio_output@@@2@@__crt_stdio_output@@CADH_N@Z 000000018015c2b8 f i libucrt:output.obj
 0001:0015b2c4       ?adjust_hexit@?$output_processor@_WV?$string_output_adapter@_W@__crt_stdio_output@@V?$standard_base@_WV?$string_output_adapter@_W@__crt_stdio_output@@@2@@__crt_stdio_output@@CADH_N@Z 000000018015c2c4 f i libucrt:output.obj
 0001:0015b2d0       ?advance_to_next_pass@?$positional_parameter_base@DV?$stream_output_adapter@D@__crt_stdio_output@@@__crt_stdio_output@@IEAA_NXZ 000000018015c2d0 f i libucrt:output.obj
 0001:0015b320       ?advance_to_next_pass@?$positional_parameter_base@DV?$string_output_adapter@D@__crt_stdio_output@@@__crt_stdio_output@@IEAA_NXZ 000000018015c320 f i libucrt:output.obj
 0001:0015b370       ?advance_to_next_pass@?$positional_parameter_base@_WV?$stream_output_adapter@_W@__crt_stdio_output@@@__crt_stdio_output@@IEAA_NXZ 000000018015c370 f i libucrt:output.obj
 0001:0015b3c0       ?advance_to_next_pass@?$positional_parameter_base@_WV?$string_output_adapter@_W@__crt_stdio_output@@@__crt_stdio_output@@IEAA_NXZ 000000018015c3c0 f i libucrt:output.obj
 0001:0015b410       ?advance_to_next_pass@?$standard_base@DV?$stream_output_adapter@D@__crt_stdio_output@@@__crt_stdio_output@@IEAA_NXZ 000000018015c410 f i libucrt:output.obj
 0001:0015b424       ?advance_to_next_pass@?$standard_base@DV?$string_output_adapter@D@__crt_stdio_output@@@__crt_stdio_output@@IEAA_NXZ 000000018015c424 f i libucrt:output.obj
 0001:0015b438       ?advance_to_next_pass@?$standard_base@_WV?$stream_output_adapter@_W@__crt_stdio_output@@@__crt_stdio_output@@IEAA_NXZ 000000018015c438 f i libucrt:output.obj
 0001:0015b44c       ?advance_to_next_pass@?$standard_base@_WV?$string_output_adapter@_W@__crt_stdio_output@@@__crt_stdio_output@@IEAA_NXZ 000000018015c44c f i libucrt:output.obj
 0001:0015b460       ?crop_zeroes@__crt_stdio_output@@YAXPEADQEAU__crt_locale_pointers@@@Z 000000018015c460 f i libucrt:output.obj
 0001:0015b4f4       ?find_next_state@?$output_processor@DV?$stream_output_adapter@D@__crt_stdio_output@@V?$format_validation_base@DV?$stream_output_adapter@D@__crt_stdio_output@@@2@@__crt_stdio_output@@AEBA?AW4state@2@DW432@@Z 000000018015c4f4 f i libucrt:output.obj
 0001:0015b524       ?find_next_state@?$output_processor@DV?$stream_output_adapter@D@__crt_stdio_output@@V?$positional_parameter_base@DV?$stream_output_adapter@D@__crt_stdio_output@@@2@@__crt_stdio_output@@AEBA?AW4state@2@DW432@@Z 000000018015c524 f i libucrt:output.obj
 0001:0015b554       ?find_next_state@?$output_processor@DV?$stream_output_adapter@D@__crt_stdio_output@@V?$standard_base@DV?$stream_output_adapter@D@__crt_stdio_output@@@2@@__crt_stdio_output@@AEBA?AW4state@2@DW432@@Z 000000018015c554 f i libucrt:output.obj
 0001:0015b584       ?find_next_state@?$output_processor@DV?$string_output_adapter@D@__crt_stdio_output@@V?$format_validation_base@DV?$string_output_adapter@D@__crt_stdio_output@@@2@@__crt_stdio_output@@AEBA?AW4state@2@DW432@@Z 000000018015c584 f i libucrt:output.obj
 0001:0015b5b4       ?find_next_state@?$output_processor@DV?$string_output_adapter@D@__crt_stdio_output@@V?$positional_parameter_base@DV?$string_output_adapter@D@__crt_stdio_output@@@2@@__crt_stdio_output@@AEBA?AW4state@2@DW432@@Z 000000018015c5b4 f i libucrt:output.obj
 0001:0015b5e4       ?find_next_state@?$output_processor@DV?$string_output_adapter@D@__crt_stdio_output@@V?$standard_base@DV?$string_output_adapter@D@__crt_stdio_output@@@2@@__crt_stdio_output@@AEBA?AW4state@2@DW432@@Z 000000018015c5e4 f i libucrt:output.obj
 0001:0015b614       ?find_next_state@?$output_processor@_WV?$stream_output_adapter@_W@__crt_stdio_output@@V?$format_validation_base@_WV?$stream_output_adapter@_W@__crt_stdio_output@@@2@@__crt_stdio_output@@AEBA?AW4state@2@_WW432@@Z 000000018015c614 f i libucrt:output.obj
 0001:0015b64c       ?find_next_state@?$output_processor@_WV?$stream_output_adapter@_W@__crt_stdio_output@@V?$positional_parameter_base@_WV?$stream_output_adapter@_W@__crt_stdio_output@@@2@@__crt_stdio_output@@AEBA?AW4state@2@_WW432@@Z 000000018015c64c f i libucrt:output.obj
 0001:0015b684       ?find_next_state@?$output_processor@_WV?$stream_output_adapter@_W@__crt_stdio_output@@V?$standard_base@_WV?$stream_output_adapter@_W@__crt_stdio_output@@@2@@__crt_stdio_output@@AEBA?AW4state@2@_WW432@@Z 000000018015c684 f i libucrt:output.obj
 0001:0015b6bc       ?find_next_state@?$output_processor@_WV?$string_output_adapter@_W@__crt_stdio_output@@V?$format_validation_base@_WV?$string_output_adapter@_W@__crt_stdio_output@@@2@@__crt_stdio_output@@AEBA?AW4state@2@_WW432@@Z 000000018015c6bc f i libucrt:output.obj
 0001:0015b6f4       ?find_next_state@?$output_processor@_WV?$string_output_adapter@_W@__crt_stdio_output@@V?$positional_parameter_base@_WV?$string_output_adapter@_W@__crt_stdio_output@@@2@@__crt_stdio_output@@AEBA?AW4state@2@_WW432@@Z 000000018015c6f4 f i libucrt:output.obj
 0001:0015b72c       ?find_next_state@?$output_processor@_WV?$string_output_adapter@_W@__crt_stdio_output@@V?$standard_base@_WV?$string_output_adapter@_W@__crt_stdio_output@@@2@@__crt_stdio_output@@AEBA?AW4state@2@_WW432@@Z 000000018015c72c f i libucrt:output.obj
 0001:0015b770       ?force_decimal_point@__crt_stdio_output@@YAXPEADQEAU__crt_locale_pointers@@@Z 000000018015c770 f i libucrt:output.obj
 0001:0015b7e8       ?get@__crt_deferred_errno_cache@@QEAAAEAHXZ 000000018015c7e8 f i libucrt:output.obj
 0001:0015b808       ?get_flags@__crt_stdio_stream@@QEBAJXZ 000000018015c808 f i libucrt:output.obj
 0001:0015b810       ?get_parameter_type@?$positional_parameter_base@DV?$stream_output_adapter@D@__crt_stdio_output@@@__crt_stdio_output@@CA?AW4parameter_type@12@F@Z 000000018015c810 f i libucrt:output.obj
 0001:0015b818       ?get_parameter_type@?$positional_parameter_base@DV?$stream_output_adapter@D@__crt_stdio_output@@@__crt_stdio_output@@CA?AW4parameter_type@12@G@Z 000000018015c818 f i libucrt:output.obj
 0001:0015b820       ?get_parameter_type@?$positional_parameter_base@DV?$stream_output_adapter@D@__crt_stdio_output@@@__crt_stdio_output@@CA?AW4parameter_type@12@H@Z 000000018015c820 f i libucrt:output.obj
 0001:0015b828       ?get_parameter_type@?$positional_parameter_base@DV?$stream_output_adapter@D@__crt_stdio_output@@@__crt_stdio_output@@CA?AW4parameter_type@12@I@Z 000000018015c828 f i libucrt:output.obj
 0001:0015b830       ?get_parameter_type@?$positional_parameter_base@DV?$stream_output_adapter@D@__crt_stdio_output@@@__crt_stdio_output@@CA?AW4parameter_type@12@U_CRT_DOUBLE@@@Z 000000018015c830 f i libucrt:output.obj
 0001:0015b838       ?get_parameter_type@?$positional_parameter_base@DV?$stream_output_adapter@D@__crt_stdio_output@@@__crt_stdio_output@@CA?AW4parameter_type@12@_J@Z 000000018015c838 f i libucrt:output.obj
 0001:0015b840       ?get_parameter_type@?$positional_parameter_base@DV?$stream_output_adapter@D@__crt_stdio_output@@@__crt_stdio_output@@CA?AW4parameter_type@12@_K@Z 000000018015c840 f i libucrt:output.obj
 0001:0015b848       ?get_parameter_type@?$positional_parameter_base@DV?$stream_output_adapter@D@__crt_stdio_output@@@__crt_stdio_output@@CA?AW4parameter_type@12@_W@Z 000000018015c848 f i libucrt:output.obj
 0001:0015b850       ?get_parameter_type@?$positional_parameter_base@DV?$string_output_adapter@D@__crt_stdio_output@@@__crt_stdio_output@@CA?AW4parameter_type@12@F@Z 000000018015c850 f i libucrt:output.obj
 0001:0015b858       ?get_parameter_type@?$positional_parameter_base@DV?$string_output_adapter@D@__crt_stdio_output@@@__crt_stdio_output@@CA?AW4parameter_type@12@G@Z 000000018015c858 f i libucrt:output.obj
 0001:0015b860       ?get_parameter_type@?$positional_parameter_base@DV?$string_output_adapter@D@__crt_stdio_output@@@__crt_stdio_output@@CA?AW4parameter_type@12@H@Z 000000018015c860 f i libucrt:output.obj
 0001:0015b868       ?get_parameter_type@?$positional_parameter_base@DV?$string_output_adapter@D@__crt_stdio_output@@@__crt_stdio_output@@CA?AW4parameter_type@12@I@Z 000000018015c868 f i libucrt:output.obj
 0001:0015b870       ?get_parameter_type@?$positional_parameter_base@DV?$string_output_adapter@D@__crt_stdio_output@@@__crt_stdio_output@@CA?AW4parameter_type@12@U_CRT_DOUBLE@@@Z 000000018015c870 f i libucrt:output.obj
 0001:0015b878       ?get_parameter_type@?$positional_parameter_base@DV?$string_output_adapter@D@__crt_stdio_output@@@__crt_stdio_output@@CA?AW4parameter_type@12@_J@Z 000000018015c878 f i libucrt:output.obj
 0001:0015b880       ?get_parameter_type@?$positional_parameter_base@DV?$string_output_adapter@D@__crt_stdio_output@@@__crt_stdio_output@@CA?AW4parameter_type@12@_K@Z 000000018015c880 f i libucrt:output.obj
 0001:0015b888       ?get_parameter_type@?$positional_parameter_base@DV?$string_output_adapter@D@__crt_stdio_output@@@__crt_stdio_output@@CA?AW4parameter_type@12@_W@Z 000000018015c888 f i libucrt:output.obj
 0001:0015b890       ?get_parameter_type@?$positional_parameter_base@_WV?$stream_output_adapter@_W@__crt_stdio_output@@@__crt_stdio_output@@CA?AW4parameter_type@12@F@Z 000000018015c890 f i libucrt:output.obj
 0001:0015b898       ?get_parameter_type@?$positional_parameter_base@_WV?$stream_output_adapter@_W@__crt_stdio_output@@@__crt_stdio_output@@CA?AW4parameter_type@12@G@Z 000000018015c898 f i libucrt:output.obj
 0001:0015b8a0       ?get_parameter_type@?$positional_parameter_base@_WV?$stream_output_adapter@_W@__crt_stdio_output@@@__crt_stdio_output@@CA?AW4parameter_type@12@H@Z 000000018015c8a0 f i libucrt:output.obj
 0001:0015b8a8       ?get_parameter_type@?$positional_parameter_base@_WV?$stream_output_adapter@_W@__crt_stdio_output@@@__crt_stdio_output@@CA?AW4parameter_type@12@I@Z 000000018015c8a8 f i libucrt:output.obj
 0001:0015b8b0       ?get_parameter_type@?$positional_parameter_base@_WV?$stream_output_adapter@_W@__crt_stdio_output@@@__crt_stdio_output@@CA?AW4parameter_type@12@U_CRT_DOUBLE@@@Z 000000018015c8b0 f i libucrt:output.obj
 0001:0015b8b8       ?get_parameter_type@?$positional_parameter_base@_WV?$stream_output_adapter@_W@__crt_stdio_output@@@__crt_stdio_output@@CA?AW4parameter_type@12@_J@Z 000000018015c8b8 f i libucrt:output.obj
 0001:0015b8c0       ?get_parameter_type@?$positional_parameter_base@_WV?$stream_output_adapter@_W@__crt_stdio_output@@@__crt_stdio_output@@CA?AW4parameter_type@12@_K@Z 000000018015c8c0 f i libucrt:output.obj
 0001:0015b8c8       ?get_parameter_type@?$positional_parameter_base@_WV?$stream_output_adapter@_W@__crt_stdio_output@@@__crt_stdio_output@@CA?AW4parameter_type@12@_W@Z 000000018015c8c8 f i libucrt:output.obj
 0001:0015b8d0       ?get_parameter_type@?$positional_parameter_base@_WV?$string_output_adapter@_W@__crt_stdio_output@@@__crt_stdio_output@@CA?AW4parameter_type@12@F@Z 000000018015c8d0 f i libucrt:output.obj
 0001:0015b8d8       ?get_parameter_type@?$positional_parameter_base@_WV?$string_output_adapter@_W@__crt_stdio_output@@@__crt_stdio_output@@CA?AW4parameter_type@12@G@Z 000000018015c8d8 f i libucrt:output.obj
 0001:0015b8e0       ?get_parameter_type@?$positional_parameter_base@_WV?$string_output_adapter@_W@__crt_stdio_output@@@__crt_stdio_output@@CA?AW4parameter_type@12@H@Z 000000018015c8e0 f i libucrt:output.obj
 0001:0015b8e8       ?get_parameter_type@?$positional_parameter_base@_WV?$string_output_adapter@_W@__crt_stdio_output@@@__crt_stdio_output@@CA?AW4parameter_type@12@I@Z 000000018015c8e8 f i libucrt:output.obj
 0001:0015b8f0       ?get_parameter_type@?$positional_parameter_base@_WV?$string_output_adapter@_W@__crt_stdio_output@@@__crt_stdio_output@@CA?AW4parameter_type@12@U_CRT_DOUBLE@@@Z 000000018015c8f0 f i libucrt:output.obj
 0001:0015b8f8       ?get_parameter_type@?$positional_parameter_base@_WV?$string_output_adapter@_W@__crt_stdio_output@@@__crt_stdio_output@@CA?AW4parameter_type@12@_J@Z 000000018015c8f8 f i libucrt:output.obj
 0001:0015b900       ?get_parameter_type@?$positional_parameter_base@_WV?$string_output_adapter@_W@__crt_stdio_output@@@__crt_stdio_output@@CA?AW4parameter_type@12@_K@Z 000000018015c900 f i libucrt:output.obj
 0001:0015b908       ?get_parameter_type@?$positional_parameter_base@_WV?$string_output_adapter@_W@__crt_stdio_output@@@__crt_stdio_output@@CA?AW4parameter_type@12@_W@Z 000000018015c908 f i libucrt:output.obj
 0001:0015b910       ?has_flag@?$output_processor@DV?$stream_output_adapter@D@__crt_stdio_output@@V?$format_validation_base@DV?$stream_output_adapter@D@__crt_stdio_output@@@2@@__crt_stdio_output@@AEBA_NI@Z 000000018015c910 f i libucrt:output.obj
 0001:0015b918       ?has_flag@?$output_processor@DV?$stream_output_adapter@D@__crt_stdio_output@@V?$positional_parameter_base@DV?$stream_output_adapter@D@__crt_stdio_output@@@2@@__crt_stdio_output@@AEBA_NI@Z 000000018015c918 f i libucrt:output.obj
 0001:0015b920       ?has_flag@?$output_processor@DV?$stream_output_adapter@D@__crt_stdio_output@@V?$standard_base@DV?$stream_output_adapter@D@__crt_stdio_output@@@2@@__crt_stdio_output@@AEBA_NI@Z 000000018015c920 f i libucrt:output.obj
 0001:0015b928       ?has_flag@?$output_processor@DV?$string_output_adapter@D@__crt_stdio_output@@V?$format_validation_base@DV?$string_output_adapter@D@__crt_stdio_output@@@2@@__crt_stdio_output@@AEBA_NI@Z 000000018015c928 f i libucrt:output.obj
 0001:0015b930       ?has_flag@?$output_processor@DV?$string_output_adapter@D@__crt_stdio_output@@V?$positional_parameter_base@DV?$string_output_adapter@D@__crt_stdio_output@@@2@@__crt_stdio_output@@AEBA_NI@Z 000000018015c930 f i libucrt:output.obj
 0001:0015b938       ?has_flag@?$output_processor@DV?$string_output_adapter@D@__crt_stdio_output@@V?$standard_base@DV?$string_output_adapter@D@__crt_stdio_output@@@2@@__crt_stdio_output@@AEBA_NI@Z 000000018015c938 f i libucrt:output.obj
 0001:0015b940       ?has_flag@?$output_processor@_WV?$stream_output_adapter@_W@__crt_stdio_output@@V?$format_validation_base@_WV?$stream_output_adapter@_W@__crt_stdio_output@@@2@@__crt_stdio_output@@AEBA_NI@Z 000000018015c940 f i libucrt:output.obj
 0001:0015b948       ?has_flag@?$output_processor@_WV?$stream_output_adapter@_W@__crt_stdio_output@@V?$positional_parameter_base@_WV?$stream_output_adapter@_W@__crt_stdio_output@@@2@@__crt_stdio_output@@AEBA_NI@Z 000000018015c948 f i libucrt:output.obj
 0001:0015b950       ?has_flag@?$output_processor@_WV?$stream_output_adapter@_W@__crt_stdio_output@@V?$standard_base@_WV?$stream_output_adapter@_W@__crt_stdio_output@@@2@@__crt_stdio_output@@AEBA_NI@Z 000000018015c950 f i libucrt:output.obj
 0001:0015b958       ?has_flag@?$output_processor@_WV?$string_output_adapter@_W@__crt_stdio_output@@V?$format_validation_base@_WV?$string_output_adapter@_W@__crt_stdio_output@@@2@@__crt_stdio_output@@AEBA_NI@Z 000000018015c958 f i libucrt:output.obj
 0001:0015b960       ?has_flag@?$output_processor@_WV?$string_output_adapter@_W@__crt_stdio_output@@V?$positional_parameter_base@_WV?$string_output_adapter@_W@__crt_stdio_output@@@2@@__crt_stdio_output@@AEBA_NI@Z 000000018015c960 f i libucrt:output.obj
 0001:0015b968       ?has_flag@?$output_processor@_WV?$string_output_adapter@_W@__crt_stdio_output@@V?$standard_base@_WV?$string_output_adapter@_W@__crt_stdio_output@@@2@@__crt_stdio_output@@AEBA_NI@Z 000000018015c968 f i libucrt:output.obj
 0001:0015b970       ?is_positional_parameter_reappearance_consistent@?$positional_parameter_base@DV?$stream_output_adapter@D@__crt_stdio_output@@@__crt_stdio_output@@AEAA_NAEBUparameter_data@12@W4parameter_type@12@DW4length_modifier@2@@Z 000000018015c970 f i libucrt:output.obj
 0001:0015bb10       ?is_positional_parameter_reappearance_consistent@?$positional_parameter_base@DV?$string_output_adapter@D@__crt_stdio_output@@@__crt_stdio_output@@AEAA_NAEBUparameter_data@12@W4parameter_type@12@DW4length_modifier@2@@Z 000000018015cb10 f i libucrt:output.obj
 0001:0015bcb0       ?is_positional_parameter_reappearance_consistent@?$positional_parameter_base@_WV?$stream_output_adapter@_W@__crt_stdio_output@@@__crt_stdio_output@@AEAA_NAEBUparameter_data@12@W4parameter_type@12@_WW4length_modifier@2@@Z 000000018015ccb0 f i libucrt:output.obj
 0001:0015be1c       ?is_positional_parameter_reappearance_consistent@?$positional_parameter_base@_WV?$string_output_adapter@_W@__crt_stdio_output@@@__crt_stdio_output@@AEAA_NAEBUparameter_data@12@W4parameter_type@12@_WW4length_modifier@2@@Z 000000018015ce1c f i libucrt:output.obj
 0001:0015bf88       ?is_string_backed@__crt_stdio_stream@@QEBA_NXZ 000000018015cf88 f i libucrt:output.obj
 0001:0015bf94       ?narrow_null_string@?$output_processor@DV?$stream_output_adapter@D@__crt_stdio_output@@V?$format_validation_base@DV?$stream_output_adapter@D@__crt_stdio_output@@@2@@__crt_stdio_output@@CAPEADXZ 000000018015cf94 f i libucrt:output.obj
 0001:0015bf9c       ?narrow_null_string@?$output_processor@DV?$stream_output_adapter@D@__crt_stdio_output@@V?$positional_parameter_base@DV?$stream_output_adapter@D@__crt_stdio_output@@@2@@__crt_stdio_output@@CAPEADXZ 000000018015cf9c f i libucrt:output.obj
 0001:0015bfa4       ?narrow_null_string@?$output_processor@DV?$stream_output_adapter@D@__crt_stdio_output@@V?$standard_base@DV?$stream_output_adapter@D@__crt_stdio_output@@@2@@__crt_stdio_output@@CAPEADXZ 000000018015cfa4 f i libucrt:output.obj
 0001:0015bfac       ?narrow_null_string@?$output_processor@DV?$string_output_adapter@D@__crt_stdio_output@@V?$format_validation_base@DV?$string_output_adapter@D@__crt_stdio_output@@@2@@__crt_stdio_output@@CAPEADXZ 000000018015cfac f i libucrt:output.obj
 0001:0015bfb4       ?narrow_null_string@?$output_processor@DV?$string_output_adapter@D@__crt_stdio_output@@V?$positional_parameter_base@DV?$string_output_adapter@D@__crt_stdio_output@@@2@@__crt_stdio_output@@CAPEADXZ 000000018015cfb4 f i libucrt:output.obj
 0001:0015bfbc       ?narrow_null_string@?$output_processor@DV?$string_output_adapter@D@__crt_stdio_output@@V?$standard_base@DV?$string_output_adapter@D@__crt_stdio_output@@@2@@__crt_stdio_output@@CAPEADXZ 000000018015cfbc f i libucrt:output.obj
 0001:0015bfc4       ?narrow_null_string@?$output_processor@_WV?$stream_output_adapter@_W@__crt_stdio_output@@V?$format_validation_base@_WV?$stream_output_adapter@_W@__crt_stdio_output@@@2@@__crt_stdio_output@@CAPEADXZ 000000018015cfc4 f i libucrt:output.obj
 0001:0015bfcc       ?narrow_null_string@?$output_processor@_WV?$stream_output_adapter@_W@__crt_stdio_output@@V?$positional_parameter_base@_WV?$stream_output_adapter@_W@__crt_stdio_output@@@2@@__crt_stdio_output@@CAPEADXZ 000000018015cfcc f i libucrt:output.obj
 0001:0015bfd4       ?narrow_null_string@?$output_processor@_WV?$stream_output_adapter@_W@__crt_stdio_output@@V?$standard_base@_WV?$stream_output_adapter@_W@__crt_stdio_output@@@2@@__crt_stdio_output@@CAPEADXZ 000000018015cfd4 f i libucrt:output.obj
 0001:0015bfdc       ?narrow_null_string@?$output_processor@_WV?$string_output_adapter@_W@__crt_stdio_output@@V?$format_validation_base@_WV?$string_output_adapter@_W@__crt_stdio_output@@@2@@__crt_stdio_output@@CAPEADXZ 000000018015cfdc f i libucrt:output.obj
 0001:0015bfe4       ?narrow_null_string@?$output_processor@_WV?$string_output_adapter@_W@__crt_stdio_output@@V?$positional_parameter_base@_WV?$string_output_adapter@_W@__crt_stdio_output@@@2@@__crt_stdio_output@@CAPEADXZ 000000018015cfe4 f i libucrt:output.obj
 0001:0015bfec       ?narrow_null_string@?$output_processor@_WV?$string_output_adapter@_W@__crt_stdio_output@@V?$standard_base@_WV?$string_output_adapter@_W@__crt_stdio_output@@@2@@__crt_stdio_output@@CAPEADXZ 000000018015cfec f i libucrt:output.obj
 0001:0015bff4       ?parse_int_from_format_string@?$output_processor@DV?$stream_output_adapter@D@__crt_stdio_output@@V?$format_validation_base@DV?$stream_output_adapter@D@__crt_stdio_output@@@2@@__crt_stdio_output@@AEAA_NQEAH@Z 000000018015cff4 f i libucrt:output.obj
 0001:0015c098       ?parse_int_from_format_string@?$output_processor@DV?$stream_output_adapter@D@__crt_stdio_output@@V?$positional_parameter_base@DV?$stream_output_adapter@D@__crt_stdio_output@@@2@@__crt_stdio_output@@AEAA_NQEAH@Z 000000018015d098 f i libucrt:output.obj
 0001:0015c13c       ?parse_int_from_format_string@?$output_processor@DV?$stream_output_adapter@D@__crt_stdio_output@@V?$standard_base@DV?$stream_output_adapter@D@__crt_stdio_output@@@2@@__crt_stdio_output@@AEAA_NQEAH@Z 000000018015d13c f i libucrt:output.obj
 0001:0015c1e0       ?parse_int_from_format_string@?$output_processor@DV?$string_output_adapter@D@__crt_stdio_output@@V?$format_validation_base@DV?$string_output_adapter@D@__crt_stdio_output@@@2@@__crt_stdio_output@@AEAA_NQEAH@Z 000000018015d1e0 f i libucrt:output.obj
 0001:0015c284       ?parse_int_from_format_string@?$output_processor@DV?$string_output_adapter@D@__crt_stdio_output@@V?$positional_parameter_base@DV?$string_output_adapter@D@__crt_stdio_output@@@2@@__crt_stdio_output@@AEAA_NQEAH@Z 000000018015d284 f i libucrt:output.obj
 0001:0015c328       ?parse_int_from_format_string@?$output_processor@DV?$string_output_adapter@D@__crt_stdio_output@@V?$standard_base@DV?$string_output_adapter@D@__crt_stdio_output@@@2@@__crt_stdio_output@@AEAA_NQEAH@Z 000000018015d328 f i libucrt:output.obj
 0001:0015c3cc       ?parse_int_from_format_string@?$output_processor@_WV?$stream_output_adapter@_W@__crt_stdio_output@@V?$format_validation_base@_WV?$stream_output_adapter@_W@__crt_stdio_output@@@2@@__crt_stdio_output@@AEAA_NQEAH@Z 000000018015d3cc f i libucrt:output.obj
 0001:0015c470       ?parse_int_from_format_string@?$output_processor@_WV?$stream_output_adapter@_W@__crt_stdio_output@@V?$positional_parameter_base@_WV?$stream_output_adapter@_W@__crt_stdio_output@@@2@@__crt_stdio_output@@AEAA_NQEAH@Z 000000018015d470 f i libucrt:output.obj
 0001:0015c514       ?parse_int_from_format_string@?$output_processor@_WV?$stream_output_adapter@_W@__crt_stdio_output@@V?$standard_base@_WV?$stream_output_adapter@_W@__crt_stdio_output@@@2@@__crt_stdio_output@@AEAA_NQEAH@Z 000000018015d514 f i libucrt:output.obj
 0001:0015c5b8       ?parse_int_from_format_string@?$output_processor@_WV?$string_output_adapter@_W@__crt_stdio_output@@V?$format_validation_base@_WV?$string_output_adapter@_W@__crt_stdio_output@@@2@@__crt_stdio_output@@AEAA_NQEAH@Z 000000018015d5b8 f i libucrt:output.obj
 0001:0015c65c       ?parse_int_from_format_string@?$output_processor@_WV?$string_output_adapter@_W@__crt_stdio_output@@V?$positional_parameter_base@_WV?$string_output_adapter@_W@__crt_stdio_output@@@2@@__crt_stdio_output@@AEAA_NQEAH@Z 000000018015d65c f i libucrt:output.obj
 0001:0015c700       ?parse_int_from_format_string@?$output_processor@_WV?$string_output_adapter@_W@__crt_stdio_output@@V?$standard_base@_WV?$string_output_adapter@_W@__crt_stdio_output@@@2@@__crt_stdio_output@@AEAA_NQEAH@Z 000000018015d700 f i libucrt:output.obj
 0001:0015c7a4       ?process@?$output_processor@DV?$stream_output_adapter@D@__crt_stdio_output@@V?$format_validation_base@DV?$stream_output_adapter@D@__crt_stdio_output@@@2@@__crt_stdio_output@@QEAAHXZ 000000018015d7a4 f i libucrt:output.obj
 0001:0015c9c8       ?process@?$output_processor@DV?$stream_output_adapter@D@__crt_stdio_output@@V?$positional_parameter_base@DV?$stream_output_adapter@D@__crt_stdio_output@@@2@@__crt_stdio_output@@QEAAHXZ 000000018015d9c8 f i libucrt:output.obj
 0001:0015cc6c       ?process@?$output_processor@DV?$stream_output_adapter@D@__crt_stdio_output@@V?$standard_base@DV?$stream_output_adapter@D@__crt_stdio_output@@@2@@__crt_stdio_output@@QEAAHXZ 000000018015dc6c f i libucrt:output.obj
 0001:0015ce80       ?process@?$output_processor@DV?$string_output_adapter@D@__crt_stdio_output@@V?$format_validation_base@DV?$string_output_adapter@D@__crt_stdio_output@@@2@@__crt_stdio_output@@QEAAHXZ 000000018015de80 f i libucrt:output.obj
 0001:0015d094       ?process@?$output_processor@DV?$string_output_adapter@D@__crt_stdio_output@@V?$positional_parameter_base@DV?$string_output_adapter@D@__crt_stdio_output@@@2@@__crt_stdio_output@@QEAAHXZ 000000018015e094 f i libucrt:output.obj
 0001:0015d328       ?process@?$output_processor@DV?$string_output_adapter@D@__crt_stdio_output@@V?$standard_base@DV?$string_output_adapter@D@__crt_stdio_output@@@2@@__crt_stdio_output@@QEAAHXZ 000000018015e328 f i libucrt:output.obj
 0001:0015d530       ?process@?$output_processor@_WV?$stream_output_adapter@_W@__crt_stdio_output@@V?$format_validation_base@_WV?$stream_output_adapter@_W@__crt_stdio_output@@@2@@__crt_stdio_output@@QEAAHXZ 000000018015e530 f i libucrt:output.obj
 0001:0015d7b4       ?process@?$output_processor@_WV?$stream_output_adapter@_W@__crt_stdio_output@@V?$positional_parameter_base@_WV?$stream_output_adapter@_W@__crt_stdio_output@@@2@@__crt_stdio_output@@QEAAHXZ 000000018015e7b4 f i libucrt:output.obj
 0001:0015da70       ?process@?$output_processor@_WV?$stream_output_adapter@_W@__crt_stdio_output@@V?$standard_base@_WV?$stream_output_adapter@_W@__crt_stdio_output@@@2@@__crt_stdio_output@@QEAAHXZ 000000018015ea70 f i libucrt:output.obj
 0001:0015dce8       ?process@?$output_processor@_WV?$string_output_adapter@_W@__crt_stdio_output@@V?$format_validation_base@_WV?$string_output_adapter@_W@__crt_stdio_output@@@2@@__crt_stdio_output@@QEAAHXZ 000000018015ece8 f i libucrt:output.obj
 0001:0015df60       ?process@?$output_processor@_WV?$string_output_adapter@_W@__crt_stdio_output@@V?$positional_parameter_base@_WV?$string_output_adapter@_W@__crt_stdio_output@@@2@@__crt_stdio_output@@QEAAHXZ 000000018015ef60 f i libucrt:output.obj
 0001:0015e21c       ?process@?$output_processor@_WV?$string_output_adapter@_W@__crt_stdio_output@@V?$standard_base@_WV?$string_output_adapter@_W@__crt_stdio_output@@@2@@__crt_stdio_output@@QEAAHXZ 000000018015f21c f i libucrt:output.obj
 0001:0015e488       ?public_stream@__crt_stdio_stream@@QEBAPEAU_iobuf@@XZ 000000018015f488 f i libucrt:output.obj
 0001:0015e48c       ?set_flag@?$output_processor@DV?$stream_output_adapter@D@__crt_stdio_output@@V?$format_validation_base@DV?$stream_output_adapter@D@__crt_stdio_output@@@2@@__crt_stdio_output@@AEAAXI@Z 000000018015f48c f i libucrt:output.obj
 0001:0015e490       ?set_flag@?$output_processor@DV?$stream_output_adapter@D@__crt_stdio_output@@V?$positional_parameter_base@DV?$stream_output_adapter@D@__crt_stdio_output@@@2@@__crt_stdio_output@@AEAAXI@Z 000000018015f490 f i libucrt:output.obj
 0001:0015e494       ?set_flag@?$output_processor@DV?$stream_output_adapter@D@__crt_stdio_output@@V?$standard_base@DV?$stream_output_adapter@D@__crt_stdio_output@@@2@@__crt_stdio_output@@AEAAXI@Z 000000018015f494 f i libucrt:output.obj
 0001:0015e498       ?set_flag@?$output_processor@DV?$string_output_adapter@D@__crt_stdio_output@@V?$format_validation_base@DV?$string_output_adapter@D@__crt_stdio_output@@@2@@__crt_stdio_output@@AEAAXI@Z 000000018015f498 f i libucrt:output.obj
 0001:0015e49c       ?set_flag@?$output_processor@DV?$string_output_adapter@D@__crt_stdio_output@@V?$positional_parameter_base@DV?$string_output_adapter@D@__crt_stdio_output@@@2@@__crt_stdio_output@@AEAAXI@Z 000000018015f49c f i libucrt:output.obj
 0001:0015e4a0       ?set_flag@?$output_processor@DV?$string_output_adapter@D@__crt_stdio_output@@V?$standard_base@DV?$string_output_adapter@D@__crt_stdio_output@@@2@@__crt_stdio_output@@AEAAXI@Z 000000018015f4a0 f i libucrt:output.obj
 0001:0015e4a4       ?set_flag@?$output_processor@_WV?$stream_output_adapter@_W@__crt_stdio_output@@V?$format_validation_base@_WV?$stream_output_adapter@_W@__crt_stdio_output@@@2@@__crt_stdio_output@@AEAAXI@Z 000000018015f4a4 f i libucrt:output.obj
 0001:0015e4a8       ?set_flag@?$output_processor@_WV?$stream_output_adapter@_W@__crt_stdio_output@@V?$positional_parameter_base@_WV?$stream_output_adapter@_W@__crt_stdio_output@@@2@@__crt_stdio_output@@AEAAXI@Z 000000018015f4a8 f i libucrt:output.obj
 0001:0015e4ac       ?set_flag@?$output_processor@_WV?$stream_output_adapter@_W@__crt_stdio_output@@V?$standard_base@_WV?$stream_output_adapter@_W@__crt_stdio_output@@@2@@__crt_stdio_output@@AEAAXI@Z 000000018015f4ac f i libucrt:output.obj
 0001:0015e4b0       ?set_flag@?$output_processor@_WV?$string_output_adapter@_W@__crt_stdio_output@@V?$format_validation_base@_WV?$string_output_adapter@_W@__crt_stdio_output@@@2@@__crt_stdio_output@@AEAAXI@Z 000000018015f4b0 f i libucrt:output.obj
 0001:0015e4b4       ?set_flag@?$output_processor@_WV?$string_output_adapter@_W@__crt_stdio_output@@V?$positional_parameter_base@_WV?$string_output_adapter@_W@__crt_stdio_output@@@2@@__crt_stdio_output@@AEAAXI@Z 000000018015f4b4 f i libucrt:output.obj
 0001:0015e4b8       ?set_flag@?$output_processor@_WV?$string_output_adapter@_W@__crt_stdio_output@@V?$standard_base@_WV?$string_output_adapter@_W@__crt_stdio_output@@@2@@__crt_stdio_output@@AEAAXI@Z 000000018015f4b8 f i libucrt:output.obj
 0001:0015e4bc       ?should_format@?$positional_parameter_base@DV?$stream_output_adapter@D@__crt_stdio_output@@@__crt_stdio_output@@IEAA_NXZ 000000018015f4bc f i libucrt:output.obj
 0001:0015e4d4       ?should_format@?$positional_parameter_base@DV?$string_output_adapter@D@__crt_stdio_output@@@__crt_stdio_output@@IEAA_NXZ 000000018015f4d4 f i libucrt:output.obj
 0001:0015e4ec       ?should_format@?$positional_parameter_base@_WV?$stream_output_adapter@_W@__crt_stdio_output@@@__crt_stdio_output@@IEAA_NXZ 000000018015f4ec f i libucrt:output.obj
 0001:0015e504       ?should_format@?$positional_parameter_base@_WV?$string_output_adapter@_W@__crt_stdio_output@@@__crt_stdio_output@@IEAA_NXZ 000000018015f504 f i libucrt:output.obj
 0001:0015e51c       ?should_format@?$standard_base@DV?$stream_output_adapter@D@__crt_stdio_output@@@__crt_stdio_output@@IEAA_NXZ 000000018015f51c f i libucrt:output.obj
 0001:0015e520       ?should_format@?$standard_base@DV?$string_output_adapter@D@__crt_stdio_output@@@__crt_stdio_output@@IEAA_NXZ 000000018015f520 f i libucrt:output.obj
 0001:0015e524       ?should_format@?$standard_base@_WV?$stream_output_adapter@_W@__crt_stdio_output@@@__crt_stdio_output@@IEAA_NXZ 000000018015f524 f i libucrt:output.obj
 0001:0015e528       ?should_format@?$standard_base@_WV?$string_output_adapter@_W@__crt_stdio_output@@@__crt_stdio_output@@IEAA_NXZ 000000018015f528 f i libucrt:output.obj
 0001:0015e52c       ?should_skip_normal_state_processing@?$positional_parameter_base@DV?$stream_output_adapter@D@__crt_stdio_output@@@__crt_stdio_output@@IEAA_NXZ 000000018015f52c f i libucrt:output.obj
 0001:0015e554       ?should_skip_normal_state_processing@?$positional_parameter_base@DV?$string_output_adapter@D@__crt_stdio_output@@@__crt_stdio_output@@IEAA_NXZ 000000018015f554 f i libucrt:output.obj
 0001:0015e57c       ?should_skip_normal_state_processing@?$positional_parameter_base@_WV?$stream_output_adapter@_W@__crt_stdio_output@@@__crt_stdio_output@@IEAA_NXZ 000000018015f57c f i libucrt:output.obj
 0001:0015e5a4       ?should_skip_normal_state_processing@?$positional_parameter_base@_WV?$string_output_adapter@_W@__crt_stdio_output@@@__crt_stdio_output@@IEAA_NXZ 000000018015f5a4 f i libucrt:output.obj
 0001:0015e5cc       ?should_skip_normal_state_processing@?$standard_base@DV?$stream_output_adapter@D@__crt_stdio_output@@@__crt_stdio_output@@IEAA_NXZ 000000018015f5cc f i libucrt:output.obj
 0001:0015e5d0       ?should_skip_normal_state_processing@?$standard_base@DV?$string_output_adapter@D@__crt_stdio_output@@@__crt_stdio_output@@IEAA_NXZ 000000018015f5d0 f i libucrt:output.obj
 0001:0015e5d4       ?should_skip_normal_state_processing@?$standard_base@_WV?$stream_output_adapter@_W@__crt_stdio_output@@@__crt_stdio_output@@IEAA_NXZ 000000018015f5d4 f i libucrt:output.obj
 0001:0015e5d8       ?should_skip_normal_state_processing@?$standard_base@_WV?$string_output_adapter@_W@__crt_stdio_output@@@__crt_stdio_output@@IEAA_NXZ 000000018015f5d8 f i libucrt:output.obj
 0001:0015e5dc       ?should_skip_type_state_output@?$positional_parameter_base@DV?$stream_output_adapter@D@__crt_stdio_output@@@__crt_stdio_output@@IEBA_NXZ 000000018015f5dc f i libucrt:output.obj
 0001:0015e5f8       ?should_skip_type_state_output@?$positional_parameter_base@DV?$string_output_adapter@D@__crt_stdio_output@@@__crt_stdio_output@@IEBA_NXZ 000000018015f5f8 f i libucrt:output.obj
 0001:0015e614       ?should_skip_type_state_output@?$positional_parameter_base@_WV?$stream_output_adapter@_W@__crt_stdio_output@@@__crt_stdio_output@@IEBA_NXZ 000000018015f614 f i libucrt:output.obj
 0001:0015e630       ?should_skip_type_state_output@?$positional_parameter_base@_WV?$string_output_adapter@_W@__crt_stdio_output@@@__crt_stdio_output@@IEBA_NXZ 000000018015f630 f i libucrt:output.obj
 0001:0015e64c       ?should_skip_type_state_output@?$standard_base@DV?$stream_output_adapter@D@__crt_stdio_output@@@__crt_stdio_output@@IEBA_NXZ 000000018015f64c f i libucrt:output.obj
 0001:0015e650       ?should_skip_type_state_output@?$standard_base@DV?$string_output_adapter@D@__crt_stdio_output@@@__crt_stdio_output@@IEBA_NXZ 000000018015f650 f i libucrt:output.obj
 0001:0015e654       ?should_skip_type_state_output@?$standard_base@_WV?$stream_output_adapter@_W@__crt_stdio_output@@@__crt_stdio_output@@IEBA_NXZ 000000018015f654 f i libucrt:output.obj
 0001:0015e658       ?should_skip_type_state_output@?$standard_base@_WV?$string_output_adapter@_W@__crt_stdio_output@@@__crt_stdio_output@@IEBA_NXZ 000000018015f658 f i libucrt:output.obj
 0001:0015e65c       ?state_case_dot@?$output_processor@DV?$stream_output_adapter@D@__crt_stdio_output@@V?$format_validation_base@DV?$stream_output_adapter@D@__crt_stdio_output@@@2@@__crt_stdio_output@@AEAA_NXZ 000000018015f65c f i libucrt:output.obj
 0001:0015e664       ?state_case_dot@?$output_processor@DV?$stream_output_adapter@D@__crt_stdio_output@@V?$positional_parameter_base@DV?$stream_output_adapter@D@__crt_stdio_output@@@2@@__crt_stdio_output@@AEAA_NXZ 000000018015f664 f i libucrt:output.obj
 0001:0015e66c       ?state_case_dot@?$output_processor@DV?$stream_output_adapter@D@__crt_stdio_output@@V?$standard_base@DV?$stream_output_adapter@D@__crt_stdio_output@@@2@@__crt_stdio_output@@AEAA_NXZ 000000018015f66c f i libucrt:output.obj
 0001:0015e674       ?state_case_dot@?$output_processor@DV?$string_output_adapter@D@__crt_stdio_output@@V?$format_validation_base@DV?$string_output_adapter@D@__crt_stdio_output@@@2@@__crt_stdio_output@@AEAA_NXZ 000000018015f674 f i libucrt:output.obj
 0001:0015e67c       ?state_case_dot@?$output_processor@DV?$string_output_adapter@D@__crt_stdio_output@@V?$positional_parameter_base@DV?$string_output_adapter@D@__crt_stdio_output@@@2@@__crt_stdio_output@@AEAA_NXZ 000000018015f67c f i libucrt:output.obj
 0001:0015e684       ?state_case_dot@?$output_processor@DV?$string_output_adapter@D@__crt_stdio_output@@V?$standard_base@DV?$string_output_adapter@D@__crt_stdio_output@@@2@@__crt_stdio_output@@AEAA_NXZ 000000018015f684 f i libucrt:output.obj
 0001:0015e68c       ?state_case_dot@?$output_processor@_WV?$stream_output_adapter@_W@__crt_stdio_output@@V?$format_validation_base@_WV?$stream_output_adapter@_W@__crt_stdio_output@@@2@@__crt_stdio_output@@AEAA_NXZ 000000018015f68c f i libucrt:output.obj
 0001:0015e694       ?state_case_dot@?$output_processor@_WV?$stream_output_adapter@_W@__crt_stdio_output@@V?$positional_parameter_base@_WV?$stream_output_adapter@_W@__crt_stdio_output@@@2@@__crt_stdio_output@@AEAA_NXZ 000000018015f694 f i libucrt:output.obj
 0001:0015e69c       ?state_case_dot@?$output_processor@_WV?$stream_output_adapter@_W@__crt_stdio_output@@V?$standard_base@_WV?$stream_output_adapter@_W@__crt_stdio_output@@@2@@__crt_stdio_output@@AEAA_NXZ 000000018015f69c f i libucrt:output.obj
 0001:0015e6a4       ?state_case_dot@?$output_processor@_WV?$string_output_adapter@_W@__crt_stdio_output@@V?$format_validation_base@_WV?$string_output_adapter@_W@__crt_stdio_output@@@2@@__crt_stdio_output@@AEAA_NXZ 000000018015f6a4 f i libucrt:output.obj
 0001:0015e6ac       ?state_case_dot@?$output_processor@_WV?$string_output_adapter@_W@__crt_stdio_output@@V?$positional_parameter_base@_WV?$string_output_adapter@_W@__crt_stdio_output@@@2@@__crt_stdio_output@@AEAA_NXZ 000000018015f6ac f i libucrt:output.obj
 0001:0015e6b4       ?state_case_dot@?$output_processor@_WV?$string_output_adapter@_W@__crt_stdio_output@@V?$standard_base@_WV?$string_output_adapter@_W@__crt_stdio_output@@@2@@__crt_stdio_output@@AEAA_NXZ 000000018015f6b4 f i libucrt:output.obj
 0001:0015e6bc       ?state_case_flag@?$output_processor@DV?$stream_output_adapter@D@__crt_stdio_output@@V?$format_validation_base@DV?$stream_output_adapter@D@__crt_stdio_output@@@2@@__crt_stdio_output@@AEAA_NXZ 000000018015f6bc f i libucrt:output.obj
 0001:0015e6f4       ?state_case_flag@?$output_processor@DV?$stream_output_adapter@D@__crt_stdio_output@@V?$positional_parameter_base@DV?$stream_output_adapter@D@__crt_stdio_output@@@2@@__crt_stdio_output@@AEAA_NXZ 000000018015f6f4 f i libucrt:output.obj
 0001:0015e72c       ?state_case_flag@?$output_processor@DV?$stream_output_adapter@D@__crt_stdio_output@@V?$standard_base@DV?$stream_output_adapter@D@__crt_stdio_output@@@2@@__crt_stdio_output@@AEAA_NXZ 000000018015f72c f i libucrt:output.obj
 0001:0015e764       ?state_case_flag@?$output_processor@DV?$string_output_adapter@D@__crt_stdio_output@@V?$format_validation_base@DV?$string_output_adapter@D@__crt_stdio_output@@@2@@__crt_stdio_output@@AEAA_NXZ 000000018015f764 f i libucrt:output.obj
 0001:0015e79c       ?state_case_flag@?$output_processor@DV?$string_output_adapter@D@__crt_stdio_output@@V?$positional_parameter_base@DV?$string_output_adapter@D@__crt_stdio_output@@@2@@__crt_stdio_output@@AEAA_NXZ 000000018015f79c f i libucrt:output.obj
 0001:0015e7d4       ?state_case_flag@?$output_processor@DV?$string_output_adapter@D@__crt_stdio_output@@V?$standard_base@DV?$string_output_adapter@D@__crt_stdio_output@@@2@@__crt_stdio_output@@AEAA_NXZ 000000018015f7d4 f i libucrt:output.obj
 0001:0015e80c       ?state_case_flag@?$output_processor@_WV?$stream_output_adapter@_W@__crt_stdio_output@@V?$format_validation_base@_WV?$stream_output_adapter@_W@__crt_stdio_output@@@2@@__crt_stdio_output@@AEAA_NXZ 000000018015f80c f i libucrt:output.obj
 0001:0015e850       ?state_case_flag@?$output_processor@_WV?$stream_output_adapter@_W@__crt_stdio_output@@V?$positional_parameter_base@_WV?$stream_output_adapter@_W@__crt_stdio_output@@@2@@__crt_stdio_output@@AEAA_NXZ 000000018015f850 f i libucrt:output.obj
 0001:0015e894       ?state_case_flag@?$output_processor@_WV?$stream_output_adapter@_W@__crt_stdio_output@@V?$standard_base@_WV?$stream_output_adapter@_W@__crt_stdio_output@@@2@@__crt_stdio_output@@AEAA_NXZ 000000018015f894 f i libucrt:output.obj
 0001:0015e8d8       ?state_case_flag@?$output_processor@_WV?$string_output_adapter@_W@__crt_stdio_output@@V?$format_validation_base@_WV?$string_output_adapter@_W@__crt_stdio_output@@@2@@__crt_stdio_output@@AEAA_NXZ 000000018015f8d8 f i libucrt:output.obj
 0001:0015e91c       ?state_case_flag@?$output_processor@_WV?$string_output_adapter@_W@__crt_stdio_output@@V?$positional_parameter_base@_WV?$string_output_adapter@_W@__crt_stdio_output@@@2@@__crt_stdio_output@@AEAA_NXZ 000000018015f91c f i libucrt:output.obj
 0001:0015e960       ?state_case_flag@?$output_processor@_WV?$string_output_adapter@_W@__crt_stdio_output@@V?$standard_base@_WV?$string_output_adapter@_W@__crt_stdio_output@@@2@@__crt_stdio_output@@AEAA_NXZ 000000018015f960 f i libucrt:output.obj
 0001:0015e9a4       ?state_case_normal@?$output_processor@DV?$stream_output_adapter@D@__crt_stdio_output@@V?$format_validation_base@DV?$stream_output_adapter@D@__crt_stdio_output@@@2@@__crt_stdio_output@@AEAA_NXZ 000000018015f9a4 f i libucrt:output.obj
 0001:0015ea14       ?state_case_normal@?$output_processor@DV?$stream_output_adapter@D@__crt_stdio_output@@V?$positional_parameter_base@DV?$stream_output_adapter@D@__crt_stdio_output@@@2@@__crt_stdio_output@@AEAA_NXZ 000000018015fa14 f i libucrt:output.obj
 0001:0015eaa8       ?state_case_normal@?$output_processor@DV?$stream_output_adapter@D@__crt_stdio_output@@V?$standard_base@DV?$stream_output_adapter@D@__crt_stdio_output@@@2@@__crt_stdio_output@@AEAA_NXZ 000000018015faa8 f i libucrt:output.obj
 0001:0015eb18       ?state_case_normal@?$output_processor@DV?$string_output_adapter@D@__crt_stdio_output@@V?$format_validation_base@DV?$string_output_adapter@D@__crt_stdio_output@@@2@@__crt_stdio_output@@AEAA_NXZ 000000018015fb18 f i libucrt:output.obj
 0001:0015eb8c       ?state_case_normal@?$output_processor@DV?$string_output_adapter@D@__crt_stdio_output@@V?$positional_parameter_base@DV?$string_output_adapter@D@__crt_stdio_output@@@2@@__crt_stdio_output@@AEAA_NXZ 000000018015fb8c f i libucrt:output.obj
 0001:0015ec24       ?state_case_normal@?$output_processor@DV?$string_output_adapter@D@__crt_stdio_output@@V?$standard_base@DV?$string_output_adapter@D@__crt_stdio_output@@@2@@__crt_stdio_output@@AEAA_NXZ 000000018015fc24 f i libucrt:output.obj
 0001:0015ec98       ?state_case_normal@?$output_processor@_WV?$stream_output_adapter@_W@__crt_stdio_output@@V?$format_validation_base@_WV?$stream_output_adapter@_W@__crt_stdio_output@@@2@@__crt_stdio_output@@AEAA_NXZ 000000018015fc98 f i libucrt:output.obj
 0001:0015ecf0       ?state_case_normal@?$output_processor@_WV?$stream_output_adapter@_W@__crt_stdio_output@@V?$positional_parameter_base@_WV?$stream_output_adapter@_W@__crt_stdio_output@@@2@@__crt_stdio_output@@AEAA_NXZ 000000018015fcf0 f i libucrt:output.obj
 0001:0015ed6c       ?state_case_normal@?$output_processor@_WV?$stream_output_adapter@_W@__crt_stdio_output@@V?$standard_base@_WV?$stream_output_adapter@_W@__crt_stdio_output@@@2@@__crt_stdio_output@@AEAA_NXZ 000000018015fd6c f i libucrt:output.obj
 0001:0015edc4       ?state_case_normal@?$output_processor@_WV?$string_output_adapter@_W@__crt_stdio_output@@V?$format_validation_base@_WV?$string_output_adapter@_W@__crt_stdio_output@@@2@@__crt_stdio_output@@AEAA_NXZ 000000018015fdc4 f i libucrt:output.obj
 0001:0015ee18       ?state_case_normal@?$output_processor@_WV?$string_output_adapter@_W@__crt_stdio_output@@V?$positional_parameter_base@_WV?$string_output_adapter@_W@__crt_stdio_output@@@2@@__crt_stdio_output@@AEAA_NXZ 000000018015fe18 f i libucrt:output.obj
 0001:0015ee90       ?state_case_normal@?$output_processor@_WV?$string_output_adapter@_W@__crt_stdio_output@@V?$standard_base@_WV?$string_output_adapter@_W@__crt_stdio_output@@@2@@__crt_stdio_output@@AEAA_NXZ 000000018015fe90 f i libucrt:output.obj
 0001:0015eee4       ?state_case_normal_common@?$output_processor@DV?$stream_output_adapter@D@__crt_stdio_output@@V?$format_validation_base@DV?$stream_output_adapter@D@__crt_stdio_output@@@2@@__crt_stdio_output@@AEAA_NXZ 000000018015fee4 f i libucrt:output.obj
 0001:0015ef40       ?state_case_normal_common@?$output_processor@DV?$stream_output_adapter@D@__crt_stdio_output@@V?$positional_parameter_base@DV?$stream_output_adapter@D@__crt_stdio_output@@@2@@__crt_stdio_output@@AEAA_NXZ 000000018015ff40 f i libucrt:output.obj
 0001:0015ef9c       ?state_case_normal_common@?$output_processor@DV?$stream_output_adapter@D@__crt_stdio_output@@V?$standard_base@DV?$stream_output_adapter@D@__crt_stdio_output@@@2@@__crt_stdio_output@@AEAA_NXZ 000000018015ff9c f i libucrt:output.obj
 0001:0015eff8       ?state_case_normal_common@?$output_processor@DV?$string_output_adapter@D@__crt_stdio_output@@V?$format_validation_base@DV?$string_output_adapter@D@__crt_stdio_output@@@2@@__crt_stdio_output@@AEAA_NXZ 000000018015fff8 f i libucrt:output.obj
 0001:0015f058       ?state_case_normal_common@?$output_processor@DV?$string_output_adapter@D@__crt_stdio_output@@V?$positional_parameter_base@DV?$string_output_adapter@D@__crt_stdio_output@@@2@@__crt_stdio_output@@AEAA_NXZ 0000000180160058 f i libucrt:output.obj
 0001:0015f0b8       ?state_case_normal_common@?$output_processor@DV?$string_output_adapter@D@__crt_stdio_output@@V?$standard_base@DV?$string_output_adapter@D@__crt_stdio_output@@@2@@__crt_stdio_output@@AEAA_NXZ 00000001801600b8 f i libucrt:output.obj
 0001:0015f118       ?state_case_normal_common@?$output_processor@_WV?$stream_output_adapter@_W@__crt_stdio_output@@V?$format_validation_base@_WV?$stream_output_adapter@_W@__crt_stdio_output@@@2@@__crt_stdio_output@@AEAA_NXZ 0000000180160118 f i libucrt:output.obj
 0001:0015f170       ?state_case_normal_common@?$output_processor@_WV?$stream_output_adapter@_W@__crt_stdio_output@@V?$positional_parameter_base@_WV?$stream_output_adapter@_W@__crt_stdio_output@@@2@@__crt_stdio_output@@AEAA_NXZ 0000000180160170 f i libucrt:output.obj
 0001:0015f1c8       ?state_case_normal_common@?$output_processor@_WV?$stream_output_adapter@_W@__crt_stdio_output@@V?$standard_base@_WV?$stream_output_adapter@_W@__crt_stdio_output@@@2@@__crt_stdio_output@@AEAA_NXZ 00000001801601c8 f i libucrt:output.obj
 0001:0015f220       ?state_case_normal_common@?$output_processor@_WV?$string_output_adapter@_W@__crt_stdio_output@@V?$format_validation_base@_WV?$string_output_adapter@_W@__crt_stdio_output@@@2@@__crt_stdio_output@@AEAA_NXZ 0000000180160220 f i libucrt:output.obj
 0001:0015f274       ?state_case_normal_common@?$output_processor@_WV?$string_output_adapter@_W@__crt_stdio_output@@V?$positional_parameter_base@_WV?$string_output_adapter@_W@__crt_stdio_output@@@2@@__crt_stdio_output@@AEAA_NXZ 0000000180160274 f i libucrt:output.obj
 0001:0015f2c8       ?state_case_normal_common@?$output_processor@_WV?$string_output_adapter@_W@__crt_stdio_output@@V?$standard_base@_WV?$string_output_adapter@_W@__crt_stdio_output@@@2@@__crt_stdio_output@@AEAA_NXZ 00000001801602c8 f i libucrt:output.obj
 0001:0015f31c       ?state_case_normal_tchar@?$output_processor@DV?$stream_output_adapter@D@__crt_stdio_output@@V?$format_validation_base@DV?$stream_output_adapter@D@__crt_stdio_output@@@2@@__crt_stdio_output@@AEAA_ND@Z 000000018016031c f i libucrt:output.obj
 0001:0015f3c0       ?state_case_normal_tchar@?$output_processor@DV?$stream_output_adapter@D@__crt_stdio_output@@V?$positional_parameter_base@DV?$stream_output_adapter@D@__crt_stdio_output@@@2@@__crt_stdio_output@@AEAA_ND@Z 00000001801603c0 f i libucrt:output.obj
 0001:0015f464       ?state_case_normal_tchar@?$output_processor@DV?$stream_output_adapter@D@__crt_stdio_output@@V?$standard_base@DV?$stream_output_adapter@D@__crt_stdio_output@@@2@@__crt_stdio_output@@AEAA_ND@Z 0000000180160464 f i libucrt:output.obj
 0001:0015f508       ?state_case_normal_tchar@?$output_processor@DV?$string_output_adapter@D@__crt_stdio_output@@V?$format_validation_base@DV?$string_output_adapter@D@__crt_stdio_output@@@2@@__crt_stdio_output@@AEAA_ND@Z 0000000180160508 f i libucrt:output.obj
 0001:0015f5b0       ?state_case_normal_tchar@?$output_processor@DV?$string_output_adapter@D@__crt_stdio_output@@V?$positional_parameter_base@DV?$string_output_adapter@D@__crt_stdio_output@@@2@@__crt_stdio_output@@AEAA_ND@Z 00000001801605b0 f i libucrt:output.obj
 0001:0015f658       ?state_case_normal_tchar@?$output_processor@DV?$string_output_adapter@D@__crt_stdio_output@@V?$standard_base@DV?$string_output_adapter@D@__crt_stdio_output@@@2@@__crt_stdio_output@@AEAA_ND@Z 0000000180160658 f i libucrt:output.obj
 0001:0015f700       ?state_case_normal_tchar@?$output_processor@_WV?$stream_output_adapter@_W@__crt_stdio_output@@V?$format_validation_base@_WV?$stream_output_adapter@_W@__crt_stdio_output@@@2@@__crt_stdio_output@@AEAA_N_W@Z 0000000180160700 f i libucrt:output.obj
 0001:0015f708       ?state_case_normal_tchar@?$output_processor@_WV?$stream_output_adapter@_W@__crt_stdio_output@@V?$positional_parameter_base@_WV?$stream_output_adapter@_W@__crt_stdio_output@@@2@@__crt_stdio_output@@AEAA_N_W@Z 0000000180160708 f i libucrt:output.obj
 0001:0015f710       ?state_case_normal_tchar@?$output_processor@_WV?$stream_output_adapter@_W@__crt_stdio_output@@V?$standard_base@_WV?$stream_output_adapter@_W@__crt_stdio_output@@@2@@__crt_stdio_output@@AEAA_N_W@Z 0000000180160710 f i libucrt:output.obj
 0001:0015f718       ?state_case_normal_tchar@?$output_processor@_WV?$string_output_adapter@_W@__crt_stdio_output@@V?$format_validation_base@_WV?$string_output_adapter@_W@__crt_stdio_output@@@2@@__crt_stdio_output@@AEAA_N_W@Z 0000000180160718 f i libucrt:output.obj
 0001:0015f720       ?state_case_normal_tchar@?$output_processor@_WV?$string_output_adapter@_W@__crt_stdio_output@@V?$positional_parameter_base@_WV?$string_output_adapter@_W@__crt_stdio_output@@@2@@__crt_stdio_output@@AEAA_N_W@Z 0000000180160720 f i libucrt:output.obj
 0001:0015f728       ?state_case_normal_tchar@?$output_processor@_WV?$string_output_adapter@_W@__crt_stdio_output@@V?$standard_base@_WV?$string_output_adapter@_W@__crt_stdio_output@@@2@@__crt_stdio_output@@AEAA_N_W@Z 0000000180160728 f i libucrt:output.obj
 0001:0015f730       ?state_case_percent@?$output_processor@DV?$stream_output_adapter@D@__crt_stdio_output@@V?$format_validation_base@DV?$stream_output_adapter@D@__crt_stdio_output@@@2@@__crt_stdio_output@@AEAA_NXZ 0000000180160730 f i libucrt:output.obj
 0001:0015f748       ?state_case_percent@?$output_processor@DV?$stream_output_adapter@D@__crt_stdio_output@@V?$positional_parameter_base@DV?$stream_output_adapter@D@__crt_stdio_output@@@2@@__crt_stdio_output@@AEAA_NXZ 0000000180160748 f i libucrt:output.obj
 0001:0015f760       ?state_case_percent@?$output_processor@DV?$stream_output_adapter@D@__crt_stdio_output@@V?$standard_base@DV?$stream_output_adapter@D@__crt_stdio_output@@@2@@__crt_stdio_output@@AEAA_NXZ 0000000180160760 f i libucrt:output.obj
 0001:0015f778       ?state_case_percent@?$output_processor@DV?$string_output_adapter@D@__crt_stdio_output@@V?$format_validation_base@DV?$string_output_adapter@D@__crt_stdio_output@@@2@@__crt_stdio_output@@AEAA_NXZ 0000000180160778 f i libucrt:output.obj
 0001:0015f790       ?state_case_percent@?$output_processor@DV?$string_output_adapter@D@__crt_stdio_output@@V?$positional_parameter_base@DV?$string_output_adapter@D@__crt_stdio_output@@@2@@__crt_stdio_output@@AEAA_NXZ 0000000180160790 f i libucrt:output.obj
 0001:0015f7a8       ?state_case_percent@?$output_processor@DV?$string_output_adapter@D@__crt_stdio_output@@V?$standard_base@DV?$string_output_adapter@D@__crt_stdio_output@@@2@@__crt_stdio_output@@AEAA_NXZ 00000001801607a8 f i libucrt:output.obj
 0001:0015f7c0       ?state_case_percent@?$output_processor@_WV?$stream_output_adapter@_W@__crt_stdio_output@@V?$format_validation_base@_WV?$stream_output_adapter@_W@__crt_stdio_output@@@2@@__crt_stdio_output@@AEAA_NXZ 00000001801607c0 f i libucrt:output.obj
 0001:0015f7d8       ?state_case_percent@?$output_processor@_WV?$stream_output_adapter@_W@__crt_stdio_output@@V?$positional_parameter_base@_WV?$stream_output_adapter@_W@__crt_stdio_output@@@2@@__crt_stdio_output@@AEAA_NXZ 00000001801607d8 f i libucrt:output.obj
 0001:0015f7f0       ?state_case_percent@?$output_processor@_WV?$stream_output_adapter@_W@__crt_stdio_output@@V?$standard_base@_WV?$stream_output_adapter@_W@__crt_stdio_output@@@2@@__crt_stdio_output@@AEAA_NXZ 00000001801607f0 f i libucrt:output.obj
 0001:0015f808       ?state_case_percent@?$output_processor@_WV?$string_output_adapter@_W@__crt_stdio_output@@V?$format_validation_base@_WV?$string_output_adapter@_W@__crt_stdio_output@@@2@@__crt_stdio_output@@AEAA_NXZ 0000000180160808 f i libucrt:output.obj
 0001:0015f820       ?state_case_percent@?$output_processor@_WV?$string_output_adapter@_W@__crt_stdio_output@@V?$positional_parameter_base@_WV?$string_output_adapter@_W@__crt_stdio_output@@@2@@__crt_stdio_output@@AEAA_NXZ 0000000180160820 f i libucrt:output.obj
 0001:0015f838       ?state_case_percent@?$output_processor@_WV?$string_output_adapter@_W@__crt_stdio_output@@V?$standard_base@_WV?$string_output_adapter@_W@__crt_stdio_output@@@2@@__crt_stdio_output@@AEAA_NXZ 0000000180160838 f i libucrt:output.obj
 0001:0015f850       ?state_case_precision@?$output_processor@DV?$stream_output_adapter@D@__crt_stdio_output@@V?$format_validation_base@DV?$stream_output_adapter@D@__crt_stdio_output@@@2@@__crt_stdio_output@@AEAA_NXZ 0000000180160850 f i libucrt:output.obj
 0001:0015f878       ?state_case_precision@?$output_processor@DV?$stream_output_adapter@D@__crt_stdio_output@@V?$positional_parameter_base@DV?$stream_output_adapter@D@__crt_stdio_output@@@2@@__crt_stdio_output@@AEAA_NXZ 0000000180160878 f i libucrt:output.obj
 0001:0015f8c4       ?state_case_precision@?$output_processor@DV?$stream_output_adapter@D@__crt_stdio_output@@V?$standard_base@DV?$stream_output_adapter@D@__crt_stdio_output@@@2@@__crt_stdio_output@@AEAA_NXZ 00000001801608c4 f i libucrt:output.obj
 0001:0015f8ec       ?state_case_precision@?$output_processor@DV?$string_output_adapter@D@__crt_stdio_output@@V?$format_validation_base@DV?$string_output_adapter@D@__crt_stdio_output@@@2@@__crt_stdio_output@@AEAA_NXZ 00000001801608ec f i libucrt:output.obj
 0001:0015f914       ?state_case_precision@?$output_processor@DV?$string_output_adapter@D@__crt_stdio_output@@V?$positional_parameter_base@DV?$string_output_adapter@D@__crt_stdio_output@@@2@@__crt_stdio_output@@AEAA_NXZ 0000000180160914 f i libucrt:output.obj
 0001:0015f960       ?state_case_precision@?$output_processor@DV?$string_output_adapter@D@__crt_stdio_output@@V?$standard_base@DV?$string_output_adapter@D@__crt_stdio_output@@@2@@__crt_stdio_output@@AEAA_NXZ 0000000180160960 f i libucrt:output.obj
 0001:0015f988       ?state_case_precision@?$output_processor@_WV?$stream_output_adapter@_W@__crt_stdio_output@@V?$format_validation_base@_WV?$stream_output_adapter@_W@__crt_stdio_output@@@2@@__crt_stdio_output@@AEAA_NXZ 0000000180160988 f i libucrt:output.obj
 0001:0015f9b0       ?state_case_precision@?$output_processor@_WV?$stream_output_adapter@_W@__crt_stdio_output@@V?$positional_parameter_base@_WV?$stream_output_adapter@_W@__crt_stdio_output@@@2@@__crt_stdio_output@@AEAA_NXZ 00000001801609b0 f i libucrt:output.obj
 0001:0015f9fc       ?state_case_precision@?$output_processor@_WV?$stream_output_adapter@_W@__crt_stdio_output@@V?$standard_base@_WV?$stream_output_adapter@_W@__crt_stdio_output@@@2@@__crt_stdio_output@@AEAA_NXZ 00000001801609fc f i libucrt:output.obj
 0001:0015fa24       ?state_case_precision@?$output_processor@_WV?$string_output_adapter@_W@__crt_stdio_output@@V?$format_validation_base@_WV?$string_output_adapter@_W@__crt_stdio_output@@@2@@__crt_stdio_output@@AEAA_NXZ 0000000180160a24 f i libucrt:output.obj
 0001:0015fa4c       ?state_case_precision@?$output_processor@_WV?$string_output_adapter@_W@__crt_stdio_output@@V?$positional_parameter_base@_WV?$string_output_adapter@_W@__crt_stdio_output@@@2@@__crt_stdio_output@@AEAA_NXZ 0000000180160a4c f i libucrt:output.obj
 0001:0015fa98       ?state_case_precision@?$output_processor@_WV?$string_output_adapter@_W@__crt_stdio_output@@V?$standard_base@_WV?$string_output_adapter@_W@__crt_stdio_output@@@2@@__crt_stdio_output@@AEAA_NXZ 0000000180160a98 f i libucrt:output.obj
 0001:0015fac0       ?state_case_size@?$output_processor@DV?$stream_output_adapter@D@__crt_stdio_output@@V?$format_validation_base@DV?$stream_output_adapter@D@__crt_stdio_output@@@2@@__crt_stdio_output@@AEAA_NXZ 0000000180160ac0 f i libucrt:output.obj
 0001:0015fc30       ?state_case_size@?$output_processor@DV?$stream_output_adapter@D@__crt_stdio_output@@V?$positional_parameter_base@DV?$stream_output_adapter@D@__crt_stdio_output@@@2@@__crt_stdio_output@@AEAA_NXZ 0000000180160c30 f i libucrt:output.obj
 0001:0015fda0       ?state_case_size@?$output_processor@DV?$stream_output_adapter@D@__crt_stdio_output@@V?$standard_base@DV?$stream_output_adapter@D@__crt_stdio_output@@@2@@__crt_stdio_output@@AEAA_NXZ 0000000180160da0 f i libucrt:output.obj
 0001:0015ff10       ?state_case_size@?$output_processor@DV?$string_output_adapter@D@__crt_stdio_output@@V?$format_validation_base@DV?$string_output_adapter@D@__crt_stdio_output@@@2@@__crt_stdio_output@@AEAA_NXZ 0000000180160f10 f i libucrt:output.obj
 0001:00160080       ?state_case_size@?$output_processor@DV?$string_output_adapter@D@__crt_stdio_output@@V?$positional_parameter_base@DV?$string_output_adapter@D@__crt_stdio_output@@@2@@__crt_stdio_output@@AEAA_NXZ 0000000180161080 f i libucrt:output.obj
 0001:001601f0       ?state_case_size@?$output_processor@DV?$string_output_adapter@D@__crt_stdio_output@@V?$standard_base@DV?$string_output_adapter@D@__crt_stdio_output@@@2@@__crt_stdio_output@@AEAA_NXZ 00000001801611f0 f i libucrt:output.obj
 0001:00160360       ?state_case_size@?$output_processor@_WV?$stream_output_adapter@_W@__crt_stdio_output@@V?$format_validation_base@_WV?$stream_output_adapter@_W@__crt_stdio_output@@@2@@__crt_stdio_output@@AEAA_NXZ 0000000180161360 f i libucrt:output.obj
 0001:001604f4       ?state_case_size@?$output_processor@_WV?$stream_output_adapter@_W@__crt_stdio_output@@V?$positional_parameter_base@_WV?$stream_output_adapter@_W@__crt_stdio_output@@@2@@__crt_stdio_output@@AEAA_NXZ 00000001801614f4 f i libucrt:output.obj
 0001:00160688       ?state_case_size@?$output_processor@_WV?$stream_output_adapter@_W@__crt_stdio_output@@V?$standard_base@_WV?$stream_output_adapter@_W@__crt_stdio_output@@@2@@__crt_stdio_output@@AEAA_NXZ 0000000180161688 f i libucrt:output.obj
 0001:0016081c       ?state_case_size@?$output_processor@_WV?$string_output_adapter@_W@__crt_stdio_output@@V?$format_validation_base@_WV?$string_output_adapter@_W@__crt_stdio_output@@@2@@__crt_stdio_output@@AEAA_NXZ 000000018016181c f i libucrt:output.obj
 0001:001609b0       ?state_case_size@?$output_processor@_WV?$string_output_adapter@_W@__crt_stdio_output@@V?$positional_parameter_base@_WV?$string_output_adapter@_W@__crt_stdio_output@@@2@@__crt_stdio_output@@AEAA_NXZ 00000001801619b0 f i libucrt:output.obj
 0001:00160b44       ?state_case_size@?$output_processor@_WV?$string_output_adapter@_W@__crt_stdio_output@@V?$standard_base@_WV?$string_output_adapter@_W@__crt_stdio_output@@@2@@__crt_stdio_output@@AEAA_NXZ 0000000180161b44 f i libucrt:output.obj
 0001:00160cd8       ?state_case_type@?$output_processor@DV?$stream_output_adapter@D@__crt_stdio_output@@V?$format_validation_base@DV?$stream_output_adapter@D@__crt_stdio_output@@@2@@__crt_stdio_output@@AEAA_NXZ 0000000180161cd8 f i libucrt:output.obj
 0001:00160f5c       ?state_case_type@?$output_processor@DV?$stream_output_adapter@D@__crt_stdio_output@@V?$positional_parameter_base@DV?$stream_output_adapter@D@__crt_stdio_output@@@2@@__crt_stdio_output@@AEAA_NXZ 0000000180161f5c f i libucrt:output.obj
 0001:001611f8       ?state_case_type@?$output_processor@DV?$stream_output_adapter@D@__crt_stdio_output@@V?$standard_base@DV?$stream_output_adapter@D@__crt_stdio_output@@@2@@__crt_stdio_output@@AEAA_NXZ 00000001801621f8 f i libucrt:output.obj
 0001:0016147c       ?state_case_type@?$output_processor@DV?$string_output_adapter@D@__crt_stdio_output@@V?$format_validation_base@DV?$string_output_adapter@D@__crt_stdio_output@@@2@@__crt_stdio_output@@AEAA_NXZ 000000018016247c f i libucrt:output.obj
 0001:001616e4       ?state_case_type@?$output_processor@DV?$string_output_adapter@D@__crt_stdio_output@@V?$positional_parameter_base@DV?$string_output_adapter@D@__crt_stdio_output@@@2@@__crt_stdio_output@@AEAA_NXZ 00000001801626e4 f i libucrt:output.obj
 0001:00161960       ?state_case_type@?$output_processor@DV?$string_output_adapter@D@__crt_stdio_output@@V?$standard_base@DV?$string_output_adapter@D@__crt_stdio_output@@@2@@__crt_stdio_output@@AEAA_NXZ 0000000180162960 f i libucrt:output.obj
 0001:00161bc8       ?state_case_type@?$output_processor@_WV?$stream_output_adapter@_W@__crt_stdio_output@@V?$format_validation_base@_WV?$stream_output_adapter@_W@__crt_stdio_output@@@2@@__crt_stdio_output@@AEAA_NXZ 0000000180162bc8 f i libucrt:output.obj
 0001:00161ea8       ?state_case_type@?$output_processor@_WV?$stream_output_adapter@_W@__crt_stdio_output@@V?$positional_parameter_base@_WV?$stream_output_adapter@_W@__crt_stdio_output@@@2@@__crt_stdio_output@@AEAA_NXZ 0000000180162ea8 f i libucrt:output.obj
 0001:0016219c       ?state_case_type@?$output_processor@_WV?$stream_output_adapter@_W@__crt_stdio_output@@V?$standard_base@_WV?$stream_output_adapter@_W@__crt_stdio_output@@@2@@__crt_stdio_output@@AEAA_NXZ 000000018016319c f i libucrt:output.obj
 0001:0016247c       ?state_case_type@?$output_processor@_WV?$string_output_adapter@_W@__crt_stdio_output@@V?$format_validation_base@_WV?$string_output_adapter@_W@__crt_stdio_output@@@2@@__crt_stdio_output@@AEAA_NXZ 000000018016347c f i libucrt:output.obj
 0001:00162748       ?state_case_type@?$output_processor@_WV?$string_output_adapter@_W@__crt_stdio_output@@V?$positional_parameter_base@_WV?$string_output_adapter@_W@__crt_stdio_output@@@2@@__crt_stdio_output@@AEAA_NXZ 0000000180163748 f i libucrt:output.obj
 0001:00162a28       ?state_case_type@?$output_processor@_WV?$string_output_adapter@_W@__crt_stdio_output@@V?$standard_base@_WV?$string_output_adapter@_W@__crt_stdio_output@@@2@@__crt_stdio_output@@AEAA_NXZ 0000000180163a28 f i libucrt:output.obj
 0001:00162cf4       ?state_case_width@?$output_processor@DV?$stream_output_adapter@D@__crt_stdio_output@@V?$format_validation_base@DV?$stream_output_adapter@D@__crt_stdio_output@@@2@@__crt_stdio_output@@AEAA_NXZ 0000000180163cf4 f i libucrt:output.obj
 0001:00162d28       ?state_case_width@?$output_processor@DV?$stream_output_adapter@D@__crt_stdio_output@@V?$positional_parameter_base@DV?$stream_output_adapter@D@__crt_stdio_output@@@2@@__crt_stdio_output@@AEAA_NXZ 0000000180163d28 f i libucrt:output.obj
 0001:00162d78       ?state_case_width@?$output_processor@DV?$stream_output_adapter@D@__crt_stdio_output@@V?$standard_base@DV?$stream_output_adapter@D@__crt_stdio_output@@@2@@__crt_stdio_output@@AEAA_NXZ 0000000180163d78 f i libucrt:output.obj
 0001:00162dac       ?state_case_width@?$output_processor@DV?$string_output_adapter@D@__crt_stdio_output@@V?$format_validation_base@DV?$string_output_adapter@D@__crt_stdio_output@@@2@@__crt_stdio_output@@AEAA_NXZ 0000000180163dac f i libucrt:output.obj
 0001:00162de0       ?state_case_width@?$output_processor@DV?$string_output_adapter@D@__crt_stdio_output@@V?$positional_parameter_base@DV?$string_output_adapter@D@__crt_stdio_output@@@2@@__crt_stdio_output@@AEAA_NXZ 0000000180163de0 f i libucrt:output.obj
 0001:00162e30       ?state_case_width@?$output_processor@DV?$string_output_adapter@D@__crt_stdio_output@@V?$standard_base@DV?$string_output_adapter@D@__crt_stdio_output@@@2@@__crt_stdio_output@@AEAA_NXZ 0000000180163e30 f i libucrt:output.obj
 0001:00162e64       ?state_case_width@?$output_processor@_WV?$stream_output_adapter@_W@__crt_stdio_output@@V?$format_validation_base@_WV?$stream_output_adapter@_W@__crt_stdio_output@@@2@@__crt_stdio_output@@AEAA_NXZ 0000000180163e64 f i libucrt:output.obj
 0001:00162e98       ?state_case_width@?$output_processor@_WV?$stream_output_adapter@_W@__crt_stdio_output@@V?$positional_parameter_base@_WV?$stream_output_adapter@_W@__crt_stdio_output@@@2@@__crt_stdio_output@@AEAA_NXZ 0000000180163e98 f i libucrt:output.obj
 0001:00162eec       ?state_case_width@?$output_processor@_WV?$stream_output_adapter@_W@__crt_stdio_output@@V?$standard_base@_WV?$stream_output_adapter@_W@__crt_stdio_output@@@2@@__crt_stdio_output@@AEAA_NXZ 0000000180163eec f i libucrt:output.obj
 0001:00162f20       ?state_case_width@?$output_processor@_WV?$string_output_adapter@_W@__crt_stdio_output@@V?$format_validation_base@_WV?$string_output_adapter@_W@__crt_stdio_output@@@2@@__crt_stdio_output@@AEAA_NXZ 0000000180163f20 f i libucrt:output.obj
 0001:00162f54       ?state_case_width@?$output_processor@_WV?$string_output_adapter@_W@__crt_stdio_output@@V?$positional_parameter_base@_WV?$string_output_adapter@_W@__crt_stdio_output@@@2@@__crt_stdio_output@@AEAA_NXZ 0000000180163f54 f i libucrt:output.obj
 0001:00162fa8       ?state_case_width@?$output_processor@_WV?$string_output_adapter@_W@__crt_stdio_output@@V?$standard_base@_WV?$string_output_adapter@_W@__crt_stdio_output@@@2@@__crt_stdio_output@@AEAA_NXZ 0000000180163fa8 f i libucrt:output.obj
 0001:00162fdc       ?state_count@?$format_validation_base@DV?$stream_output_adapter@D@__crt_stdio_output@@@__crt_stdio_output@@KAIXZ 0000000180163fdc f i libucrt:output.obj
 0001:00162fe4       ?state_count@?$format_validation_base@DV?$string_output_adapter@D@__crt_stdio_output@@@__crt_stdio_output@@KAIXZ 0000000180163fe4 f i libucrt:output.obj
 0001:00162fec       ?state_count@?$format_validation_base@_WV?$stream_output_adapter@_W@__crt_stdio_output@@@__crt_stdio_output@@KAIXZ 0000000180163fec f i libucrt:output.obj
 0001:00162ff4       ?state_count@?$format_validation_base@_WV?$string_output_adapter@_W@__crt_stdio_output@@@__crt_stdio_output@@KAIXZ 0000000180163ff4 f i libucrt:output.obj
 0001:00162ffc       ?state_count@?$standard_base@DV?$stream_output_adapter@D@__crt_stdio_output@@@__crt_stdio_output@@KAIXZ 0000000180163ffc f i libucrt:output.obj
 0001:00163004       ?state_count@?$standard_base@DV?$string_output_adapter@D@__crt_stdio_output@@@__crt_stdio_output@@KAIXZ 0000000180164004 f i libucrt:output.obj
 0001:0016300c       ?state_count@?$standard_base@_WV?$stream_output_adapter@_W@__crt_stdio_output@@@__crt_stdio_output@@KAIXZ 000000018016400c f i libucrt:output.obj
 0001:00163014       ?state_count@?$standard_base@_WV?$string_output_adapter@_W@__crt_stdio_output@@@__crt_stdio_output@@KAIXZ 0000000180164014 f i libucrt:output.obj
 0001:0016301c       ?state_transition_table@?$format_validation_base@DV?$stream_output_adapter@D@__crt_stdio_output@@@__crt_stdio_output@@KAAEBV?$spectre_mitigated_lookup_table@Ustate_transition_pair@__crt_stdio_output@@$0IA@@2@XZ 000000018016401c f i libucrt:output.obj
 0001:00163024       ?state_transition_table@?$format_validation_base@DV?$string_output_adapter@D@__crt_stdio_output@@@__crt_stdio_output@@KAAEBV?$spectre_mitigated_lookup_table@Ustate_transition_pair@__crt_stdio_output@@$0IA@@2@XZ 0000000180164024 f i libucrt:output.obj
 0001:0016302c       ?state_transition_table@?$format_validation_base@_WV?$stream_output_adapter@_W@__crt_stdio_output@@@__crt_stdio_output@@KAAEBV?$spectre_mitigated_lookup_table@Ustate_transition_pair@__crt_stdio_output@@$0IA@@2@XZ 000000018016402c f i libucrt:output.obj
 0001:00163034       ?state_transition_table@?$format_validation_base@_WV?$string_output_adapter@_W@__crt_stdio_output@@@__crt_stdio_output@@KAAEBV?$spectre_mitigated_lookup_table@Ustate_transition_pair@__crt_stdio_output@@$0IA@@2@XZ 0000000180164034 f i libucrt:output.obj
 0001:0016303c       ?state_transition_table@?$standard_base@DV?$stream_output_adapter@D@__crt_stdio_output@@@__crt_stdio_output@@KAAEBV?$spectre_mitigated_lookup_table@Ustate_transition_pair@__crt_stdio_output@@$0IA@@2@XZ 000000018016403c f i libucrt:output.obj
 0001:00163044       ?state_transition_table@?$standard_base@DV?$string_output_adapter@D@__crt_stdio_output@@@__crt_stdio_output@@KAAEBV?$spectre_mitigated_lookup_table@Ustate_transition_pair@__crt_stdio_output@@$0IA@@2@XZ 0000000180164044 f i libucrt:output.obj
 0001:0016304c       ?state_transition_table@?$standard_base@_WV?$stream_output_adapter@_W@__crt_stdio_output@@@__crt_stdio_output@@KAAEBV?$spectre_mitigated_lookup_table@Ustate_transition_pair@__crt_stdio_output@@$0IA@@2@XZ 000000018016404c f i libucrt:output.obj
 0001:00163054       ?state_transition_table@?$standard_base@_WV?$string_output_adapter@_W@__crt_stdio_output@@@__crt_stdio_output@@KAAEBV?$spectre_mitigated_lookup_table@Ustate_transition_pair@__crt_stdio_output@@$0IA@@2@XZ 0000000180164054 f i libucrt:output.obj
 0001:0016305c       ?tchar_string@?$common_data@D@__crt_stdio_output@@IEAAAEAPEADD@Z 000000018016405c f i libucrt:output.obj
 0001:00163064       ?tchar_string@?$common_data@D@__crt_stdio_output@@IEAAAEAPEADXZ 0000000180164064 f i libucrt:output.obj
 0001:0016306c       ?tchar_string@?$common_data@_W@__crt_stdio_output@@IEAAAEAPEA_WXZ 000000018016406c f i libucrt:output.obj
 0001:00163074       ?tchar_string@?$common_data@_W@__crt_stdio_output@@IEAAAEAPEA_W_W@Z 0000000180164074 f i libucrt:output.obj
 0001:00163080       ?to_integer_size@__crt_stdio_output@@YA_KW4length_modifier@1@@Z 0000000180164080 f i libucrt:output.obj
 0001:001630e8       ?type_case_X@?$output_processor@DV?$stream_output_adapter@D@__crt_stdio_output@@V?$format_validation_base@DV?$stream_output_adapter@D@__crt_stdio_output@@@2@@__crt_stdio_output@@AEAA_NXZ 00000001801640e8 f i libucrt:output.obj
 0001:001630f8       ?type_case_X@?$output_processor@DV?$stream_output_adapter@D@__crt_stdio_output@@V?$positional_parameter_base@DV?$stream_output_adapter@D@__crt_stdio_output@@@2@@__crt_stdio_output@@AEAA_NXZ 00000001801640f8 f i libucrt:output.obj
 0001:00163108       ?type_case_X@?$output_processor@DV?$stream_output_adapter@D@__crt_stdio_output@@V?$standard_base@DV?$stream_output_adapter@D@__crt_stdio_output@@@2@@__crt_stdio_output@@AEAA_NXZ 0000000180164108 f i libucrt:output.obj
 0001:00163118       ?type_case_X@?$output_processor@DV?$string_output_adapter@D@__crt_stdio_output@@V?$format_validation_base@DV?$string_output_adapter@D@__crt_stdio_output@@@2@@__crt_stdio_output@@AEAA_NXZ 0000000180164118 f i libucrt:output.obj
 0001:00163128       ?type_case_X@?$output_processor@DV?$string_output_adapter@D@__crt_stdio_output@@V?$positional_parameter_base@DV?$string_output_adapter@D@__crt_stdio_output@@@2@@__crt_stdio_output@@AEAA_NXZ 0000000180164128 f i libucrt:output.obj
 0001:00163138       ?type_case_X@?$output_processor@DV?$string_output_adapter@D@__crt_stdio_output@@V?$standard_base@DV?$string_output_adapter@D@__crt_stdio_output@@@2@@__crt_stdio_output@@AEAA_NXZ 0000000180164138 f i libucrt:output.obj
 0001:00163148       ?type_case_X@?$output_processor@_WV?$stream_output_adapter@_W@__crt_stdio_output@@V?$format_validation_base@_WV?$stream_output_adapter@_W@__crt_stdio_output@@@2@@__crt_stdio_output@@AEAA_NXZ 0000000180164148 f i libucrt:output.obj
 0001:00163158       ?type_case_X@?$output_processor@_WV?$stream_output_adapter@_W@__crt_stdio_output@@V?$positional_parameter_base@_WV?$stream_output_adapter@_W@__crt_stdio_output@@@2@@__crt_stdio_output@@AEAA_NXZ 0000000180164158 f i libucrt:output.obj
 0001:00163168       ?type_case_X@?$output_processor@_WV?$stream_output_adapter@_W@__crt_stdio_output@@V?$standard_base@_WV?$stream_output_adapter@_W@__crt_stdio_output@@@2@@__crt_stdio_output@@AEAA_NXZ 0000000180164168 f i libucrt:output.obj
 0001:00163178       ?type_case_X@?$output_processor@_WV?$string_output_adapter@_W@__crt_stdio_output@@V?$format_validation_base@_WV?$string_output_adapter@_W@__crt_stdio_output@@@2@@__crt_stdio_output@@AEAA_NXZ 0000000180164178 f i libucrt:output.obj
 0001:00163188       ?type_case_X@?$output_processor@_WV?$string_output_adapter@_W@__crt_stdio_output@@V?$positional_parameter_base@_WV?$string_output_adapter@_W@__crt_stdio_output@@@2@@__crt_stdio_output@@AEAA_NXZ 0000000180164188 f i libucrt:output.obj
 0001:00163198       ?type_case_X@?$output_processor@_WV?$string_output_adapter@_W@__crt_stdio_output@@V?$standard_base@_WV?$string_output_adapter@_W@__crt_stdio_output@@@2@@__crt_stdio_output@@AEAA_NXZ 0000000180164198 f i libucrt:output.obj
 0001:001631a8       ?type_case_Z@?$output_processor@DV?$stream_output_adapter@D@__crt_stdio_output@@V?$format_validation_base@DV?$stream_output_adapter@D@__crt_stdio_output@@@2@@__crt_stdio_output@@AEAA_NXZ 00000001801641a8 f i libucrt:output.obj
 0001:0016321c       ?type_case_Z@?$output_processor@DV?$stream_output_adapter@D@__crt_stdio_output@@V?$positional_parameter_base@DV?$stream_output_adapter@D@__crt_stdio_output@@@2@@__crt_stdio_output@@AEAA_NXZ 000000018016421c f i libucrt:output.obj
 0001:001632bc       ?type_case_Z@?$output_processor@DV?$stream_output_adapter@D@__crt_stdio_output@@V?$standard_base@DV?$stream_output_adapter@D@__crt_stdio_output@@@2@@__crt_stdio_output@@AEAA_NXZ 00000001801642bc f i libucrt:output.obj
 0001:00163330       ?type_case_Z@?$output_processor@DV?$string_output_adapter@D@__crt_stdio_output@@V?$format_validation_base@DV?$string_output_adapter@D@__crt_stdio_output@@@2@@__crt_stdio_output@@AEAA_NXZ 0000000180164330 f i libucrt:output.obj
 0001:001633a4       ?type_case_Z@?$output_processor@DV?$string_output_adapter@D@__crt_stdio_output@@V?$positional_parameter_base@DV?$string_output_adapter@D@__crt_stdio_output@@@2@@__crt_stdio_output@@AEAA_NXZ 00000001801643a4 f i libucrt:output.obj
 0001:00163444       ?type_case_Z@?$output_processor@DV?$string_output_adapter@D@__crt_stdio_output@@V?$standard_base@DV?$string_output_adapter@D@__crt_stdio_output@@@2@@__crt_stdio_output@@AEAA_NXZ 0000000180164444 f i libucrt:output.obj
 0001:001634b8       ?type_case_Z@?$output_processor@_WV?$stream_output_adapter@_W@__crt_stdio_output@@V?$format_validation_base@_WV?$stream_output_adapter@_W@__crt_stdio_output@@@2@@__crt_stdio_output@@AEAA_NXZ 00000001801644b8 f i libucrt:output.obj
 0001:00163534       ?type_case_Z@?$output_processor@_WV?$stream_output_adapter@_W@__crt_stdio_output@@V?$positional_parameter_base@_WV?$stream_output_adapter@_W@__crt_stdio_output@@@2@@__crt_stdio_output@@AEAA_NXZ 0000000180164534 f i libucrt:output.obj
 0001:001635cc       ?type_case_Z@?$output_processor@_WV?$stream_output_adapter@_W@__crt_stdio_output@@V?$standard_base@_WV?$stream_output_adapter@_W@__crt_stdio_output@@@2@@__crt_stdio_output@@AEAA_NXZ 00000001801645cc f i libucrt:output.obj
 0001:00163648       ?type_case_Z@?$output_processor@_WV?$string_output_adapter@_W@__crt_stdio_output@@V?$format_validation_base@_WV?$string_output_adapter@_W@__crt_stdio_output@@@2@@__crt_stdio_output@@AEAA_NXZ 0000000180164648 f i libucrt:output.obj
 0001:001636c4       ?type_case_Z@?$output_processor@_WV?$string_output_adapter@_W@__crt_stdio_output@@V?$positional_parameter_base@_WV?$string_output_adapter@_W@__crt_stdio_output@@@2@@__crt_stdio_output@@AEAA_NXZ 00000001801646c4 f i libucrt:output.obj
 0001:0016375c       ?type_case_Z@?$output_processor@_WV?$string_output_adapter@_W@__crt_stdio_output@@V?$standard_base@_WV?$string_output_adapter@_W@__crt_stdio_output@@@2@@__crt_stdio_output@@AEAA_NXZ 000000018016475c f i libucrt:output.obj
 0001:001637d8       ?type_case_a@?$output_processor@DV?$stream_output_adapter@D@__crt_stdio_output@@V?$format_validation_base@DV?$stream_output_adapter@D@__crt_stdio_output@@@2@@__crt_stdio_output@@AEAA_NXZ 00000001801647d8 f i libucrt:output.obj
 0001:00163994       ?type_case_a@?$output_processor@DV?$stream_output_adapter@D@__crt_stdio_output@@V?$positional_parameter_base@DV?$stream_output_adapter@D@__crt_stdio_output@@@2@@__crt_stdio_output@@AEAA_NXZ 0000000180164994 f i libucrt:output.obj
 0001:00163b8c       ?type_case_a@?$output_processor@DV?$stream_output_adapter@D@__crt_stdio_output@@V?$standard_base@DV?$stream_output_adapter@D@__crt_stdio_output@@@2@@__crt_stdio_output@@AEAA_NXZ 0000000180164b8c f i libucrt:output.obj
 0001:00163d48       ?type_case_a@?$output_processor@DV?$string_output_adapter@D@__crt_stdio_output@@V?$format_validation_base@DV?$string_output_adapter@D@__crt_stdio_output@@@2@@__crt_stdio_output@@AEAA_NXZ 0000000180164d48 f i libucrt:output.obj
 0001:00163f04       ?type_case_a@?$output_processor@DV?$string_output_adapter@D@__crt_stdio_output@@V?$positional_parameter_base@DV?$string_output_adapter@D@__crt_stdio_output@@@2@@__crt_stdio_output@@AEAA_NXZ 0000000180164f04 f i libucrt:output.obj
 0001:001640fc       ?type_case_a@?$output_processor@DV?$string_output_adapter@D@__crt_stdio_output@@V?$standard_base@DV?$string_output_adapter@D@__crt_stdio_output@@@2@@__crt_stdio_output@@AEAA_NXZ 00000001801650fc f i libucrt:output.obj
 0001:001642b8       ?type_case_a@?$output_processor@_WV?$stream_output_adapter@_W@__crt_stdio_output@@V?$format_validation_base@_WV?$stream_output_adapter@_W@__crt_stdio_output@@@2@@__crt_stdio_output@@AEAA_NXZ 00000001801652b8 f i libucrt:output.obj
 0001:00164498       ?type_case_a@?$output_processor@_WV?$stream_output_adapter@_W@__crt_stdio_output@@V?$positional_parameter_base@_WV?$stream_output_adapter@_W@__crt_stdio_output@@@2@@__crt_stdio_output@@AEAA_NXZ 0000000180165498 f i libucrt:output.obj
 0001:001646b4       ?type_case_a@?$output_processor@_WV?$stream_output_adapter@_W@__crt_stdio_output@@V?$standard_base@_WV?$stream_output_adapter@_W@__crt_stdio_output@@@2@@__crt_stdio_output@@AEAA_NXZ 00000001801656b4 f i libucrt:output.obj
 0001:00164894       ?type_case_a@?$output_processor@_WV?$string_output_adapter@_W@__crt_stdio_output@@V?$format_validation_base@_WV?$string_output_adapter@_W@__crt_stdio_output@@@2@@__crt_stdio_output@@AEAA_NXZ 0000000180165894 f i libucrt:output.obj
 0001:00164a74       ?type_case_a@?$output_processor@_WV?$string_output_adapter@_W@__crt_stdio_output@@V?$positional_parameter_base@_WV?$string_output_adapter@_W@__crt_stdio_output@@@2@@__crt_stdio_output@@AEAA_NXZ 0000000180165a74 f i libucrt:output.obj
 0001:00164c90       ?type_case_a@?$output_processor@_WV?$string_output_adapter@_W@__crt_stdio_output@@V?$standard_base@_WV?$string_output_adapter@_W@__crt_stdio_output@@@2@@__crt_stdio_output@@AEAA_NXZ 0000000180165c90 f i libucrt:output.obj
 0001:00164e70       ?type_case_c@?$output_processor@DV?$stream_output_adapter@D@__crt_stdio_output@@V?$format_validation_base@DV?$stream_output_adapter@D@__crt_stdio_output@@@2@@__crt_stdio_output@@AEAA_NXZ 0000000180165e70 f i libucrt:output.obj
 0001:00164e78       ?type_case_c@?$output_processor@DV?$stream_output_adapter@D@__crt_stdio_output@@V?$positional_parameter_base@DV?$stream_output_adapter@D@__crt_stdio_output@@@2@@__crt_stdio_output@@AEAA_NXZ 0000000180165e78 f i libucrt:output.obj
 0001:00164e80       ?type_case_c@?$output_processor@DV?$stream_output_adapter@D@__crt_stdio_output@@V?$standard_base@DV?$stream_output_adapter@D@__crt_stdio_output@@@2@@__crt_stdio_output@@AEAA_NXZ 0000000180165e80 f i libucrt:output.obj
 0001:00164e88       ?type_case_c@?$output_processor@DV?$string_output_adapter@D@__crt_stdio_output@@V?$format_validation_base@DV?$string_output_adapter@D@__crt_stdio_output@@@2@@__crt_stdio_output@@AEAA_NXZ 0000000180165e88 f i libucrt:output.obj
 0001:00164e90       ?type_case_c@?$output_processor@DV?$string_output_adapter@D@__crt_stdio_output@@V?$positional_parameter_base@DV?$string_output_adapter@D@__crt_stdio_output@@@2@@__crt_stdio_output@@AEAA_NXZ 0000000180165e90 f i libucrt:output.obj
 0001:00164e98       ?type_case_c@?$output_processor@DV?$string_output_adapter@D@__crt_stdio_output@@V?$standard_base@DV?$string_output_adapter@D@__crt_stdio_output@@@2@@__crt_stdio_output@@AEAA_NXZ 0000000180165e98 f i libucrt:output.obj
 0001:00164ea0       ?type_case_c@?$output_processor@_WV?$stream_output_adapter@_W@__crt_stdio_output@@V?$format_validation_base@_WV?$stream_output_adapter@_W@__crt_stdio_output@@@2@@__crt_stdio_output@@AEAA_NXZ 0000000180165ea0 f i libucrt:output.obj
 0001:00164ea8       ?type_case_c@?$output_processor@_WV?$stream_output_adapter@_W@__crt_stdio_output@@V?$positional_parameter_base@_WV?$stream_output_adapter@_W@__crt_stdio_output@@@2@@__crt_stdio_output@@AEAA_NXZ 0000000180165ea8 f i libucrt:output.obj
 0001:00164eb0       ?type_case_c@?$output_processor@_WV?$stream_output_adapter@_W@__crt_stdio_output@@V?$standard_base@_WV?$stream_output_adapter@_W@__crt_stdio_output@@@2@@__crt_stdio_output@@AEAA_NXZ 0000000180165eb0 f i libucrt:output.obj
 0001:00164eb8       ?type_case_c@?$output_processor@_WV?$string_output_adapter@_W@__crt_stdio_output@@V?$format_validation_base@_WV?$string_output_adapter@_W@__crt_stdio_output@@@2@@__crt_stdio_output@@AEAA_NXZ 0000000180165eb8 f i libucrt:output.obj
 0001:00164ec0       ?type_case_c@?$output_processor@_WV?$string_output_adapter@_W@__crt_stdio_output@@V?$positional_parameter_base@_WV?$string_output_adapter@_W@__crt_stdio_output@@@2@@__crt_stdio_output@@AEAA_NXZ 0000000180165ec0 f i libucrt:output.obj
 0001:00164ec8       ?type_case_c@?$output_processor@_WV?$string_output_adapter@_W@__crt_stdio_output@@V?$standard_base@_WV?$string_output_adapter@_W@__crt_stdio_output@@@2@@__crt_stdio_output@@AEAA_NXZ 0000000180165ec8 f i libucrt:output.obj
 0001:00164ed0       ?type_case_c_tchar@?$output_processor@DV?$stream_output_adapter@D@__crt_stdio_output@@V?$format_validation_base@DV?$stream_output_adapter@D@__crt_stdio_output@@@2@@__crt_stdio_output@@AEAA_ND@Z 0000000180165ed0 f i libucrt:output.obj
 0001:00164f98       ?type_case_c_tchar@?$output_processor@DV?$stream_output_adapter@D@__crt_stdio_output@@V?$positional_parameter_base@DV?$stream_output_adapter@D@__crt_stdio_output@@@2@@__crt_stdio_output@@AEAA_ND@Z 0000000180165f98 f i libucrt:output.obj
 0001:001650a4       ?type_case_c_tchar@?$output_processor@DV?$stream_output_adapter@D@__crt_stdio_output@@V?$standard_base@DV?$stream_output_adapter@D@__crt_stdio_output@@@2@@__crt_stdio_output@@AEAA_ND@Z 00000001801660a4 f i libucrt:output.obj
 0001:0016516c       ?type_case_c_tchar@?$output_processor@DV?$string_output_adapter@D@__crt_stdio_output@@V?$format_validation_base@DV?$string_output_adapter@D@__crt_stdio_output@@@2@@__crt_stdio_output@@AEAA_ND@Z 000000018016616c f i libucrt:output.obj
 0001:00165234       ?type_case_c_tchar@?$output_processor@DV?$string_output_adapter@D@__crt_stdio_output@@V?$positional_parameter_base@DV?$string_output_adapter@D@__crt_stdio_output@@@2@@__crt_stdio_output@@AEAA_ND@Z 0000000180166234 f i libucrt:output.obj
 0001:00165340       ?type_case_c_tchar@?$output_processor@DV?$string_output_adapter@D@__crt_stdio_output@@V?$standard_base@DV?$string_output_adapter@D@__crt_stdio_output@@@2@@__crt_stdio_output@@AEAA_ND@Z 0000000180166340 f i libucrt:output.obj
 0001:00165408       ?type_case_c_tchar@?$output_processor@_WV?$stream_output_adapter@_W@__crt_stdio_output@@V?$format_validation_base@_WV?$stream_output_adapter@_W@__crt_stdio_output@@@2@@__crt_stdio_output@@AEAA_N_W@Z 0000000180166408 f i libucrt:output.obj
 0001:001654b0       ?type_case_c_tchar@?$output_processor@_WV?$stream_output_adapter@_W@__crt_stdio_output@@V?$positional_parameter_base@_WV?$stream_output_adapter@_W@__crt_stdio_output@@@2@@__crt_stdio_output@@AEAA_N_W@Z 00000001801664b0 f i libucrt:output.obj
 0001:0016557c       ?type_case_c_tchar@?$output_processor@_WV?$stream_output_adapter@_W@__crt_stdio_output@@V?$standard_base@_WV?$stream_output_adapter@_W@__crt_stdio_output@@@2@@__crt_stdio_output@@AEAA_N_W@Z 000000018016657c f i libucrt:output.obj
 0001:00165624       ?type_case_c_tchar@?$output_processor@_WV?$string_output_adapter@_W@__crt_stdio_output@@V?$format_validation_base@_WV?$string_output_adapter@_W@__crt_stdio_output@@@2@@__crt_stdio_output@@AEAA_N_W@Z 0000000180166624 f i libucrt:output.obj
 0001:001656cc       ?type_case_c_tchar@?$output_processor@_WV?$string_output_adapter@_W@__crt_stdio_output@@V?$positional_parameter_base@_WV?$string_output_adapter@_W@__crt_stdio_output@@@2@@__crt_stdio_output@@AEAA_N_W@Z 00000001801666cc f i libucrt:output.obj
 0001:00165798       ?type_case_c_tchar@?$output_processor@_WV?$string_output_adapter@_W@__crt_stdio_output@@V?$standard_base@_WV?$string_output_adapter@_W@__crt_stdio_output@@@2@@__crt_stdio_output@@AEAA_N_W@Z 0000000180166798 f i libucrt:output.obj
 0001:00165840       ?type_case_d@?$output_processor@DV?$stream_output_adapter@D@__crt_stdio_output@@V?$format_validation_base@DV?$stream_output_adapter@D@__crt_stdio_output@@@2@@__crt_stdio_output@@AEAA_NXZ 0000000180166840 f i libucrt:output.obj
 0001:00165850       ?type_case_d@?$output_processor@DV?$stream_output_adapter@D@__crt_stdio_output@@V?$positional_parameter_base@DV?$stream_output_adapter@D@__crt_stdio_output@@@2@@__crt_stdio_output@@AEAA_NXZ 0000000180166850 f i libucrt:output.obj
 0001:00165860       ?type_case_d@?$output_processor@DV?$stream_output_adapter@D@__crt_stdio_output@@V?$standard_base@DV?$stream_output_adapter@D@__crt_stdio_output@@@2@@__crt_stdio_output@@AEAA_NXZ 0000000180166860 f i libucrt:output.obj
 0001:00165870       ?type_case_d@?$output_processor@DV?$string_output_adapter@D@__crt_stdio_output@@V?$format_validation_base@DV?$string_output_adapter@D@__crt_stdio_output@@@2@@__crt_stdio_output@@AEAA_NXZ 0000000180166870 f i libucrt:output.obj
 0001:00165880       ?type_case_d@?$output_processor@DV?$string_output_adapter@D@__crt_stdio_output@@V?$positional_parameter_base@DV?$string_output_adapter@D@__crt_stdio_output@@@2@@__crt_stdio_output@@AEAA_NXZ 0000000180166880 f i libucrt:output.obj
 0001:00165890       ?type_case_d@?$output_processor@DV?$string_output_adapter@D@__crt_stdio_output@@V?$standard_base@DV?$string_output_adapter@D@__crt_stdio_output@@@2@@__crt_stdio_output@@AEAA_NXZ 0000000180166890 f i libucrt:output.obj
 0001:001658a0       ?type_case_d@?$output_processor@_WV?$stream_output_adapter@_W@__crt_stdio_output@@V?$format_validation_base@_WV?$stream_output_adapter@_W@__crt_stdio_output@@@2@@__crt_stdio_output@@AEAA_NXZ 00000001801668a0 f i libucrt:output.obj
 0001:001658b0       ?type_case_d@?$output_processor@_WV?$stream_output_adapter@_W@__crt_stdio_output@@V?$positional_parameter_base@_WV?$stream_output_adapter@_W@__crt_stdio_output@@@2@@__crt_stdio_output@@AEAA_NXZ 00000001801668b0 f i libucrt:output.obj
 0001:001658c0       ?type_case_d@?$output_processor@_WV?$stream_output_adapter@_W@__crt_stdio_output@@V?$standard_base@_WV?$stream_output_adapter@_W@__crt_stdio_output@@@2@@__crt_stdio_output@@AEAA_NXZ 00000001801668c0 f i libucrt:output.obj
 0001:001658d0       ?type_case_d@?$output_processor@_WV?$string_output_adapter@_W@__crt_stdio_output@@V?$format_validation_base@_WV?$string_output_adapter@_W@__crt_stdio_output@@@2@@__crt_stdio_output@@AEAA_NXZ 00000001801668d0 f i libucrt:output.obj
 0001:001658e0       ?type_case_d@?$output_processor@_WV?$string_output_adapter@_W@__crt_stdio_output@@V?$positional_parameter_base@_WV?$string_output_adapter@_W@__crt_stdio_output@@@2@@__crt_stdio_output@@AEAA_NXZ 00000001801668e0 f i libucrt:output.obj
 0001:001658f0       ?type_case_d@?$output_processor@_WV?$string_output_adapter@_W@__crt_stdio_output@@V?$standard_base@_WV?$string_output_adapter@_W@__crt_stdio_output@@@2@@__crt_stdio_output@@AEAA_NXZ 00000001801668f0 f i libucrt:output.obj
 0001:00165900       ?type_case_integer@?$output_processor@DV?$stream_output_adapter@D@__crt_stdio_output@@V?$format_validation_base@DV?$stream_output_adapter@D@__crt_stdio_output@@@2@@__crt_stdio_output@@AEAA_NI_N@Z 0000000180166900 f i libucrt:output.obj
 0001:00165a80       ?type_case_integer@?$output_processor@DV?$stream_output_adapter@D@__crt_stdio_output@@V?$positional_parameter_base@DV?$stream_output_adapter@D@__crt_stdio_output@@@2@@__crt_stdio_output@@AEAA_NI_N@Z 0000000180166a80 f i libucrt:output.obj
 0001:00165c28       ?type_case_integer@?$output_processor@DV?$stream_output_adapter@D@__crt_stdio_output@@V?$standard_base@DV?$stream_output_adapter@D@__crt_stdio_output@@@2@@__crt_stdio_output@@AEAA_NI_N@Z 0000000180166c28 f i libucrt:output.obj
 0001:00165da8       ?type_case_integer@?$output_processor@DV?$string_output_adapter@D@__crt_stdio_output@@V?$format_validation_base@DV?$string_output_adapter@D@__crt_stdio_output@@@2@@__crt_stdio_output@@AEAA_NI_N@Z 0000000180166da8 f i libucrt:output.obj
 0001:00165f28       ?type_case_integer@?$output_processor@DV?$string_output_adapter@D@__crt_stdio_output@@V?$positional_parameter_base@DV?$string_output_adapter@D@__crt_stdio_output@@@2@@__crt_stdio_output@@AEAA_NI_N@Z 0000000180166f28 f i libucrt:output.obj
 0001:001660d0       ?type_case_integer@?$output_processor@DV?$string_output_adapter@D@__crt_stdio_output@@V?$standard_base@DV?$string_output_adapter@D@__crt_stdio_output@@@2@@__crt_stdio_output@@AEAA_NI_N@Z 00000001801670d0 f i libucrt:output.obj
 0001:00166250       ?type_case_integer@?$output_processor@_WV?$stream_output_adapter@_W@__crt_stdio_output@@V?$format_validation_base@_WV?$stream_output_adapter@_W@__crt_stdio_output@@@2@@__crt_stdio_output@@AEAA_NI_N@Z 0000000180167250 f i libucrt:output.obj
 0001:001663d8       ?type_case_integer@?$output_processor@_WV?$stream_output_adapter@_W@__crt_stdio_output@@V?$positional_parameter_base@_WV?$stream_output_adapter@_W@__crt_stdio_output@@@2@@__crt_stdio_output@@AEAA_NI_N@Z 00000001801673d8 f i libucrt:output.obj
 0001:00166588       ?type_case_integer@?$output_processor@_WV?$stream_output_adapter@_W@__crt_stdio_output@@V?$standard_base@_WV?$stream_output_adapter@_W@__crt_stdio_output@@@2@@__crt_stdio_output@@AEAA_NI_N@Z 0000000180167588 f i libucrt:output.obj
 0001:00166710       ?type_case_integer@?$output_processor@_WV?$string_output_adapter@_W@__crt_stdio_output@@V?$format_validation_base@_WV?$string_output_adapter@_W@__crt_stdio_output@@@2@@__crt_stdio_output@@AEAA_NI_N@Z 0000000180167710 f i libucrt:output.obj
 0001:00166898       ?type_case_integer@?$output_processor@_WV?$string_output_adapter@_W@__crt_stdio_output@@V?$positional_parameter_base@_WV?$string_output_adapter@_W@__crt_stdio_output@@@2@@__crt_stdio_output@@AEAA_NI_N@Z 0000000180167898 f i libucrt:output.obj
 0001:00166a48       ?type_case_integer@?$output_processor@_WV?$string_output_adapter@_W@__crt_stdio_output@@V?$standard_base@_WV?$string_output_adapter@_W@__crt_stdio_output@@@2@@__crt_stdio_output@@AEAA_NI_N@Z 0000000180167a48 f i libucrt:output.obj
 0001:00166bd0       ?type_case_n@?$output_processor@DV?$stream_output_adapter@D@__crt_stdio_output@@V?$format_validation_base@DV?$stream_output_adapter@D@__crt_stdio_output@@@2@@__crt_stdio_output@@AEAA_NXZ 0000000180167bd0 f i libucrt:output.obj
 0001:00166c58       ?type_case_n@?$output_processor@DV?$stream_output_adapter@D@__crt_stdio_output@@V?$positional_parameter_base@DV?$stream_output_adapter@D@__crt_stdio_output@@@2@@__crt_stdio_output@@AEAA_NXZ 0000000180167c58 f i libucrt:output.obj
 0001:00166d08       ?type_case_n@?$output_processor@DV?$stream_output_adapter@D@__crt_stdio_output@@V?$standard_base@DV?$stream_output_adapter@D@__crt_stdio_output@@@2@@__crt_stdio_output@@AEAA_NXZ 0000000180167d08 f i libucrt:output.obj
 0001:00166d90       ?type_case_n@?$output_processor@DV?$string_output_adapter@D@__crt_stdio_output@@V?$format_validation_base@DV?$string_output_adapter@D@__crt_stdio_output@@@2@@__crt_stdio_output@@AEAA_NXZ 0000000180167d90 f i libucrt:output.obj
 0001:00166e18       ?type_case_n@?$output_processor@DV?$string_output_adapter@D@__crt_stdio_output@@V?$positional_parameter_base@DV?$string_output_adapter@D@__crt_stdio_output@@@2@@__crt_stdio_output@@AEAA_NXZ 0000000180167e18 f i libucrt:output.obj
 0001:00166ec8       ?type_case_n@?$output_processor@DV?$string_output_adapter@D@__crt_stdio_output@@V?$standard_base@DV?$string_output_adapter@D@__crt_stdio_output@@@2@@__crt_stdio_output@@AEAA_NXZ 0000000180167ec8 f i libucrt:output.obj
 0001:00166f50       ?type_case_n@?$output_processor@_WV?$stream_output_adapter@_W@__crt_stdio_output@@V?$format_validation_base@_WV?$stream_output_adapter@_W@__crt_stdio_output@@@2@@__crt_stdio_output@@AEAA_NXZ 0000000180167f50 f i libucrt:output.obj
 0001:00166fd8       ?type_case_n@?$output_processor@_WV?$stream_output_adapter@_W@__crt_stdio_output@@V?$positional_parameter_base@_WV?$stream_output_adapter@_W@__crt_stdio_output@@@2@@__crt_stdio_output@@AEAA_NXZ 0000000180167fd8 f i libucrt:output.obj
 0001:00167088       ?type_case_n@?$output_processor@_WV?$stream_output_adapter@_W@__crt_stdio_output@@V?$standard_base@_WV?$stream_output_adapter@_W@__crt_stdio_output@@@2@@__crt_stdio_output@@AEAA_NXZ 0000000180168088 f i libucrt:output.obj
 0001:00167110       ?type_case_n@?$output_processor@_WV?$string_output_adapter@_W@__crt_stdio_output@@V?$format_validation_base@_WV?$string_output_adapter@_W@__crt_stdio_output@@@2@@__crt_stdio_output@@AEAA_NXZ 0000000180168110 f i libucrt:output.obj
 0001:00167198       ?type_case_n@?$output_processor@_WV?$string_output_adapter@_W@__crt_stdio_output@@V?$positional_parameter_base@_WV?$string_output_adapter@_W@__crt_stdio_output@@@2@@__crt_stdio_output@@AEAA_NXZ 0000000180168198 f i libucrt:output.obj
 0001:00167248       ?type_case_n@?$output_processor@_WV?$string_output_adapter@_W@__crt_stdio_output@@V?$standard_base@_WV?$string_output_adapter@_W@__crt_stdio_output@@@2@@__crt_stdio_output@@AEAA_NXZ 0000000180168248 f i libucrt:output.obj
 0001:001672d0       ?type_case_o@?$output_processor@DV?$stream_output_adapter@D@__crt_stdio_output@@V?$format_validation_base@DV?$stream_output_adapter@D@__crt_stdio_output@@@2@@__crt_stdio_output@@AEAA_NXZ 00000001801682d0 f i libucrt:output.obj
 0001:001672f0       ?type_case_o@?$output_processor@DV?$stream_output_adapter@D@__crt_stdio_output@@V?$positional_parameter_base@DV?$stream_output_adapter@D@__crt_stdio_output@@@2@@__crt_stdio_output@@AEAA_NXZ 00000001801682f0 f i libucrt:output.obj
 0001:00167310       ?type_case_o@?$output_processor@DV?$stream_output_adapter@D@__crt_stdio_output@@V?$standard_base@DV?$stream_output_adapter@D@__crt_stdio_output@@@2@@__crt_stdio_output@@AEAA_NXZ 0000000180168310 f i libucrt:output.obj
 0001:00167330       ?type_case_o@?$output_processor@DV?$string_output_adapter@D@__crt_stdio_output@@V?$format_validation_base@DV?$string_output_adapter@D@__crt_stdio_output@@@2@@__crt_stdio_output@@AEAA_NXZ 0000000180168330 f i libucrt:output.obj
 0001:00167350       ?type_case_o@?$output_processor@DV?$string_output_adapter@D@__crt_stdio_output@@V?$positional_parameter_base@DV?$string_output_adapter@D@__crt_stdio_output@@@2@@__crt_stdio_output@@AEAA_NXZ 0000000180168350 f i libucrt:output.obj
 0001:00167370       ?type_case_o@?$output_processor@DV?$string_output_adapter@D@__crt_stdio_output@@V?$standard_base@DV?$string_output_adapter@D@__crt_stdio_output@@@2@@__crt_stdio_output@@AEAA_NXZ 0000000180168370 f i libucrt:output.obj
 0001:00167390       ?type_case_o@?$output_processor@_WV?$stream_output_adapter@_W@__crt_stdio_output@@V?$format_validation_base@_WV?$stream_output_adapter@_W@__crt_stdio_output@@@2@@__crt_stdio_output@@AEAA_NXZ 0000000180168390 f i libucrt:output.obj
 0001:001673b0       ?type_case_o@?$output_processor@_WV?$stream_output_adapter@_W@__crt_stdio_output@@V?$positional_parameter_base@_WV?$stream_output_adapter@_W@__crt_stdio_output@@@2@@__crt_stdio_output@@AEAA_NXZ 00000001801683b0 f i libucrt:output.obj
 0001:001673d0       ?type_case_o@?$output_processor@_WV?$stream_output_adapter@_W@__crt_stdio_output@@V?$standard_base@_WV?$stream_output_adapter@_W@__crt_stdio_output@@@2@@__crt_stdio_output@@AEAA_NXZ 00000001801683d0 f i libucrt:output.obj
 0001:001673f0       ?type_case_o@?$output_processor@_WV?$string_output_adapter@_W@__crt_stdio_output@@V?$format_validation_base@_WV?$string_output_adapter@_W@__crt_stdio_output@@@2@@__crt_stdio_output@@AEAA_NXZ 00000001801683f0 f i libucrt:output.obj
 0001:00167410       ?type_case_o@?$output_processor@_WV?$string_output_adapter@_W@__crt_stdio_output@@V?$positional_parameter_base@_WV?$string_output_adapter@_W@__crt_stdio_output@@@2@@__crt_stdio_output@@AEAA_NXZ 0000000180168410 f i libucrt:output.obj
 0001:00167430       ?type_case_o@?$output_processor@_WV?$string_output_adapter@_W@__crt_stdio_output@@V?$standard_base@_WV?$string_output_adapter@_W@__crt_stdio_output@@@2@@__crt_stdio_output@@AEAA_NXZ 0000000180168430 f i libucrt:output.obj
 0001:00167450       ?type_case_p@?$output_processor@DV?$stream_output_adapter@D@__crt_stdio_output@@V?$format_validation_base@DV?$stream_output_adapter@D@__crt_stdio_output@@@2@@__crt_stdio_output@@AEAA_NXZ 0000000180168450 f i libucrt:output.obj
 0001:00167468       ?type_case_p@?$output_processor@DV?$stream_output_adapter@D@__crt_stdio_output@@V?$positional_parameter_base@DV?$stream_output_adapter@D@__crt_stdio_output@@@2@@__crt_stdio_output@@AEAA_NXZ 0000000180168468 f i libucrt:output.obj
 0001:00167480       ?type_case_p@?$output_processor@DV?$stream_output_adapter@D@__crt_stdio_output@@V?$standard_base@DV?$stream_output_adapter@D@__crt_stdio_output@@@2@@__crt_stdio_output@@AEAA_NXZ 0000000180168480 f i libucrt:output.obj
 0001:00167498       ?type_case_p@?$output_processor@DV?$string_output_adapter@D@__crt_stdio_output@@V?$format_validation_base@DV?$string_output_adapter@D@__crt_stdio_output@@@2@@__crt_stdio_output@@AEAA_NXZ 0000000180168498 f i libucrt:output.obj
 0001:001674b0       ?type_case_p@?$output_processor@DV?$string_output_adapter@D@__crt_stdio_output@@V?$positional_parameter_base@DV?$string_output_adapter@D@__crt_stdio_output@@@2@@__crt_stdio_output@@AEAA_NXZ 00000001801684b0 f i libucrt:output.obj
 0001:001674c8       ?type_case_p@?$output_processor@DV?$string_output_adapter@D@__crt_stdio_output@@V?$standard_base@DV?$string_output_adapter@D@__crt_stdio_output@@@2@@__crt_stdio_output@@AEAA_NXZ 00000001801684c8 f i libucrt:output.obj
 0001:001674e0       ?type_case_p@?$output_processor@_WV?$stream_output_adapter@_W@__crt_stdio_output@@V?$format_validation_base@_WV?$stream_output_adapter@_W@__crt_stdio_output@@@2@@__crt_stdio_output@@AEAA_NXZ 00000001801684e0 f i libucrt:output.obj
 0001:001674f8       ?type_case_p@?$output_processor@_WV?$stream_output_adapter@_W@__crt_stdio_output@@V?$positional_parameter_base@_WV?$stream_output_adapter@_W@__crt_stdio_output@@@2@@__crt_stdio_output@@AEAA_NXZ 00000001801684f8 f i libucrt:output.obj
 0001:00167510       ?type_case_p@?$output_processor@_WV?$stream_output_adapter@_W@__crt_stdio_output@@V?$standard_base@_WV?$stream_output_adapter@_W@__crt_stdio_output@@@2@@__crt_stdio_output@@AEAA_NXZ 0000000180168510 f i libucrt:output.obj
 0001:00167528       ?type_case_p@?$output_processor@_WV?$string_output_adapter@_W@__crt_stdio_output@@V?$format_validation_base@_WV?$string_output_adapter@_W@__crt_stdio_output@@@2@@__crt_stdio_output@@AEAA_NXZ 0000000180168528 f i libucrt:output.obj
 0001:00167540       ?type_case_p@?$output_processor@_WV?$string_output_adapter@_W@__crt_stdio_output@@V?$positional_parameter_base@_WV?$string_output_adapter@_W@__crt_stdio_output@@@2@@__crt_stdio_output@@AEAA_NXZ 0000000180168540 f i libucrt:output.obj
 0001:00167558       ?type_case_p@?$output_processor@_WV?$string_output_adapter@_W@__crt_stdio_output@@V?$standard_base@_WV?$string_output_adapter@_W@__crt_stdio_output@@@2@@__crt_stdio_output@@AEAA_NXZ 0000000180168558 f i libucrt:output.obj
 0001:00167570       ?type_case_s@?$output_processor@DV?$stream_output_adapter@D@__crt_stdio_output@@V?$format_validation_base@DV?$stream_output_adapter@D@__crt_stdio_output@@@2@@__crt_stdio_output@@AEAA_NXZ 0000000180168570 f i libucrt:output.obj
 0001:00167608       ?type_case_s@?$output_processor@DV?$stream_output_adapter@D@__crt_stdio_output@@V?$positional_parameter_base@DV?$stream_output_adapter@D@__crt_stdio_output@@@2@@__crt_stdio_output@@AEAA_NXZ 0000000180168608 f i libucrt:output.obj
 0001:001676c0       ?type_case_s@?$output_processor@DV?$stream_output_adapter@D@__crt_stdio_output@@V?$standard_base@DV?$stream_output_adapter@D@__crt_stdio_output@@@2@@__crt_stdio_output@@AEAA_NXZ 00000001801686c0 f i libucrt:output.obj
 0001:00167758       ?type_case_s@?$output_processor@DV?$string_output_adapter@D@__crt_stdio_output@@V?$format_validation_base@DV?$string_output_adapter@D@__crt_stdio_output@@@2@@__crt_stdio_output@@AEAA_NXZ 0000000180168758 f i libucrt:output.obj
 0001:001677f0       ?type_case_s@?$output_processor@DV?$string_output_adapter@D@__crt_stdio_output@@V?$positional_parameter_base@DV?$string_output_adapter@D@__crt_stdio_output@@@2@@__crt_stdio_output@@AEAA_NXZ 00000001801687f0 f i libucrt:output.obj
 0001:001678a8       ?type_case_s@?$output_processor@DV?$string_output_adapter@D@__crt_stdio_output@@V?$standard_base@DV?$string_output_adapter@D@__crt_stdio_output@@@2@@__crt_stdio_output@@AEAA_NXZ 00000001801688a8 f i libucrt:output.obj
 0001:00167940       ?type_case_s@?$output_processor@_WV?$stream_output_adapter@_W@__crt_stdio_output@@V?$format_validation_base@_WV?$stream_output_adapter@_W@__crt_stdio_output@@@2@@__crt_stdio_output@@AEAA_NXZ 0000000180168940 f i libucrt:output.obj
 0001:00167a08       ?type_case_s@?$output_processor@_WV?$stream_output_adapter@_W@__crt_stdio_output@@V?$positional_parameter_base@_WV?$stream_output_adapter@_W@__crt_stdio_output@@@2@@__crt_stdio_output@@AEAA_NXZ 0000000180168a08 f i libucrt:output.obj
 0001:00167af4       ?type_case_s@?$output_processor@_WV?$stream_output_adapter@_W@__crt_stdio_output@@V?$standard_base@_WV?$stream_output_adapter@_W@__crt_stdio_output@@@2@@__crt_stdio_output@@AEAA_NXZ 0000000180168af4 f i libucrt:output.obj
 0001:00167bbc       ?type_case_s@?$output_processor@_WV?$string_output_adapter@_W@__crt_stdio_output@@V?$format_validation_base@_WV?$string_output_adapter@_W@__crt_stdio_output@@@2@@__crt_stdio_output@@AEAA_NXZ 0000000180168bbc f i libucrt:output.obj
 0001:00167c84       ?type_case_s@?$output_processor@_WV?$string_output_adapter@_W@__crt_stdio_output@@V?$positional_parameter_base@_WV?$string_output_adapter@_W@__crt_stdio_output@@@2@@__crt_stdio_output@@AEAA_NXZ 0000000180168c84 f i libucrt:output.obj
 0001:00167d70       ?type_case_s@?$output_processor@_WV?$string_output_adapter@_W@__crt_stdio_output@@V?$standard_base@_WV?$string_output_adapter@_W@__crt_stdio_output@@@2@@__crt_stdio_output@@AEAA_NXZ 0000000180168d70 f i libucrt:output.obj
 0001:00167e38       ?type_case_s_compute_narrow_string_length@?$output_processor@DV?$stream_output_adapter@D@__crt_stdio_output@@V?$format_validation_base@DV?$stream_output_adapter@D@__crt_stdio_output@@@2@@__crt_stdio_output@@AEBAHHD@Z 0000000180168e38 f i libucrt:output.obj
 0001:00167e44       ?type_case_s_compute_narrow_string_length@?$output_processor@DV?$stream_output_adapter@D@__crt_stdio_output@@V?$positional_parameter_base@DV?$stream_output_adapter@D@__crt_stdio_output@@@2@@__crt_stdio_output@@AEBAHHD@Z 0000000180168e44 f i libucrt:output.obj
 0001:00167e50       ?type_case_s_compute_narrow_string_length@?$output_processor@DV?$stream_output_adapter@D@__crt_stdio_output@@V?$standard_base@DV?$stream_output_adapter@D@__crt_stdio_output@@@2@@__crt_stdio_output@@AEBAHHD@Z 0000000180168e50 f i libucrt:output.obj
 0001:00167e5c       ?type_case_s_compute_narrow_string_length@?$output_processor@DV?$string_output_adapter@D@__crt_stdio_output@@V?$format_validation_base@DV?$string_output_adapter@D@__crt_stdio_output@@@2@@__crt_stdio_output@@AEBAHHD@Z 0000000180168e5c f i libucrt:output.obj
 0001:00167e68       ?type_case_s_compute_narrow_string_length@?$output_processor@DV?$string_output_adapter@D@__crt_stdio_output@@V?$positional_parameter_base@DV?$string_output_adapter@D@__crt_stdio_output@@@2@@__crt_stdio_output@@AEBAHHD@Z 0000000180168e68 f i libucrt:output.obj
 0001:00167e74       ?type_case_s_compute_narrow_string_length@?$output_processor@DV?$string_output_adapter@D@__crt_stdio_output@@V?$standard_base@DV?$string_output_adapter@D@__crt_stdio_output@@@2@@__crt_stdio_output@@AEBAHHD@Z 0000000180168e74 f i libucrt:output.obj
 0001:00167e80       ?type_case_s_compute_narrow_string_length@?$output_processor@_WV?$stream_output_adapter@_W@__crt_stdio_output@@V?$format_validation_base@_WV?$stream_output_adapter@_W@__crt_stdio_output@@@2@@__crt_stdio_output@@AEBAHH_W@Z 0000000180168e80 f i libucrt:output.obj
 0001:00167ed4       ?type_case_s_compute_narrow_string_length@?$output_processor@_WV?$stream_output_adapter@_W@__crt_stdio_output@@V?$positional_parameter_base@_WV?$stream_output_adapter@_W@__crt_stdio_output@@@2@@__crt_stdio_output@@AEBAHH_W@Z 0000000180168ed4 f i libucrt:output.obj
 0001:00167f28       ?type_case_s_compute_narrow_string_length@?$output_processor@_WV?$stream_output_adapter@_W@__crt_stdio_output@@V?$standard_base@_WV?$stream_output_adapter@_W@__crt_stdio_output@@@2@@__crt_stdio_output@@AEBAHH_W@Z 0000000180168f28 f i libucrt:output.obj
 0001:00167f7c       ?type_case_s_compute_narrow_string_length@?$output_processor@_WV?$string_output_adapter@_W@__crt_stdio_output@@V?$format_validation_base@_WV?$string_output_adapter@_W@__crt_stdio_output@@@2@@__crt_stdio_output@@AEBAHH_W@Z 0000000180168f7c f i libucrt:output.obj
 0001:00167fd0       ?type_case_s_compute_narrow_string_length@?$output_processor@_WV?$string_output_adapter@_W@__crt_stdio_output@@V?$positional_parameter_base@_WV?$string_output_adapter@_W@__crt_stdio_output@@@2@@__crt_stdio_output@@AEBAHH_W@Z 0000000180168fd0 f i libucrt:output.obj
 0001:00168024       ?type_case_s_compute_narrow_string_length@?$output_processor@_WV?$string_output_adapter@_W@__crt_stdio_output@@V?$standard_base@_WV?$string_output_adapter@_W@__crt_stdio_output@@@2@@__crt_stdio_output@@AEBAHH_W@Z 0000000180169024 f i libucrt:output.obj
 0001:00168078       ?type_case_u@?$output_processor@DV?$stream_output_adapter@D@__crt_stdio_output@@V?$format_validation_base@DV?$stream_output_adapter@D@__crt_stdio_output@@@2@@__crt_stdio_output@@AEAA_NXZ 0000000180169078 f i libucrt:output.obj
 0001:00168084       ?type_case_u@?$output_processor@DV?$stream_output_adapter@D@__crt_stdio_output@@V?$positional_parameter_base@DV?$stream_output_adapter@D@__crt_stdio_output@@@2@@__crt_stdio_output@@AEAA_NXZ 0000000180169084 f i libucrt:output.obj
 0001:00168090       ?type_case_u@?$output_processor@DV?$stream_output_adapter@D@__crt_stdio_output@@V?$standard_base@DV?$stream_output_adapter@D@__crt_stdio_output@@@2@@__crt_stdio_output@@AEAA_NXZ 0000000180169090 f i libucrt:output.obj
 0001:0016809c       ?type_case_u@?$output_processor@DV?$string_output_adapter@D@__crt_stdio_output@@V?$format_validation_base@DV?$string_output_adapter@D@__crt_stdio_output@@@2@@__crt_stdio_output@@AEAA_NXZ 000000018016909c f i libucrt:output.obj
 0001:001680a8       ?type_case_u@?$output_processor@DV?$string_output_adapter@D@__crt_stdio_output@@V?$positional_parameter_base@DV?$string_output_adapter@D@__crt_stdio_output@@@2@@__crt_stdio_output@@AEAA_NXZ 00000001801690a8 f i libucrt:output.obj
 0001:001680b4       ?type_case_u@?$output_processor@DV?$string_output_adapter@D@__crt_stdio_output@@V?$standard_base@DV?$string_output_adapter@D@__crt_stdio_output@@@2@@__crt_stdio_output@@AEAA_NXZ 00000001801690b4 f i libucrt:output.obj
 0001:001680c0       ?type_case_u@?$output_processor@_WV?$stream_output_adapter@_W@__crt_stdio_output@@V?$format_validation_base@_WV?$stream_output_adapter@_W@__crt_stdio_output@@@2@@__crt_stdio_output@@AEAA_NXZ 00000001801690c0 f i libucrt:output.obj
 0001:001680cc       ?type_case_u@?$output_processor@_WV?$stream_output_adapter@_W@__crt_stdio_output@@V?$positional_parameter_base@_WV?$stream_output_adapter@_W@__crt_stdio_output@@@2@@__crt_stdio_output@@AEAA_NXZ 00000001801690cc f i libucrt:output.obj
 0001:001680d8       ?type_case_u@?$output_processor@_WV?$stream_output_adapter@_W@__crt_stdio_output@@V?$standard_base@_WV?$stream_output_adapter@_W@__crt_stdio_output@@@2@@__crt_stdio_output@@AEAA_NXZ 00000001801690d8 f i libucrt:output.obj
 0001:001680e4       ?type_case_u@?$output_processor@_WV?$string_output_adapter@_W@__crt_stdio_output@@V?$format_validation_base@_WV?$string_output_adapter@_W@__crt_stdio_output@@@2@@__crt_stdio_output@@AEAA_NXZ 00000001801690e4 f i libucrt:output.obj
 0001:001680f0       ?type_case_u@?$output_processor@_WV?$string_output_adapter@_W@__crt_stdio_output@@V?$positional_parameter_base@_WV?$string_output_adapter@_W@__crt_stdio_output@@@2@@__crt_stdio_output@@AEAA_NXZ 00000001801690f0 f i libucrt:output.obj
 0001:001680fc       ?type_case_u@?$output_processor@_WV?$string_output_adapter@_W@__crt_stdio_output@@V?$standard_base@_WV?$string_output_adapter@_W@__crt_stdio_output@@@2@@__crt_stdio_output@@AEAA_NXZ 00000001801690fc f i libucrt:output.obj
 0001:00168108       ?type_case_x@?$output_processor@DV?$stream_output_adapter@D@__crt_stdio_output@@V?$format_validation_base@DV?$stream_output_adapter@D@__crt_stdio_output@@@2@@__crt_stdio_output@@AEAA_NXZ 0000000180169108 f i libucrt:output.obj
 0001:00168114       ?type_case_x@?$output_processor@DV?$stream_output_adapter@D@__crt_stdio_output@@V?$positional_parameter_base@DV?$stream_output_adapter@D@__crt_stdio_output@@@2@@__crt_stdio_output@@AEAA_NXZ 0000000180169114 f i libucrt:output.obj
 0001:00168120       ?type_case_x@?$output_processor@DV?$stream_output_adapter@D@__crt_stdio_output@@V?$standard_base@DV?$stream_output_adapter@D@__crt_stdio_output@@@2@@__crt_stdio_output@@AEAA_NXZ 0000000180169120 f i libucrt:output.obj
 0001:0016812c       ?type_case_x@?$output_processor@DV?$string_output_adapter@D@__crt_stdio_output@@V?$format_validation_base@DV?$string_output_adapter@D@__crt_stdio_output@@@2@@__crt_stdio_output@@AEAA_NXZ 000000018016912c f i libucrt:output.obj
 0001:00168138       ?type_case_x@?$output_processor@DV?$string_output_adapter@D@__crt_stdio_output@@V?$positional_parameter_base@DV?$string_output_adapter@D@__crt_stdio_output@@@2@@__crt_stdio_output@@AEAA_NXZ 0000000180169138 f i libucrt:output.obj
 0001:00168144       ?type_case_x@?$output_processor@DV?$string_output_adapter@D@__crt_stdio_output@@V?$standard_base@DV?$string_output_adapter@D@__crt_stdio_output@@@2@@__crt_stdio_output@@AEAA_NXZ 0000000180169144 f i libucrt:output.obj
 0001:00168150       ?type_case_x@?$output_processor@_WV?$stream_output_adapter@_W@__crt_stdio_output@@V?$format_validation_base@_WV?$stream_output_adapter@_W@__crt_stdio_output@@@2@@__crt_stdio_output@@AEAA_NXZ 0000000180169150 f i libucrt:output.obj
 0001:0016815c       ?type_case_x@?$output_processor@_WV?$stream_output_adapter@_W@__crt_stdio_output@@V?$positional_parameter_base@_WV?$stream_output_adapter@_W@__crt_stdio_output@@@2@@__crt_stdio_output@@AEAA_NXZ 000000018016915c f i libucrt:output.obj
 0001:00168168       ?type_case_x@?$output_processor@_WV?$stream_output_adapter@_W@__crt_stdio_output@@V?$standard_base@_WV?$stream_output_adapter@_W@__crt_stdio_output@@@2@@__crt_stdio_output@@AEAA_NXZ 0000000180169168 f i libucrt:output.obj
 0001:00168174       ?type_case_x@?$output_processor@_WV?$string_output_adapter@_W@__crt_stdio_output@@V?$format_validation_base@_WV?$string_output_adapter@_W@__crt_stdio_output@@@2@@__crt_stdio_output@@AEAA_NXZ 0000000180169174 f i libucrt:output.obj
 0001:00168180       ?type_case_x@?$output_processor@_WV?$string_output_adapter@_W@__crt_stdio_output@@V?$positional_parameter_base@_WV?$string_output_adapter@_W@__crt_stdio_output@@@2@@__crt_stdio_output@@AEAA_NXZ 0000000180169180 f i libucrt:output.obj
 0001:0016818c       ?type_case_x@?$output_processor@_WV?$string_output_adapter@_W@__crt_stdio_output@@V?$standard_base@_WV?$string_output_adapter@_W@__crt_stdio_output@@@2@@__crt_stdio_output@@AEAA_NXZ 000000018016918c f i libucrt:output.obj
 0001:00168198       ?unset_flag@?$output_processor@DV?$stream_output_adapter@D@__crt_stdio_output@@V?$format_validation_base@DV?$stream_output_adapter@D@__crt_stdio_output@@@2@@__crt_stdio_output@@AEAAXI@Z 0000000180169198 f i libucrt:output.obj
 0001:001681a0       ?unset_flag@?$output_processor@DV?$stream_output_adapter@D@__crt_stdio_output@@V?$positional_parameter_base@DV?$stream_output_adapter@D@__crt_stdio_output@@@2@@__crt_stdio_output@@AEAAXI@Z 00000001801691a0 f i libucrt:output.obj
 0001:001681a8       ?unset_flag@?$output_processor@DV?$stream_output_adapter@D@__crt_stdio_output@@V?$standard_base@DV?$stream_output_adapter@D@__crt_stdio_output@@@2@@__crt_stdio_output@@AEAAXI@Z 00000001801691a8 f i libucrt:output.obj
 0001:001681b0       ?unset_flag@?$output_processor@DV?$string_output_adapter@D@__crt_stdio_output@@V?$format_validation_base@DV?$string_output_adapter@D@__crt_stdio_output@@@2@@__crt_stdio_output@@AEAAXI@Z 00000001801691b0 f i libucrt:output.obj
 0001:001681b8       ?unset_flag@?$output_processor@DV?$string_output_adapter@D@__crt_stdio_output@@V?$positional_parameter_base@DV?$string_output_adapter@D@__crt_stdio_output@@@2@@__crt_stdio_output@@AEAAXI@Z 00000001801691b8 f i libucrt:output.obj
 0001:001681c0       ?unset_flag@?$output_processor@DV?$string_output_adapter@D@__crt_stdio_output@@V?$standard_base@DV?$string_output_adapter@D@__crt_stdio_output@@@2@@__crt_stdio_output@@AEAAXI@Z 00000001801691c0 f i libucrt:output.obj
 0001:001681c8       ?unset_flag@?$output_processor@_WV?$stream_output_adapter@_W@__crt_stdio_output@@V?$format_validation_base@_WV?$stream_output_adapter@_W@__crt_stdio_output@@@2@@__crt_stdio_output@@AEAAXI@Z 00000001801691c8 f i libucrt:output.obj
 0001:001681d0       ?unset_flag@?$output_processor@_WV?$stream_output_adapter@_W@__crt_stdio_output@@V?$positional_parameter_base@_WV?$stream_output_adapter@_W@__crt_stdio_output@@@2@@__crt_stdio_output@@AEAAXI@Z 00000001801691d0 f i libucrt:output.obj
 0001:001681d8       ?unset_flag@?$output_processor@_WV?$stream_output_adapter@_W@__crt_stdio_output@@V?$standard_base@_WV?$stream_output_adapter@_W@__crt_stdio_output@@@2@@__crt_stdio_output@@AEAAXI@Z 00000001801691d8 f i libucrt:output.obj
 0001:001681e0       ?unset_flag@?$output_processor@_WV?$string_output_adapter@_W@__crt_stdio_output@@V?$format_validation_base@_WV?$string_output_adapter@_W@__crt_stdio_output@@@2@@__crt_stdio_output@@AEAAXI@Z 00000001801691e0 f i libucrt:output.obj
 0001:001681e8       ?unset_flag@?$output_processor@_WV?$string_output_adapter@_W@__crt_stdio_output@@V?$positional_parameter_base@_WV?$string_output_adapter@_W@__crt_stdio_output@@@2@@__crt_stdio_output@@AEAAXI@Z 00000001801691e8 f i libucrt:output.obj
 0001:001681f0       ?unset_flag@?$output_processor@_WV?$string_output_adapter@_W@__crt_stdio_output@@V?$standard_base@_WV?$string_output_adapter@_W@__crt_stdio_output@@@2@@__crt_stdio_output@@AEAAXI@Z 00000001801691f0 f i libucrt:output.obj
 0001:001681f8       ?update_field_width@?$positional_parameter_base@DV?$stream_output_adapter@D@__crt_stdio_output@@@__crt_stdio_output@@IEAA_NXZ 00000001801691f8 f i libucrt:output.obj
 0001:00168310       ?update_field_width@?$positional_parameter_base@DV?$string_output_adapter@D@__crt_stdio_output@@@__crt_stdio_output@@IEAA_NXZ 0000000180169310 f i libucrt:output.obj
 0001:00168428       ?update_field_width@?$positional_parameter_base@_WV?$stream_output_adapter@_W@__crt_stdio_output@@@__crt_stdio_output@@IEAA_NXZ 0000000180169428 f i libucrt:output.obj
 0001:00168540       ?update_field_width@?$positional_parameter_base@_WV?$string_output_adapter@_W@__crt_stdio_output@@@__crt_stdio_output@@IEAA_NXZ 0000000180169540 f i libucrt:output.obj
 0001:00168658       ?update_field_width@?$standard_base@DV?$stream_output_adapter@D@__crt_stdio_output@@@__crt_stdio_output@@IEAA_NXZ 0000000180169658 f i libucrt:output.obj
 0001:0016866c       ?update_field_width@?$standard_base@DV?$string_output_adapter@D@__crt_stdio_output@@@__crt_stdio_output@@IEAA_NXZ 000000018016966c f i libucrt:output.obj
 0001:00168680       ?update_field_width@?$standard_base@_WV?$stream_output_adapter@_W@__crt_stdio_output@@@__crt_stdio_output@@IEAA_NXZ 0000000180169680 f i libucrt:output.obj
 0001:00168694       ?update_field_width@?$standard_base@_WV?$string_output_adapter@_W@__crt_stdio_output@@@__crt_stdio_output@@IEAA_NXZ 0000000180169694 f i libucrt:output.obj
 0001:001686a8       ?update_precision@?$positional_parameter_base@DV?$stream_output_adapter@D@__crt_stdio_output@@@__crt_stdio_output@@IEAA_NXZ 00000001801696a8 f i libucrt:output.obj
 0001:001687c0       ?update_precision@?$positional_parameter_base@DV?$string_output_adapter@D@__crt_stdio_output@@@__crt_stdio_output@@IEAA_NXZ 00000001801697c0 f i libucrt:output.obj
 0001:001688d8       ?update_precision@?$positional_parameter_base@_WV?$stream_output_adapter@_W@__crt_stdio_output@@@__crt_stdio_output@@IEAA_NXZ 00000001801698d8 f i libucrt:output.obj
 0001:001689f0       ?update_precision@?$positional_parameter_base@_WV?$string_output_adapter@_W@__crt_stdio_output@@@__crt_stdio_output@@IEAA_NXZ 00000001801699f0 f i libucrt:output.obj
 0001:00168b08       ?update_precision@?$standard_base@DV?$stream_output_adapter@D@__crt_stdio_output@@@__crt_stdio_output@@IEAA_NXZ 0000000180169b08 f i libucrt:output.obj
 0001:00168b1c       ?update_precision@?$standard_base@DV?$string_output_adapter@D@__crt_stdio_output@@@__crt_stdio_output@@IEAA_NXZ 0000000180169b1c f i libucrt:output.obj
 0001:00168b30       ?update_precision@?$standard_base@_WV?$stream_output_adapter@_W@__crt_stdio_output@@@__crt_stdio_output@@IEAA_NXZ 0000000180169b30 f i libucrt:output.obj
 0001:00168b44       ?update_precision@?$standard_base@_WV?$string_output_adapter@_W@__crt_stdio_output@@@__crt_stdio_output@@IEAA_NXZ 0000000180169b44 f i libucrt:output.obj
 0001:00168b58       ?valid@__crt_stdio_stream@@QEBA_NXZ 0000000180169b58 f i libucrt:output.obj
 0001:00168b60       ?validate@?$stream_output_adapter@D@__crt_stdio_output@@QEBA_NXZ 0000000180169b60 f i libucrt:output.obj
 0001:00168b8c       ?validate@?$stream_output_adapter@_W@__crt_stdio_output@@QEBA_NXZ 0000000180169b8c f i libucrt:output.obj
 0001:00168bb4       ?validate@?$string_output_adapter@D@__crt_stdio_output@@QEBA_NXZ 0000000180169bb4 f i libucrt:output.obj
 0001:00168bdc       ?validate@?$string_output_adapter@_W@__crt_stdio_output@@QEBA_NXZ 0000000180169bdc f i libucrt:output.obj
 0001:00168c04       ?validate_and_store_parameter_data@?$positional_parameter_base@DV?$stream_output_adapter@D@__crt_stdio_output@@@__crt_stdio_output@@AEAA_NAEAUparameter_data@12@W4parameter_type@12@DW4length_modifier@2@@Z 0000000180169c04 f i libucrt:output.obj
 0001:00168c44       ?validate_and_store_parameter_data@?$positional_parameter_base@DV?$string_output_adapter@D@__crt_stdio_output@@@__crt_stdio_output@@AEAA_NAEAUparameter_data@12@W4parameter_type@12@DW4length_modifier@2@@Z 0000000180169c44 f i libucrt:output.obj
 0001:00168c84       ?validate_and_store_parameter_data@?$positional_parameter_base@_WV?$stream_output_adapter@_W@__crt_stdio_output@@@__crt_stdio_output@@AEAA_NAEAUparameter_data@12@W4parameter_type@12@_WW4length_modifier@2@@Z 0000000180169c84 f i libucrt:output.obj
 0001:00168cc4       ?validate_and_store_parameter_data@?$positional_parameter_base@_WV?$string_output_adapter@_W@__crt_stdio_output@@@__crt_stdio_output@@AEAA_NAEAUparameter_data@12@W4parameter_type@12@_WW4length_modifier@2@@Z 0000000180169cc4 f i libucrt:output.obj
 0001:00168d04       ?validate_and_update_state_at_beginning_of_format_character@?$positional_parameter_base@DV?$stream_output_adapter@D@__crt_stdio_output@@@__crt_stdio_output@@IEAA_NXZ 0000000180169d04 f i libucrt:output.obj
 0001:00168e10       ?validate_and_update_state_at_beginning_of_format_character@?$positional_parameter_base@DV?$string_output_adapter@D@__crt_stdio_output@@@__crt_stdio_output@@IEAA_NXZ 0000000180169e10 f i libucrt:output.obj
 0001:00168f1c       ?validate_and_update_state_at_beginning_of_format_character@?$positional_parameter_base@_WV?$stream_output_adapter@_W@__crt_stdio_output@@@__crt_stdio_output@@IEAA_NXZ 0000000180169f1c f i libucrt:output.obj
 0001:00169030       ?validate_and_update_state_at_beginning_of_format_character@?$positional_parameter_base@_WV?$string_output_adapter@_W@__crt_stdio_output@@@__crt_stdio_output@@IEAA_NXZ 000000018016a030 f i libucrt:output.obj
 0001:00169144       ?validate_and_update_state_at_beginning_of_format_character@?$standard_base@DV?$stream_output_adapter@D@__crt_stdio_output@@@__crt_stdio_output@@IEAA_NXZ 000000018016a144 f i libucrt:output.obj
 0001:00169148       ?validate_and_update_state_at_beginning_of_format_character@?$standard_base@DV?$string_output_adapter@D@__crt_stdio_output@@@__crt_stdio_output@@IEAA_NXZ 000000018016a148 f i libucrt:output.obj
 0001:0016914c       ?validate_and_update_state_at_beginning_of_format_character@?$standard_base@_WV?$stream_output_adapter@_W@__crt_stdio_output@@@__crt_stdio_output@@IEAA_NXZ 000000018016a14c f i libucrt:output.obj
 0001:00169150       ?validate_and_update_state_at_beginning_of_format_character@?$standard_base@_WV?$string_output_adapter@_W@__crt_stdio_output@@@__crt_stdio_output@@IEAA_NXZ 000000018016a150 f i libucrt:output.obj
 0001:00169154       ?validate_and_update_state_at_end_of_format_string@?$format_validation_base@DV?$stream_output_adapter@D@__crt_stdio_output@@@__crt_stdio_output@@IEBA_NXZ 000000018016a154 f i libucrt:output.obj
 0001:00169180       ?validate_and_update_state_at_end_of_format_string@?$format_validation_base@DV?$string_output_adapter@D@__crt_stdio_output@@@__crt_stdio_output@@IEBA_NXZ 000000018016a180 f i libucrt:output.obj
 0001:001691ac       ?validate_and_update_state_at_end_of_format_string@?$format_validation_base@_WV?$stream_output_adapter@_W@__crt_stdio_output@@@__crt_stdio_output@@IEBA_NXZ 000000018016a1ac f i libucrt:output.obj
 0001:001691d8       ?validate_and_update_state_at_end_of_format_string@?$format_validation_base@_WV?$string_output_adapter@_W@__crt_stdio_output@@@__crt_stdio_output@@IEBA_NXZ 000000018016a1d8 f i libucrt:output.obj
 0001:00169204       ?validate_and_update_state_at_end_of_format_string@?$positional_parameter_base@DV?$stream_output_adapter@D@__crt_stdio_output@@@__crt_stdio_output@@IEAA_NXZ 000000018016a204 f i libucrt:output.obj
 0001:001692a0       ?validate_and_update_state_at_end_of_format_string@?$positional_parameter_base@DV?$string_output_adapter@D@__crt_stdio_output@@@__crt_stdio_output@@IEAA_NXZ 000000018016a2a0 f i libucrt:output.obj
 0001:0016933c       ?validate_and_update_state_at_end_of_format_string@?$positional_parameter_base@_WV?$stream_output_adapter@_W@__crt_stdio_output@@@__crt_stdio_output@@IEAA_NXZ 000000018016a33c f i libucrt:output.obj
 0001:001693d8       ?validate_and_update_state_at_end_of_format_string@?$positional_parameter_base@_WV?$string_output_adapter@_W@__crt_stdio_output@@@__crt_stdio_output@@IEAA_NXZ 000000018016a3d8 f i libucrt:output.obj
 0001:00169474       ?validate_and_update_state_at_end_of_format_string@?$standard_base@DV?$stream_output_adapter@D@__crt_stdio_output@@@__crt_stdio_output@@IEBA_NXZ 000000018016a474 f i libucrt:output.obj
 0001:00169478       ?validate_and_update_state_at_end_of_format_string@?$standard_base@DV?$string_output_adapter@D@__crt_stdio_output@@@__crt_stdio_output@@IEBA_NXZ 000000018016a478 f i libucrt:output.obj
 0001:0016947c       ?validate_and_update_state_at_end_of_format_string@?$standard_base@_WV?$stream_output_adapter@_W@__crt_stdio_output@@@__crt_stdio_output@@IEBA_NXZ 000000018016a47c f i libucrt:output.obj
 0001:00169480       ?validate_and_update_state_at_end_of_format_string@?$standard_base@_WV?$string_output_adapter@_W@__crt_stdio_output@@@__crt_stdio_output@@IEBA_NXZ 000000018016a480 f i libucrt:output.obj
 0001:00169484       ?validate_state_for_type_case_a@?$positional_parameter_base@DV?$stream_output_adapter@D@__crt_stdio_output@@@__crt_stdio_output@@IEAA_NXZ 000000018016a484 f i libucrt:output.obj
 0001:00169520       ?validate_state_for_type_case_a@?$positional_parameter_base@DV?$string_output_adapter@D@__crt_stdio_output@@@__crt_stdio_output@@IEAA_NXZ 000000018016a520 f i libucrt:output.obj
 0001:001695bc       ?validate_state_for_type_case_a@?$positional_parameter_base@_WV?$stream_output_adapter@_W@__crt_stdio_output@@@__crt_stdio_output@@IEAA_NXZ 000000018016a5bc f i libucrt:output.obj
 0001:0016965c       ?validate_state_for_type_case_a@?$positional_parameter_base@_WV?$string_output_adapter@_W@__crt_stdio_output@@@__crt_stdio_output@@IEAA_NXZ 000000018016a65c f i libucrt:output.obj
 0001:001696fc       ?validate_state_for_type_case_a@?$standard_base@DV?$stream_output_adapter@D@__crt_stdio_output@@@__crt_stdio_output@@IEBA_NXZ 000000018016a6fc f i libucrt:output.obj
 0001:00169700       ?validate_state_for_type_case_a@?$standard_base@DV?$string_output_adapter@D@__crt_stdio_output@@@__crt_stdio_output@@IEBA_NXZ 000000018016a700 f i libucrt:output.obj
 0001:00169704       ?validate_state_for_type_case_a@?$standard_base@_WV?$stream_output_adapter@_W@__crt_stdio_output@@@__crt_stdio_output@@IEBA_NXZ 000000018016a704 f i libucrt:output.obj
 0001:00169708       ?validate_state_for_type_case_a@?$standard_base@_WV?$string_output_adapter@_W@__crt_stdio_output@@@__crt_stdio_output@@IEBA_NXZ 000000018016a708 f i libucrt:output.obj
 0001:0016970c       ?validate_stream_is_ansi_if_required@?$__acrt_stdio_char_traits@D@@SA_NQEAU_iobuf@@@Z 000000018016a70c f i libucrt:output.obj
 0001:001697a8       ?validate_stream_is_ansi_if_required@?$__acrt_stdio_char_traits@_W@@SA_NQEAU_iobuf@@@Z 000000018016a7a8 f i libucrt:output.obj
 0001:001697ac       ?wide_null_string@?$output_processor@DV?$stream_output_adapter@D@__crt_stdio_output@@V?$format_validation_base@DV?$stream_output_adapter@D@__crt_stdio_output@@@2@@__crt_stdio_output@@CAPEA_WXZ 000000018016a7ac f i libucrt:output.obj
 0001:001697b4       ?wide_null_string@?$output_processor@DV?$stream_output_adapter@D@__crt_stdio_output@@V?$positional_parameter_base@DV?$stream_output_adapter@D@__crt_stdio_output@@@2@@__crt_stdio_output@@CAPEA_WXZ 000000018016a7b4 f i libucrt:output.obj
 0001:001697bc       ?wide_null_string@?$output_processor@DV?$stream_output_adapter@D@__crt_stdio_output@@V?$standard_base@DV?$stream_output_adapter@D@__crt_stdio_output@@@2@@__crt_stdio_output@@CAPEA_WXZ 000000018016a7bc f i libucrt:output.obj
 0001:001697c4       ?wide_null_string@?$output_processor@DV?$string_output_adapter@D@__crt_stdio_output@@V?$format_validation_base@DV?$string_output_adapter@D@__crt_stdio_output@@@2@@__crt_stdio_output@@CAPEA_WXZ 000000018016a7c4 f i libucrt:output.obj
 0001:001697cc       ?wide_null_string@?$output_processor@DV?$string_output_adapter@D@__crt_stdio_output@@V?$positional_parameter_base@DV?$string_output_adapter@D@__crt_stdio_output@@@2@@__crt_stdio_output@@CAPEA_WXZ 000000018016a7cc f i libucrt:output.obj
 0001:001697d4       ?wide_null_string@?$output_processor@DV?$string_output_adapter@D@__crt_stdio_output@@V?$standard_base@DV?$string_output_adapter@D@__crt_stdio_output@@@2@@__crt_stdio_output@@CAPEA_WXZ 000000018016a7d4 f i libucrt:output.obj
 0001:001697dc       ?wide_null_string@?$output_processor@_WV?$stream_output_adapter@_W@__crt_stdio_output@@V?$format_validation_base@_WV?$stream_output_adapter@_W@__crt_stdio_output@@@2@@__crt_stdio_output@@CAPEA_WXZ 000000018016a7dc f i libucrt:output.obj
 0001:001697e4       ?wide_null_string@?$output_processor@_WV?$stream_output_adapter@_W@__crt_stdio_output@@V?$positional_parameter_base@_WV?$stream_output_adapter@_W@__crt_stdio_output@@@2@@__crt_stdio_output@@CAPEA_WXZ 000000018016a7e4 f i libucrt:output.obj
 0001:001697ec       ?wide_null_string@?$output_processor@_WV?$stream_output_adapter@_W@__crt_stdio_output@@V?$standard_base@_WV?$stream_output_adapter@_W@__crt_stdio_output@@@2@@__crt_stdio_output@@CAPEA_WXZ 000000018016a7ec f i libucrt:output.obj
 0001:001697f4       ?wide_null_string@?$output_processor@_WV?$string_output_adapter@_W@__crt_stdio_output@@V?$format_validation_base@_WV?$string_output_adapter@_W@__crt_stdio_output@@@2@@__crt_stdio_output@@CAPEA_WXZ 000000018016a7f4 f i libucrt:output.obj
 0001:001697fc       ?wide_null_string@?$output_processor@_WV?$string_output_adapter@_W@__crt_stdio_output@@V?$positional_parameter_base@_WV?$string_output_adapter@_W@__crt_stdio_output@@@2@@__crt_stdio_output@@CAPEA_WXZ 000000018016a7fc f i libucrt:output.obj
 0001:00169804       ?wide_null_string@?$output_processor@_WV?$string_output_adapter@_W@__crt_stdio_output@@V?$standard_base@_WV?$string_output_adapter@_W@__crt_stdio_output@@@2@@__crt_stdio_output@@CAPEA_WXZ 000000018016a804 f i libucrt:output.obj
 0001:0016980c       ?write_character@?$output_adapter_common@DV?$stream_output_adapter@D@__crt_stdio_output@@@__crt_stdio_output@@QEBAXDQEAH@Z 000000018016a80c f i libucrt:output.obj
 0001:00169854       ?write_character@?$output_adapter_common@_WV?$stream_output_adapter@_W@__crt_stdio_output@@@__crt_stdio_output@@QEBAX_WQEAH@Z 000000018016a854 f i libucrt:output.obj
 0001:001698a0       ?write_character@?$string_output_adapter@D@__crt_stdio_output@@QEBA_NDQEAH@Z 000000018016a8a0 f i libucrt:output.obj
 0001:001698e8       ?write_character@?$string_output_adapter@_W@__crt_stdio_output@@QEBA_N_WQEAH@Z 000000018016a8e8 f i libucrt:output.obj
 0001:00169930       ?write_character_without_count_update@?$stream_output_adapter@D@__crt_stdio_output@@QEBA_ND@Z 000000018016a930 f i libucrt:output.obj
 0001:00169970       ?write_character_without_count_update@?$stream_output_adapter@_W@__crt_stdio_output@@QEBA_N_W@Z 000000018016a970 f i libucrt:output.obj
 0001:001699b0       ?write_stored_string_tchar@?$output_processor@DV?$stream_output_adapter@D@__crt_stdio_output@@V?$format_validation_base@DV?$stream_output_adapter@D@__crt_stdio_output@@@2@@__crt_stdio_output@@AEAA_ND@Z 000000018016a9b0 f i libucrt:output.obj
 0001:00169ad4       ?write_stored_string_tchar@?$output_processor@DV?$stream_output_adapter@D@__crt_stdio_output@@V?$positional_parameter_base@DV?$stream_output_adapter@D@__crt_stdio_output@@@2@@__crt_stdio_output@@AEAA_ND@Z 000000018016aad4 f i libucrt:output.obj
 0001:00169bf8       ?write_stored_string_tchar@?$output_processor@DV?$stream_output_adapter@D@__crt_stdio_output@@V?$standard_base@DV?$stream_output_adapter@D@__crt_stdio_output@@@2@@__crt_stdio_output@@AEAA_ND@Z 000000018016abf8 f i libucrt:output.obj
 0001:00169d1c       ?write_stored_string_tchar@?$output_processor@DV?$string_output_adapter@D@__crt_stdio_output@@V?$format_validation_base@DV?$string_output_adapter@D@__crt_stdio_output@@@2@@__crt_stdio_output@@AEAA_ND@Z 000000018016ad1c f i libucrt:output.obj
